
stm32h750.elf:     file format elf32-littlearm

Sections:
Idx Name          Size      VMA       LMA       File off  Algn
  0 .isr_vector   00000298  08000000  08000000  00001000  2**0
                  CONTENTS, ALLOC, LOAD, READONLY, DATA
  1 .itcm         000007e0  00000000  08000298  00002000  2**3
                  CONTENTS, ALLOC, LOAD, READONLY, CODE
  2 .text         000077c8  08000a80  08000a80  00002a80  2**4
                  CONTENTS, ALLOC, LOAD, READONLY, CODE
  3 .rodata       000006d4  08008248  08008248  0000a248  2**3
                  CONTENTS, ALLOC, LOAD, READONLY, DATA
  4 .ARM          00000008  0800891c  0800891c  0000a91c  2**2
                  CONTENTS, ALLOC, LOAD, READONLY, DATA
  5 .init_array   00000004  08008924  08008924  0000a924  2**2
                  CONTENTS, ALLOC, LOAD, READONLY, DATA
  6 .fini_array   00000004  08008928  08008928  0000a928  2**2
                  CONTENTS, ALLOC, LOAD, READONLY, DATA
  7 .data         000001d8  20000000  0800892c  0000b000  2**2
                  CONTENTS, ALLOC, LOAD, DATA
  8 .bss          00000170  200001d8  08008b04  0000b1d8  2**2
                  ALLOC
  9 .bigdata      0000571c  24000000  24000000  0000c000  2**2
                  ALLOC
 10 ._user_heap_stack 00000600  20000348  20000348  0000b348  2**0
                  ALLOC
 11 .ARM.attributes 0000002e  00000000  00000000  0000b1d8  2**0
                  CONTENTS, READONLY
 12 .comment      00000043  00000000  00000000  0000b206  2**0
                  CONTENTS, READONLY
 13 .debug_frame  0000150c  00000000  00000000  0000b24c  2**2
                  CONTENTS, READONLY, DEBUGGING, OCTETS

Disassembly of section .itcm:

00000000 <bn_div_word_top_rec>:
   0:	e92d 4ff0 	stmdb	sp!, {r4, r5, r6, r7, r8, r9, sl, fp, lr}
   4:	b087      	sub	sp, #28
   6:	4607      	mov	r7, r0
   8:	4699      	mov	r9, r3
   a:	9001      	str	r0, [sp, #4]
   c:	1e58      	subs	r0, r3, #1
   e:	9c10      	ldr	r4, [sp, #64]	@ 0x40
  10:	2802      	cmp	r0, #2
  12:	9103      	str	r1, [sp, #12]
  14:	f340 81d8 	ble.w	3c8 <_Min_Heap_Size+0x1c8>
  18:	089b      	lsrs	r3, r3, #2
  1a:	f1a1 0610 	sub.w	r6, r1, #16
  1e:	2500      	movs	r5, #0
  20:	eb07 0e89 	add.w	lr, r7, r9, lsl #2
  24:	f103 38ff 	add.w	r8, r3, #4294967295
  28:	eb06 0689 	add.w	r6, r6, r9, lsl #2
  2c:	460b      	mov	r3, r1
  2e:	ea4f 0189 	mov.w	r1, r9, lsl #2
  32:	eba6 1608 	sub.w	r6, r6, r8, lsl #4
  36:	9102      	str	r1, [sp, #8]
  38:	eb03 0c89 	add.w	ip, r3, r9, lsl #2
  3c:	4629      	mov	r1, r5
  3e:	e9cd 8904 	strd	r8, r9, [sp, #16]
  42:	e9d4 3800 	ldrd	r3, r8, [r4]
  46:	48df      	ldr	r0, [pc, #892]	@ (3c4 <_Min_Heap_Size+0x1c4>)
  48:	f04f 0900 	mov.w	r9, #0
  4c:	f85c 7c04 	ldr.w	r7, [ip, #-4]
  50:	fbe1 7900 	umlal	r7, r9, r1, r0
  54:	fba7 1b03 	umull	r1, fp, r7, r3
  58:	4648      	mov	r0, r9
  5a:	fba3 a309 	umull	sl, r3, r3, r9
  5e:	fba8 1907 	umull	r1, r9, r8, r7
  62:	eb11 010b 	adds.w	r1, r1, fp
  66:	f04f 0b00 	mov.w	fp, #0
  6a:	eb4b 0b0b 	adc.w	fp, fp, fp
  6e:	eb11 010a 	adds.w	r1, r1, sl
  72:	f04f 0100 	mov.w	r1, #0
  76:	f14b 0b00 	adc.w	fp, fp, #0
  7a:	eb13 0309 	adds.w	r3, r3, r9
  7e:	4149      	adcs	r1, r1
  80:	fbe8 3100 	umlal	r3, r1, r8, r0
  84:	eb1b 0303 	adds.w	r3, fp, r3
  88:	f141 0800 	adc.w	r8, r1, #0
  8c:	fb03 f105 	mul.w	r1, r3, r5
  90:	fb02 1108 	mla	r1, r2, r8, r1
  94:	fba3 8902 	umull	r8, r9, r3, r2
  98:	ebb7 0708 	subs.w	r7, r7, r8
  9c:	4449      	add	r1, r9
  9e:	eb60 0001 	sbc.w	r0, r0, r1
  a2:	4297      	cmp	r7, r2
  a4:	f170 0000 	sbcs.w	r0, r0, #0
  a8:	d301      	bcc.n	ae <bn_div_word_top_rec+0xae>
  aa:	1abf      	subs	r7, r7, r2
  ac:	3301      	adds	r3, #1
  ae:	49c5      	ldr	r1, [pc, #788]	@ (3c4 <_Min_Heap_Size+0x1c4>)
  b0:	f04f 0900 	mov.w	r9, #0
  b4:	f84e 3c04 	str.w	r3, [lr, #-4]
  b8:	f85c 0c08 	ldr.w	r0, [ip, #-8]
  bc:	e9d4 3800 	ldrd	r3, r8, [r4]
  c0:	fbe7 0901 	umlal	r0, r9, r7, r1
  c4:	4649      	mov	r1, r9
  c6:	fba0 7b03 	umull	r7, fp, r0, r3
  ca:	fba3 a309 	umull	sl, r3, r3, r9
  ce:	fba8 7900 	umull	r7, r9, r8, r0
  d2:	eb17 070b 	adds.w	r7, r7, fp
  d6:	f04f 0b00 	mov.w	fp, #0
  da:	eb4b 0b0b 	adc.w	fp, fp, fp
  de:	eb17 070a 	adds.w	r7, r7, sl
  e2:	f04f 0700 	mov.w	r7, #0
  e6:	f14b 0b00 	adc.w	fp, fp, #0
  ea:	eb13 0309 	adds.w	r3, r3, r9
  ee:	417f      	adcs	r7, r7
  f0:	fbe8 3701 	umlal	r3, r7, r8, r1
  f4:	eb1b 0303 	adds.w	r3, fp, r3
  f8:	f147 0700 	adc.w	r7, r7, #0
  fc:	fb03 f805 	mul.w	r8, r3, r5
 100:	fb02 8807 	mla	r8, r2, r7, r8
 104:	fba3 7902 	umull	r7, r9, r3, r2
 108:	1bc7      	subs	r7, r0, r7
 10a:	44c8      	add	r8, r9
 10c:	eb61 0108 	sbc.w	r1, r1, r8
 110:	4297      	cmp	r7, r2
 112:	f171 0100 	sbcs.w	r1, r1, #0
 116:	d301      	bcc.n	11c <bn_div_word_top_rec+0x11c>
 118:	1abf      	subs	r7, r7, r2
 11a:	3301      	adds	r3, #1
 11c:	49a9      	ldr	r1, [pc, #676]	@ (3c4 <_Min_Heap_Size+0x1c4>)
 11e:	f04f 0900 	mov.w	r9, #0
 122:	f84e 3c08 	str.w	r3, [lr, #-8]
 126:	f85c 0c0c 	ldr.w	r0, [ip, #-12]
 12a:	e9d4 3800 	ldrd	r3, r8, [r4]
 12e:	fbe7 0901 	umlal	r0, r9, r7, r1
 132:	4649      	mov	r1, r9
 134:	fba0 7b03 	umull	r7, fp, r0, r3
 138:	fba3 a309 	umull	sl, r3, r3, r9
 13c:	fba8 7900 	umull	r7, r9, r8, r0
 140:	eb17 070b 	adds.w	r7, r7, fp
 144:	f04f 0b00 	mov.w	fp, #0
 148:	eb4b 0b0b 	adc.w	fp, fp, fp
 14c:	eb17 070a 	adds.w	r7, r7, sl
 150:	f04f 0700 	mov.w	r7, #0
 154:	f14b 0b00 	adc.w	fp, fp, #0
 158:	eb13 0309 	adds.w	r3, r3, r9
 15c:	417f      	adcs	r7, r7
 15e:	fbe8 3701 	umlal	r3, r7, r8, r1
 162:	eb1b 0303 	adds.w	r3, fp, r3
 166:	f147 0800 	adc.w	r8, r7, #0
 16a:	fb03 f705 	mul.w	r7, r3, r5
 16e:	fb02 7708 	mla	r7, r2, r8, r7
 172:	fba3 8902 	umull	r8, r9, r3, r2
 176:	ebb0 0008 	subs.w	r0, r0, r8
 17a:	444f      	add	r7, r9
 17c:	eb61 0107 	sbc.w	r1, r1, r7
 180:	4290      	cmp	r0, r2
 182:	f171 0100 	sbcs.w	r1, r1, #0
 186:	d301      	bcc.n	18c <bn_div_word_top_rec+0x18c>
 188:	1a80      	subs	r0, r0, r2
 18a:	3301      	adds	r3, #1
 18c:	498d      	ldr	r1, [pc, #564]	@ (3c4 <_Min_Heap_Size+0x1c4>)
 18e:	2700      	movs	r7, #0
 190:	f84e 3c0c 	str.w	r3, [lr, #-12]
 194:	f85c 3c10 	ldr.w	r3, [ip, #-16]
 198:	e9d4 9a00 	ldrd	r9, sl, [r4]
 19c:	fbe0 3701 	umlal	r3, r7, r0, r1
 1a0:	fba3 0109 	umull	r0, r1, r3, r9
 1a4:	fba3 800a 	umull	r8, r0, r3, sl
 1a8:	fba9 b907 	umull	fp, r9, r9, r7
 1ac:	eb11 0808 	adds.w	r8, r1, r8
 1b0:	f04f 0100 	mov.w	r1, #0
 1b4:	4149      	adcs	r1, r1
 1b6:	eb18 080b 	adds.w	r8, r8, fp
 1ba:	f04f 0800 	mov.w	r8, #0
 1be:	f141 0100 	adc.w	r1, r1, #0
 1c2:	eb10 0009 	adds.w	r0, r0, r9
 1c6:	eb48 0808 	adc.w	r8, r8, r8
 1ca:	fbe7 080a 	umlal	r0, r8, r7, sl
 1ce:	1808      	adds	r0, r1, r0
 1d0:	f148 0800 	adc.w	r8, r8, #0
 1d4:	fba2 1900 	umull	r1, r9, r2, r0
 1d8:	fb02 f808 	mul.w	r8, r2, r8
 1dc:	1a59      	subs	r1, r3, r1
 1de:	fb00 8805 	mla	r8, r0, r5, r8
 1e2:	44c8      	add	r8, r9
 1e4:	eb67 0708 	sbc.w	r7, r7, r8
 1e8:	4291      	cmp	r1, r2
 1ea:	f177 0700 	sbcs.w	r7, r7, #0
 1ee:	f0c0 80de 	bcc.w	3ae <_Min_Heap_Size+0x1ae>
 1f2:	f1ac 0c10 	sub.w	ip, ip, #16
 1f6:	1a89      	subs	r1, r1, r2
 1f8:	3001      	adds	r0, #1
 1fa:	45b4      	cmp	ip, r6
 1fc:	f84e 0d10 	str.w	r0, [lr, #-16]!
 200:	f47f af1f 	bne.w	42 <bn_div_word_top_rec+0x42>
 204:	e9dd 8904 	ldrd	r8, r9, [sp, #16]
 208:	ebc8 7888 	rsb	r8, r8, r8, lsl #30
 20c:	f1a9 0005 	sub.w	r0, r9, #5
 210:	eb00 0088 	add.w	r0, r0, r8, lsl #2
 214:	1c43      	adds	r3, r0, #1
 216:	f000 80ad 	beq.w	374 <_Min_Heap_Size+0x174>
 21a:	9e03      	ldr	r6, [sp, #12]
 21c:	f04f 0c00 	mov.w	ip, #0
 220:	ea4f 0880 	mov.w	r8, r0, lsl #2
 224:	f856 7020 	ldr.w	r7, [r6, r0, lsl #2]
 228:	4e66      	ldr	r6, [pc, #408]	@ (3c4 <_Min_Heap_Size+0x1c4>)
 22a:	e9d4 3a00 	ldrd	r3, sl, [r4]
 22e:	fbe1 7c06 	umlal	r7, ip, r1, r6
 232:	4666      	mov	r6, ip
 234:	fba3 1b07 	umull	r1, fp, r3, r7
 238:	fbac ec03 	umull	lr, ip, ip, r3
 23c:	fba7 130a 	umull	r1, r3, r7, sl
 240:	eb1b 0101 	adds.w	r1, fp, r1
 244:	f04f 0b00 	mov.w	fp, #0
 248:	eb4b 0b0b 	adc.w	fp, fp, fp
 24c:	eb11 010e 	adds.w	r1, r1, lr
 250:	f04f 0100 	mov.w	r1, #0
 254:	f14b 0b00 	adc.w	fp, fp, #0
 258:	eb13 030c 	adds.w	r3, r3, ip
 25c:	4149      	adcs	r1, r1
 25e:	fbe6 310a 	umlal	r3, r1, r6, sl
 262:	eb1b 0303 	adds.w	r3, fp, r3
 266:	f141 0100 	adc.w	r1, r1, #0
 26a:	fb03 fe05 	mul.w	lr, r3, r5
 26e:	fb02 ee01 	mla	lr, r2, r1, lr
 272:	fba3 c102 	umull	ip, r1, r3, r2
 276:	ebb7 070c 	subs.w	r7, r7, ip
 27a:	4471      	add	r1, lr
 27c:	eb66 0601 	sbc.w	r6, r6, r1
 280:	4297      	cmp	r7, r2
 282:	f176 0600 	sbcs.w	r6, r6, #0
 286:	f080 809a 	bcs.w	3be <_Min_Heap_Size+0x1be>
 28a:	9901      	ldr	r1, [sp, #4]
 28c:	f841 3008 	str.w	r3, [r1, r8]
 290:	2800      	cmp	r0, #0
 292:	d06f      	beq.n	374 <_Min_Heap_Size+0x174>
 294:	9903      	ldr	r1, [sp, #12]
 296:	f1a8 0804 	sub.w	r8, r8, #4
 29a:	f04f 0c00 	mov.w	ip, #0
 29e:	f851 6008 	ldr.w	r6, [r1, r8]
 2a2:	4948      	ldr	r1, [pc, #288]	@ (3c4 <_Min_Heap_Size+0x1c4>)
 2a4:	e9d4 3a00 	ldrd	r3, sl, [r4]
 2a8:	fbe7 6c01 	umlal	r6, ip, r7, r1
 2ac:	4661      	mov	r1, ip
 2ae:	fba3 7b06 	umull	r7, fp, r3, r6
 2b2:	fbac ec03 	umull	lr, ip, ip, r3
 2b6:	fba6 730a 	umull	r7, r3, r6, sl
 2ba:	eb1b 0707 	adds.w	r7, fp, r7
 2be:	f04f 0b00 	mov.w	fp, #0
 2c2:	eb4b 0b0b 	adc.w	fp, fp, fp
 2c6:	eb17 070e 	adds.w	r7, r7, lr
 2ca:	f04f 0700 	mov.w	r7, #0
 2ce:	f14b 0b00 	adc.w	fp, fp, #0
 2d2:	eb13 030c 	adds.w	r3, r3, ip
 2d6:	417f      	adcs	r7, r7
 2d8:	fbe1 370a 	umlal	r3, r7, r1, sl
 2dc:	eb1b 0303 	adds.w	r3, fp, r3
 2e0:	f147 0700 	adc.w	r7, r7, #0
 2e4:	fb03 fe05 	mul.w	lr, r3, r5
 2e8:	fb02 ee07 	mla	lr, r2, r7, lr
 2ec:	fba3 7c02 	umull	r7, ip, r3, r2
 2f0:	1bf7      	subs	r7, r6, r7
 2f2:	44f4      	add	ip, lr
 2f4:	eb61 010c 	sbc.w	r1, r1, ip
 2f8:	4297      	cmp	r7, r2
 2fa:	f171 0100 	sbcs.w	r1, r1, #0
 2fe:	d301      	bcc.n	304 <_Min_Heap_Size+0x104>
 300:	1abf      	subs	r7, r7, r2
 302:	3301      	adds	r3, #1
 304:	9901      	ldr	r1, [sp, #4]
 306:	2801      	cmp	r0, #1
 308:	f841 3008 	str.w	r3, [r1, r8]
 30c:	d032      	beq.n	374 <_Min_Heap_Size+0x174>
 30e:	9b03      	ldr	r3, [sp, #12]
 310:	2600      	movs	r6, #0
 312:	f8df c0b0 	ldr.w	ip, [pc, #176]	@ 3c4 <_Min_Heap_Size+0x1c4>
 316:	f04f 0800 	mov.w	r8, #0
 31a:	6818      	ldr	r0, [r3, #0]
 31c:	e9d4 3100 	ldrd	r3, r1, [r4]
 320:	fbe7 060c 	umlal	r0, r6, r7, ip
 324:	4604      	mov	r4, r0
 326:	fba4 0703 	umull	r0, r7, r4, r3
 32a:	fba1 0c04 	umull	r0, ip, r1, r4
 32e:	fba3 e306 	umull	lr, r3, r3, r6
 332:	19c0      	adds	r0, r0, r7
 334:	eb48 0708 	adc.w	r7, r8, r8
 338:	eb10 000e 	adds.w	r0, r0, lr
 33c:	f147 0700 	adc.w	r7, r7, #0
 340:	eb13 030c 	adds.w	r3, r3, ip
 344:	eb48 0008 	adc.w	r0, r8, r8
 348:	fbe1 3006 	umlal	r3, r0, r1, r6
 34c:	18ff      	adds	r7, r7, r3
 34e:	f140 0000 	adc.w	r0, r0, #0
 352:	fb07 f305 	mul.w	r3, r7, r5
 356:	fb02 3300 	mla	r3, r2, r0, r3
 35a:	fba7 0502 	umull	r0, r5, r7, r2
 35e:	1a24      	subs	r4, r4, r0
 360:	442b      	add	r3, r5
 362:	eb66 0603 	sbc.w	r6, r6, r3
 366:	4294      	cmp	r4, r2
 368:	f176 0600 	sbcs.w	r6, r6, #0
 36c:	d300      	bcc.n	370 <_Min_Heap_Size+0x170>
 36e:	3701      	adds	r7, #1
 370:	9b01      	ldr	r3, [sp, #4]
 372:	601f      	str	r7, [r3, #0]
 374:	f240 435a 	movw	r3, #1114	@ 0x45a
 378:	4599      	cmp	r9, r3
 37a:	dc0a      	bgt.n	392 <_Min_Heap_Size+0x192>
 37c:	f240 425b 	movw	r2, #1115	@ 0x45b
 380:	2100      	movs	r1, #0
 382:	eba2 0209 	sub.w	r2, r2, r9
 386:	e9dd 3001 	ldrd	r3, r0, [sp, #4]
 38a:	0092      	lsls	r2, r2, #2
 38c:	1818      	adds	r0, r3, r0
 38e:	f000 fa23 	bl	7d8 <__memset_veneer>
 392:	4648      	mov	r0, r9
 394:	e9dd 3201 	ldrd	r3, r2, [sp, #4]
 398:	4413      	add	r3, r2
 39a:	e001      	b.n	3a0 <_Min_Heap_Size+0x1a0>
 39c:	3801      	subs	r0, #1
 39e:	d003      	beq.n	3a8 <_Min_Heap_Size+0x1a8>
 3a0:	f853 2d04 	ldr.w	r2, [r3, #-4]!
 3a4:	2a00      	cmp	r2, #0
 3a6:	d0f9      	beq.n	39c <_Min_Heap_Size+0x19c>
 3a8:	b007      	add	sp, #28
 3aa:	e8bd 8ff0 	ldmia.w	sp!, {r4, r5, r6, r7, r8, r9, sl, fp, pc}
 3ae:	f1ac 0c10 	sub.w	ip, ip, #16
 3b2:	f84e 0d10 	str.w	r0, [lr, #-16]!
 3b6:	45b4      	cmp	ip, r6
 3b8:	f47f ae43 	bne.w	42 <bn_div_word_top_rec+0x42>
 3bc:	e722      	b.n	204 <_Min_Heap_Size+0x4>
 3be:	1abf      	subs	r7, r7, r2
 3c0:	3301      	adds	r3, #1
 3c2:	e762      	b.n	28a <_Min_Heap_Size+0x8a>
 3c4:	3b9aca00 	.word	0x3b9aca00
 3c8:	2800      	cmp	r0, #0
 3ca:	db04      	blt.n	3d6 <_Min_Heap_Size+0x1d6>
 3cc:	2500      	movs	r5, #0
 3ce:	009b      	lsls	r3, r3, #2
 3d0:	4629      	mov	r1, r5
 3d2:	9302      	str	r3, [sp, #8]
 3d4:	e721      	b.n	21a <_Min_Heap_Size+0x1a>
 3d6:	f240 425b 	movw	r2, #1115	@ 0x45b
 3da:	2100      	movs	r1, #0
 3dc:	eb07 0089 	add.w	r0, r7, r9, lsl #2
 3e0:	eba2 0209 	sub.w	r2, r2, r9
 3e4:	0092      	lsls	r2, r2, #2
 3e6:	f000 f9f7 	bl	7d8 <__memset_veneer>
 3ea:	4648      	mov	r0, r9
 3ec:	e7dc      	b.n	3a8 <_Min_Heap_Size+0x1a8>
 3ee:	bf00      	nop

000003f0 <bn_div_word_top_rec.constprop.0>:
 3f0:	e92d 47f0 	stmdb	sp!, {r4, r5, r6, r7, r8, r9, sl, lr}
 3f4:	4caf      	ldr	r4, [pc, #700]	@ (6b4 <_Min_Stack_Size+0x2b4>)
 3f6:	2300      	movs	r3, #0
 3f8:	f5a4 5c8b 	sub.w	ip, r4, #4448	@ 0x1160
 3fc:	4aae      	ldr	r2, [pc, #696]	@ (6b8 <_Min_Stack_Size+0x2b8>)
 3fe:	f04f 0e00 	mov.w	lr, #0
 402:	68e5      	ldr	r5, [r4, #12]
 404:	f04f 0a00 	mov.w	sl, #0
 408:	e9d1 6700 	ldrd	r6, r7, [r1]
 40c:	fbe3 5e02 	umlal	r5, lr, r3, r2
 410:	4672      	mov	r2, lr
 412:	fba5 3906 	umull	r3, r9, r5, r6
 416:	fba7 e805 	umull	lr, r8, r7, r5
 41a:	fba6 6302 	umull	r6, r3, r6, r2
 41e:	eb1e 0e09 	adds.w	lr, lr, r9
 422:	eb4a 090a 	adc.w	r9, sl, sl
 426:	eb1e 0e06 	adds.w	lr, lr, r6
 42a:	f149 0e00 	adc.w	lr, r9, #0
 42e:	eb13 0308 	adds.w	r3, r3, r8
 432:	eb4a 060a 	adc.w	r6, sl, sl
 436:	fbe7 3602 	umlal	r3, r6, r7, r2
 43a:	eb1e 0303 	adds.w	r3, lr, r3
 43e:	f146 0600 	adc.w	r6, r6, #0
 442:	fba3 e700 	umull	lr, r7, r3, r0
 446:	ebb5 050e 	subs.w	r5, r5, lr
 44a:	fb00 7606 	mla	r6, r0, r6, r7
 44e:	eb62 0206 	sbc.w	r2, r2, r6
 452:	4285      	cmp	r5, r0
 454:	f172 0200 	sbcs.w	r2, r2, #0
 458:	d301      	bcc.n	45e <_Min_Stack_Size+0x5e>
 45a:	1a2d      	subs	r5, r5, r0
 45c:	3301      	adds	r3, #1
 45e:	4e96      	ldr	r6, [pc, #600]	@ (6b8 <_Min_Stack_Size+0x2b8>)
 460:	2200      	movs	r2, #0
 462:	68a7      	ldr	r7, [r4, #8]
 464:	f04f 0a00 	mov.w	sl, #0
 468:	60e3      	str	r3, [r4, #12]
 46a:	fbe5 7206 	umlal	r7, r2, r5, r6
 46e:	e9d1 3e00 	ldrd	r3, lr, [r1]
 472:	fbae 5807 	umull	r5, r8, lr, r7
 476:	fba7 6903 	umull	r6, r9, r7, r3
 47a:	fba3 6302 	umull	r6, r3, r3, r2
 47e:	eb15 0509 	adds.w	r5, r5, r9
 482:	eb4a 090a 	adc.w	r9, sl, sl
 486:	19ad      	adds	r5, r5, r6
 488:	f149 0600 	adc.w	r6, r9, #0
 48c:	eb13 0308 	adds.w	r3, r3, r8
 490:	eb4a 050a 	adc.w	r5, sl, sl
 494:	fbee 3502 	umlal	r3, r5, lr, r2
 498:	18f3      	adds	r3, r6, r3
 49a:	f145 0500 	adc.w	r5, r5, #0
 49e:	fba3 e600 	umull	lr, r6, r3, r0
 4a2:	fb00 6605 	mla	r6, r0, r5, r6
 4a6:	ebb7 050e 	subs.w	r5, r7, lr
 4aa:	eb62 0206 	sbc.w	r2, r2, r6
 4ae:	4285      	cmp	r5, r0
 4b0:	f172 0200 	sbcs.w	r2, r2, #0
 4b4:	d301      	bcc.n	4ba <_Min_Stack_Size+0xba>
 4b6:	1a2d      	subs	r5, r5, r0
 4b8:	3301      	adds	r3, #1
 4ba:	4e7f      	ldr	r6, [pc, #508]	@ (6b8 <_Min_Stack_Size+0x2b8>)
 4bc:	2200      	movs	r2, #0
 4be:	6867      	ldr	r7, [r4, #4]
 4c0:	f04f 0a00 	mov.w	sl, #0
 4c4:	60a3      	str	r3, [r4, #8]
 4c6:	fbe5 7206 	umlal	r7, r2, r5, r6
 4ca:	e9d1 3e00 	ldrd	r3, lr, [r1]
 4ce:	fbae 5807 	umull	r5, r8, lr, r7
 4d2:	fba7 6903 	umull	r6, r9, r7, r3
 4d6:	fba3 6302 	umull	r6, r3, r3, r2
 4da:	eb15 0509 	adds.w	r5, r5, r9
 4de:	eb4a 090a 	adc.w	r9, sl, sl
 4e2:	19ad      	adds	r5, r5, r6
 4e4:	f149 0600 	adc.w	r6, r9, #0
 4e8:	eb13 0308 	adds.w	r3, r3, r8
 4ec:	eb4a 050a 	adc.w	r5, sl, sl
 4f0:	fbee 3502 	umlal	r3, r5, lr, r2
 4f4:	18f3      	adds	r3, r6, r3
 4f6:	f145 0500 	adc.w	r5, r5, #0
 4fa:	fba0 e603 	umull	lr, r6, r0, r3
 4fe:	fb00 6605 	mla	r6, r0, r5, r6
 502:	ebb7 050e 	subs.w	r5, r7, lr
 506:	eb62 0206 	sbc.w	r2, r2, r6
 50a:	4285      	cmp	r5, r0
 50c:	f172 0200 	sbcs.w	r2, r2, #0
 510:	d301      	bcc.n	516 <_Min_Stack_Size+0x116>
 512:	1a2d      	subs	r5, r5, r0
 514:	3301      	adds	r3, #1
 516:	4a68      	ldr	r2, [pc, #416]	@ (6b8 <_Min_Stack_Size+0x2b8>)
 518:	f04f 0e00 	mov.w	lr, #0
 51c:	6063      	str	r3, [r4, #4]
 51e:	f04f 0a00 	mov.w	sl, #0
 522:	6823      	ldr	r3, [r4, #0]
 524:	e9d1 6700 	ldrd	r6, r7, [r1]
 528:	fbe5 3e02 	umlal	r3, lr, r5, r2
 52c:	fba3 9207 	umull	r9, r2, r3, r7
 530:	fba6 8503 	umull	r8, r5, r6, r3
 534:	fbae 6806 	umull	r6, r8, lr, r6
 538:	eb15 0509 	adds.w	r5, r5, r9
 53c:	eb4a 090a 	adc.w	r9, sl, sl
 540:	19ad      	adds	r5, r5, r6
 542:	f149 0600 	adc.w	r6, r9, #0
 546:	eb12 0208 	adds.w	r2, r2, r8
 54a:	eb4a 050a 	adc.w	r5, sl, sl
 54e:	fbee 2507 	umlal	r2, r5, lr, r7
 552:	18b6      	adds	r6, r6, r2
 554:	f145 0200 	adc.w	r2, r5, #0
 558:	fba0 7506 	umull	r7, r5, r0, r6
 55c:	1bdb      	subs	r3, r3, r7
 55e:	fb00 5202 	mla	r2, r0, r2, r5
 562:	eb6e 0e02 	sbc.w	lr, lr, r2
 566:	4283      	cmp	r3, r0
 568:	f17e 0e00 	sbcs.w	lr, lr, #0
 56c:	f0c0 809b 	bcc.w	6a6 <_Min_Stack_Size+0x2a6>
 570:	1a1b      	subs	r3, r3, r0
 572:	3601      	adds	r6, #1
 574:	f844 6910 	str.w	r6, [r4], #-16
 578:	4564      	cmp	r4, ip
 57a:	f47f af3f 	bne.w	3fc <bn_div_word_top_rec.constprop.0+0xc>
 57e:	4c4f      	ldr	r4, [pc, #316]	@ (6bc <_Min_Stack_Size+0x2bc>)
 580:	2600      	movs	r6, #0
 582:	4f4d      	ldr	r7, [pc, #308]	@ (6b8 <_Min_Stack_Size+0x2b8>)
 584:	f04f 0900 	mov.w	r9, #0
 588:	68a2      	ldr	r2, [r4, #8]
 58a:	e9d1 5c00 	ldrd	r5, ip, [r1]
 58e:	fbe3 2607 	umlal	r2, r6, r3, r7
 592:	fba6 e805 	umull	lr, r8, r6, r5
 596:	fba5 3702 	umull	r3, r7, r5, r2
 59a:	fba2 530c 	umull	r5, r3, r2, ip
 59e:	197f      	adds	r7, r7, r5
 5a0:	eb49 0509 	adc.w	r5, r9, r9
 5a4:	eb17 070e 	adds.w	r7, r7, lr
 5a8:	f145 0500 	adc.w	r5, r5, #0
 5ac:	eb13 0708 	adds.w	r7, r3, r8
 5b0:	eb49 0309 	adc.w	r3, r9, r9
 5b4:	fbe6 730c 	umlal	r7, r3, r6, ip
 5b8:	19ed      	adds	r5, r5, r7
 5ba:	f143 0300 	adc.w	r3, r3, #0
 5be:	fba5 c700 	umull	ip, r7, r5, r0
 5c2:	ebb2 020c 	subs.w	r2, r2, ip
 5c6:	fb00 7303 	mla	r3, r0, r3, r7
 5ca:	eb66 0603 	sbc.w	r6, r6, r3
 5ce:	4282      	cmp	r2, r0
 5d0:	f176 0600 	sbcs.w	r6, r6, #0
 5d4:	d301      	bcc.n	5da <_Min_Stack_Size+0x1da>
 5d6:	1a12      	subs	r2, r2, r0
 5d8:	3501      	adds	r5, #1
 5da:	4f37      	ldr	r7, [pc, #220]	@ (6b8 <_Min_Stack_Size+0x2b8>)
 5dc:	2600      	movs	r6, #0
 5de:	6863      	ldr	r3, [r4, #4]
 5e0:	f04f 0900 	mov.w	r9, #0
 5e4:	60a5      	str	r5, [r4, #8]
 5e6:	fbe2 3607 	umlal	r3, r6, r2, r7
 5ea:	e9d1 5c00 	ldrd	r5, ip, [r1]
 5ee:	fba6 e805 	umull	lr, r8, r6, r5
 5f2:	fba5 2703 	umull	r2, r7, r5, r3
 5f6:	fba3 520c 	umull	r5, r2, r3, ip
 5fa:	197f      	adds	r7, r7, r5
 5fc:	eb49 0509 	adc.w	r5, r9, r9
 600:	eb17 070e 	adds.w	r7, r7, lr
 604:	f145 0500 	adc.w	r5, r5, #0
 608:	eb12 0708 	adds.w	r7, r2, r8
 60c:	eb49 0209 	adc.w	r2, r9, r9
 610:	fbe6 720c 	umlal	r7, r2, r6, ip
 614:	19ed      	adds	r5, r5, r7
 616:	f142 0200 	adc.w	r2, r2, #0
 61a:	fba5 c700 	umull	ip, r7, r5, r0
 61e:	ebb3 030c 	subs.w	r3, r3, ip
 622:	fb00 7202 	mla	r2, r0, r2, r7
 626:	eb66 0602 	sbc.w	r6, r6, r2
 62a:	4283      	cmp	r3, r0
 62c:	f176 0600 	sbcs.w	r6, r6, #0
 630:	d301      	bcc.n	636 <_Min_Stack_Size+0x236>
 632:	1a1b      	subs	r3, r3, r0
 634:	3501      	adds	r5, #1
 636:	6065      	str	r5, [r4, #4]
 638:	2600      	movs	r6, #0
 63a:	6825      	ldr	r5, [r4, #0]
 63c:	f04f 0800 	mov.w	r8, #0
 640:	e9d1 2700 	ldrd	r2, r7, [r1]
 644:	491c      	ldr	r1, [pc, #112]	@ (6b8 <_Min_Stack_Size+0x2b8>)
 646:	fbe3 5601 	umlal	r5, r6, r3, r1
 64a:	fba5 3c02 	umull	r3, ip, r5, r2
 64e:	4629      	mov	r1, r5
 650:	fba7 5e05 	umull	r5, lr, r7, r5
 654:	fba2 2306 	umull	r2, r3, r2, r6
 658:	eb15 050c 	adds.w	r5, r5, ip
 65c:	eb48 0c08 	adc.w	ip, r8, r8
 660:	18ad      	adds	r5, r5, r2
 662:	f14c 0200 	adc.w	r2, ip, #0
 666:	eb13 050e 	adds.w	r5, r3, lr
 66a:	eb48 0308 	adc.w	r3, r8, r8
 66e:	fbe7 5306 	umlal	r5, r3, r7, r6
 672:	1952      	adds	r2, r2, r5
 674:	f143 0300 	adc.w	r3, r3, #0
 678:	fba2 7500 	umull	r7, r5, r2, r0
 67c:	1bc9      	subs	r1, r1, r7
 67e:	fb00 5303 	mla	r3, r0, r3, r5
 682:	eb66 0603 	sbc.w	r6, r6, r3
 686:	4281      	cmp	r1, r0
 688:	f176 0600 	sbcs.w	r6, r6, #0
 68c:	d300      	bcc.n	690 <_Min_Stack_Size+0x290>
 68e:	3201      	adds	r2, #1
 690:	4b0b      	ldr	r3, [pc, #44]	@ (6c0 <_Min_Stack_Size+0x2c0>)
 692:	f240 405b 	movw	r0, #1115	@ 0x45b
 696:	6022      	str	r2, [r4, #0]
 698:	f853 2d04 	ldr.w	r2, [r3, #-4]!
 69c:	b90a      	cbnz	r2, 6a2 <_Min_Stack_Size+0x2a2>
 69e:	3801      	subs	r0, #1
 6a0:	d1fa      	bne.n	698 <_Min_Stack_Size+0x298>
 6a2:	e8bd 87f0 	ldmia.w	sp!, {r4, r5, r6, r7, r8, r9, sl, pc}
 6a6:	f844 6910 	str.w	r6, [r4], #-16
 6aa:	4564      	cmp	r4, ip
 6ac:	f47f aea6 	bne.w	3fc <bn_div_word_top_rec.constprop.0+0xc>
 6b0:	e765      	b.n	57e <_Min_Stack_Size+0x17e>
 6b2:	bf00      	nop
 6b4:	2400570c 	.word	0x2400570c
 6b8:	3b9aca00 	.word	0x3b9aca00
 6bc:	240045b0 	.word	0x240045b0
 6c0:	2400571c 	.word	0x2400571c

000006c4 <bn_add_top.constprop.0>:
 6c4:	4293      	cmp	r3, r2
 6c6:	e92d 4ff0 	stmdb	sp!, {r4, r5, r6, r7, r8, r9, sl, fp, lr}
 6ca:	461e      	mov	r6, r3
 6cc:	bfb8      	it	lt
 6ce:	4616      	movlt	r6, r2
 6d0:	b083      	sub	sp, #12
 6d2:	2e00      	cmp	r6, #0
 6d4:	dd43      	ble.n	75e <bn_add_top.constprop.0+0x9a>
 6d6:	2a00      	cmp	r2, #0
 6d8:	dd4e      	ble.n	778 <bn_add_top.constprop.0+0xb4>
 6da:	1f0f      	subs	r7, r1, #4
 6dc:	2100      	movs	r1, #0
 6de:	4605      	mov	r5, r0
 6e0:	f8df a0e8 	ldr.w	sl, [pc, #232]	@ 7cc <bn_add_top.constprop.0+0x108>
 6e4:	468e      	mov	lr, r1
 6e6:	4688      	mov	r8, r1
 6e8:	f8df 90e4 	ldr.w	r9, [pc, #228]	@ 7d0 <bn_add_top.constprop.0+0x10c>
 6ec:	9001      	str	r0, [sp, #4]
 6ee:	e007      	b.n	700 <bn_add_top.constprop.0+0x3c>
 6f0:	f10e 0e01 	add.w	lr, lr, #1
 6f4:	f8c5 b000 	str.w	fp, [r5]
 6f8:	460c      	mov	r4, r1
 6fa:	3504      	adds	r5, #4
 6fc:	4572      	cmp	r2, lr
 6fe:	dd1e      	ble.n	73e <bn_add_top.constprop.0+0x7a>
 700:	4573      	cmp	r3, lr
 702:	f857 4f04 	ldr.w	r4, [r7, #4]!
 706:	f04f 0c00 	mov.w	ip, #0
 70a:	dd04      	ble.n	716 <bn_add_top.constprop.0+0x52>
 70c:	f85a 002e 	ldr.w	r0, [sl, lr, lsl #2]
 710:	1904      	adds	r4, r0, r4
 712:	eb48 0c08 	adc.w	ip, r8, r8
 716:	1864      	adds	r4, r4, r1
 718:	f8df b0ac 	ldr.w	fp, [pc, #172]	@ 7c8 <bn_add_top.constprop.0+0x104>
 71c:	f04f 0101 	mov.w	r1, #1
 720:	f14c 0c00 	adc.w	ip, ip, #0
 724:	45a1      	cmp	r9, r4
 726:	44a3      	add	fp, r4
 728:	eb78 0c0c 	sbcs.w	ip, r8, ip
 72c:	d3e0      	bcc.n	6f0 <bn_add_top.constprop.0+0x2c>
 72e:	f10e 0e01 	add.w	lr, lr, #1
 732:	2100      	movs	r1, #0
 734:	602c      	str	r4, [r5, #0]
 736:	3504      	adds	r5, #4
 738:	4572      	cmp	r2, lr
 73a:	460c      	mov	r4, r1
 73c:	dce0      	bgt.n	700 <bn_add_top.constprop.0+0x3c>
 73e:	4293      	cmp	r3, r2
 740:	9801      	ldr	r0, [sp, #4]
 742:	dc1b      	bgt.n	77c <bn_add_top.constprop.0+0xb8>
 744:	f240 435a 	movw	r3, #1114	@ 0x45a
 748:	429e      	cmp	r6, r3
 74a:	dc04      	bgt.n	756 <bn_add_top.constprop.0+0x92>
 74c:	b11c      	cbz	r4, 756 <bn_add_top.constprop.0+0x92>
 74e:	2301      	movs	r3, #1
 750:	f840 3026 	str.w	r3, [r0, r6, lsl #2]
 754:	441e      	add	r6, r3
 756:	f240 435a 	movw	r3, #1114	@ 0x45a
 75a:	429e      	cmp	r6, r3
 75c:	dc08      	bgt.n	770 <bn_add_top.constprop.0+0xac>
 75e:	f240 425b 	movw	r2, #1115	@ 0x45b
 762:	2100      	movs	r1, #0
 764:	eb00 0086 	add.w	r0, r0, r6, lsl #2
 768:	1b92      	subs	r2, r2, r6
 76a:	0092      	lsls	r2, r2, #2
 76c:	f000 f834 	bl	7d8 <__memset_veneer>
 770:	4630      	mov	r0, r6
 772:	b003      	add	sp, #12
 774:	e8bd 8ff0 	ldmia.w	sp!, {r4, r5, r6, r7, r8, r9, sl, fp, pc}
 778:	2100      	movs	r1, #0
 77a:	460a      	mov	r2, r1
 77c:	4293      	cmp	r3, r2
 77e:	eb00 0c82 	add.w	ip, r0, r2, lsl #2
 782:	f04f 0e00 	mov.w	lr, #0
 786:	f8df 9044 	ldr.w	r9, [pc, #68]	@ 7cc <bn_add_top.constprop.0+0x108>
 78a:	f8df 8044 	ldr.w	r8, [pc, #68]	@ 7d0 <bn_add_top.constprop.0+0x10c>
 78e:	4d0e      	ldr	r5, [pc, #56]	@ (7c8 <bn_add_top.constprop.0+0x104>)
 790:	dc0a      	bgt.n	7a8 <bn_add_top.constprop.0+0xe4>
 792:	f8cc 1000 	str.w	r1, [ip]
 796:	2100      	movs	r1, #0
 798:	460c      	mov	r4, r1
 79a:	3201      	adds	r2, #1
 79c:	f10c 0c04 	add.w	ip, ip, #4
 7a0:	4296      	cmp	r6, r2
 7a2:	ddcf      	ble.n	744 <bn_add_top.constprop.0+0x80>
 7a4:	4293      	cmp	r3, r2
 7a6:	ddf4      	ble.n	792 <bn_add_top.constprop.0+0xce>
 7a8:	f859 7022 	ldr.w	r7, [r9, r2, lsl #2]
 7ac:	187c      	adds	r4, r7, r1
 7ae:	eb4e 070e 	adc.w	r7, lr, lr
 7b2:	45a0      	cmp	r8, r4
 7b4:	4621      	mov	r1, r4
 7b6:	442c      	add	r4, r5
 7b8:	eb7e 0707 	sbcs.w	r7, lr, r7
 7bc:	d2e9      	bcs.n	792 <bn_add_top.constprop.0+0xce>
 7be:	2101      	movs	r1, #1
 7c0:	f8cc 4000 	str.w	r4, [ip]
 7c4:	460c      	mov	r4, r1
 7c6:	e7e8      	b.n	79a <bn_add_top.constprop.0+0xd6>
 7c8:	c4653600 	.word	0xc4653600
 7cc:	24000000 	.word	0x24000000
 7d0:	3b9ac9ff 	.word	0x3b9ac9ff
 7d4:	00000000 	.word	0x00000000

000007d8 <__memset_veneer>:
 7d8:	f85f f000 	ldr.w	pc, [pc]	@ 7dc <__memset_veneer+0x4>
 7dc:	08004d21 	.word	0x08004d21

Disassembly of section .text:

08000a80 <__do_global_dtors_aux>:
 8000a80:	b510      	push	{r4, lr}
 8000a82:	4c05      	ldr	r4, [pc, #20]	@ (8000a98 <__do_global_dtors_aux+0x18>)
 8000a84:	7823      	ldrb	r3, [r4, #0]
 8000a86:	b933      	cbnz	r3, 8000a96 <__do_global_dtors_aux+0x16>
 8000a88:	4b04      	ldr	r3, [pc, #16]	@ (8000a9c <__do_global_dtors_aux+0x1c>)
 8000a8a:	b113      	cbz	r3, 8000a92 <__do_global_dtors_aux+0x12>
 8000a8c:	4804      	ldr	r0, [pc, #16]	@ (8000aa0 <__do_global_dtors_aux+0x20>)
 8000a8e:	f3af 8000 	nop.w
 8000a92:	2301      	movs	r3, #1
 8000a94:	7023      	strb	r3, [r4, #0]
 8000a96:	bd10      	pop	{r4, pc}
 8000a98:	200001d8 	.word	0x200001d8
 8000a9c:	00000000 	.word	0x00000000
 8000aa0:	08008218 	.word	0x08008218

08000aa4 <frame_dummy>:
 8000aa4:	b508      	push	{r3, lr}
 8000aa6:	4b03      	ldr	r3, [pc, #12]	@ (8000ab4 <frame_dummy+0x10>)
 8000aa8:	b11b      	cbz	r3, 8000ab2 <frame_dummy+0xe>
 8000aaa:	4903      	ldr	r1, [pc, #12]	@ (8000ab8 <frame_dummy+0x14>)
 8000aac:	4803      	ldr	r0, [pc, #12]	@ (8000abc <frame_dummy+0x18>)
 8000aae:	f3af 8000 	nop.w
 8000ab2:	bd08      	pop	{r3, pc}
 8000ab4:	00000000 	.word	0x00000000
 8000ab8:	200001dc 	.word	0x200001dc
 8000abc:	08008218 	.word	0x08008218

08000ac0 <memchr>:
 8000ac0:	f001 01ff 	and.w	r1, r1, #255	@ 0xff
 8000ac4:	2a10      	cmp	r2, #16
 8000ac6:	db2b      	blt.n	8000b20 <memchr+0x60>
 8000ac8:	f010 0f07 	tst.w	r0, #7
 8000acc:	d008      	beq.n	8000ae0 <memchr+0x20>
 8000ace:	f810 3b01 	ldrb.w	r3, [r0], #1
 8000ad2:	3a01      	subs	r2, #1
 8000ad4:	428b      	cmp	r3, r1
 8000ad6:	d02d      	beq.n	8000b34 <memchr+0x74>
 8000ad8:	f010 0f07 	tst.w	r0, #7
 8000adc:	b342      	cbz	r2, 8000b30 <memchr+0x70>
 8000ade:	d1f6      	bne.n	8000ace <memchr+0xe>
 8000ae0:	b4f0      	push	{r4, r5, r6, r7}
 8000ae2:	ea41 2101 	orr.w	r1, r1, r1, lsl #8
 8000ae6:	ea41 4101 	orr.w	r1, r1, r1, lsl #16
 8000aea:	f022 0407 	bic.w	r4, r2, #7
 8000aee:	f07f 0700 	mvns.w	r7, #0
 8000af2:	2300      	movs	r3, #0
 8000af4:	e8f0 5602 	ldrd	r5, r6, [r0], #8
 8000af8:	3c08      	subs	r4, #8
 8000afa:	ea85 0501 	eor.w	r5, r5, r1
 8000afe:	ea86 0601 	eor.w	r6, r6, r1
 8000b02:	fa85 f547 	uadd8	r5, r5, r7
 8000b06:	faa3 f587 	sel	r5, r3, r7
 8000b0a:	fa86 f647 	uadd8	r6, r6, r7
 8000b0e:	faa5 f687 	sel	r6, r5, r7
 8000b12:	b98e      	cbnz	r6, 8000b38 <memchr+0x78>
 8000b14:	d1ee      	bne.n	8000af4 <memchr+0x34>
 8000b16:	bcf0      	pop	{r4, r5, r6, r7}
 8000b18:	f001 01ff 	and.w	r1, r1, #255	@ 0xff
 8000b1c:	f002 0207 	and.w	r2, r2, #7
 8000b20:	b132      	cbz	r2, 8000b30 <memchr+0x70>
 8000b22:	f810 3b01 	ldrb.w	r3, [r0], #1
 8000b26:	3a01      	subs	r2, #1
 8000b28:	ea83 0301 	eor.w	r3, r3, r1
 8000b2c:	b113      	cbz	r3, 8000b34 <memchr+0x74>
 8000b2e:	d1f8      	bne.n	8000b22 <memchr+0x62>
 8000b30:	2000      	movs	r0, #0
 8000b32:	4770      	bx	lr
 8000b34:	3801      	subs	r0, #1
 8000b36:	4770      	bx	lr
 8000b38:	2d00      	cmp	r5, #0
 8000b3a:	bf06      	itte	eq
 8000b3c:	4635      	moveq	r5, r6
 8000b3e:	3803      	subeq	r0, #3
 8000b40:	3807      	subne	r0, #7
 8000b42:	f015 0f01 	tst.w	r5, #1
 8000b46:	d107      	bne.n	8000b58 <memchr+0x98>
 8000b48:	3001      	adds	r0, #1
 8000b4a:	f415 7f80 	tst.w	r5, #256	@ 0x100
 8000b4e:	bf02      	ittt	eq
 8000b50:	3001      	addeq	r0, #1
 8000b52:	f415 3fc0 	tsteq.w	r5, #98304	@ 0x18000
 8000b56:	3001      	addeq	r0, #1
 8000b58:	bcf0      	pop	{r4, r5, r6, r7}
 8000b5a:	3801      	subs	r0, #1
 8000b5c:	4770      	bx	lr
 8000b5e:	bf00      	nop

08000b60 <strlen>:
 8000b60:	4603      	mov	r3, r0
 8000b62:	f813 2b01 	ldrb.w	r2, [r3], #1
 8000b66:	2a00      	cmp	r2, #0
 8000b68:	d1fb      	bne.n	8000b62 <strlen+0x2>
 8000b6a:	1a18      	subs	r0, r3, r0
 8000b6c:	3801      	subs	r0, #1
 8000b6e:	4770      	bx	lr

08000b70 <__aeabi_drsub>:
 8000b70:	f081 4100 	eor.w	r1, r1, #2147483648	@ 0x80000000
 8000b74:	e002      	b.n	8000b7c <__adddf3>
 8000b76:	bf00      	nop

08000b78 <__aeabi_dsub>:
 8000b78:	f083 4300 	eor.w	r3, r3, #2147483648	@ 0x80000000

08000b7c <__adddf3>:
 8000b7c:	b530      	push	{r4, r5, lr}
 8000b7e:	ea4f 0441 	mov.w	r4, r1, lsl #1
 8000b82:	ea4f 0543 	mov.w	r5, r3, lsl #1
 8000b86:	ea94 0f05 	teq	r4, r5
 8000b8a:	bf08      	it	eq
 8000b8c:	ea90 0f02 	teqeq	r0, r2
 8000b90:	bf1f      	itttt	ne
 8000b92:	ea54 0c00 	orrsne.w	ip, r4, r0
 8000b96:	ea55 0c02 	orrsne.w	ip, r5, r2
 8000b9a:	ea7f 5c64 	mvnsne.w	ip, r4, asr #21
 8000b9e:	ea7f 5c65 	mvnsne.w	ip, r5, asr #21
 8000ba2:	f000 80e2 	beq.w	8000d6a <__adddf3+0x1ee>
 8000ba6:	ea4f 5454 	mov.w	r4, r4, lsr #21
 8000baa:	ebd4 5555 	rsbs	r5, r4, r5, lsr #21
 8000bae:	bfb8      	it	lt
 8000bb0:	426d      	neglt	r5, r5
 8000bb2:	dd0c      	ble.n	8000bce <__adddf3+0x52>
 8000bb4:	442c      	add	r4, r5
 8000bb6:	ea80 0202 	eor.w	r2, r0, r2
 8000bba:	ea81 0303 	eor.w	r3, r1, r3
 8000bbe:	ea82 0000 	eor.w	r0, r2, r0
 8000bc2:	ea83 0101 	eor.w	r1, r3, r1
 8000bc6:	ea80 0202 	eor.w	r2, r0, r2
 8000bca:	ea81 0303 	eor.w	r3, r1, r3
 8000bce:	2d36      	cmp	r5, #54	@ 0x36
 8000bd0:	bf88      	it	hi
 8000bd2:	bd30      	pophi	{r4, r5, pc}
 8000bd4:	f011 4f00 	tst.w	r1, #2147483648	@ 0x80000000
 8000bd8:	ea4f 3101 	mov.w	r1, r1, lsl #12
 8000bdc:	f44f 1c80 	mov.w	ip, #1048576	@ 0x100000
 8000be0:	ea4c 3111 	orr.w	r1, ip, r1, lsr #12
 8000be4:	d002      	beq.n	8000bec <__adddf3+0x70>
 8000be6:	4240      	negs	r0, r0
 8000be8:	eb61 0141 	sbc.w	r1, r1, r1, lsl #1
 8000bec:	f013 4f00 	tst.w	r3, #2147483648	@ 0x80000000
 8000bf0:	ea4f 3303 	mov.w	r3, r3, lsl #12
 8000bf4:	ea4c 3313 	orr.w	r3, ip, r3, lsr #12
 8000bf8:	d002      	beq.n	8000c00 <__adddf3+0x84>
 8000bfa:	4252      	negs	r2, r2
 8000bfc:	eb63 0343 	sbc.w	r3, r3, r3, lsl #1
 8000c00:	ea94 0f05 	teq	r4, r5
 8000c04:	f000 80a7 	beq.w	8000d56 <__adddf3+0x1da>
 8000c08:	f1a4 0401 	sub.w	r4, r4, #1
 8000c0c:	f1d5 0e20 	rsbs	lr, r5, #32
 8000c10:	db0d      	blt.n	8000c2e <__adddf3+0xb2>
 8000c12:	fa02 fc0e 	lsl.w	ip, r2, lr
 8000c16:	fa22 f205 	lsr.w	r2, r2, r5
 8000c1a:	1880      	adds	r0, r0, r2
 8000c1c:	f141 0100 	adc.w	r1, r1, #0
 8000c20:	fa03 f20e 	lsl.w	r2, r3, lr
 8000c24:	1880      	adds	r0, r0, r2
 8000c26:	fa43 f305 	asr.w	r3, r3, r5
 8000c2a:	4159      	adcs	r1, r3
 8000c2c:	e00e      	b.n	8000c4c <__adddf3+0xd0>
 8000c2e:	f1a5 0520 	sub.w	r5, r5, #32
 8000c32:	f10e 0e20 	add.w	lr, lr, #32
 8000c36:	2a01      	cmp	r2, #1
 8000c38:	fa03 fc0e 	lsl.w	ip, r3, lr
 8000c3c:	bf28      	it	cs
 8000c3e:	f04c 0c02 	orrcs.w	ip, ip, #2
 8000c42:	fa43 f305 	asr.w	r3, r3, r5
 8000c46:	18c0      	adds	r0, r0, r3
 8000c48:	eb51 71e3 	adcs.w	r1, r1, r3, asr #31
 8000c4c:	f001 4500 	and.w	r5, r1, #2147483648	@ 0x80000000
 8000c50:	d507      	bpl.n	8000c62 <__adddf3+0xe6>
 8000c52:	f04f 0e00 	mov.w	lr, #0
 8000c56:	f1dc 0c00 	rsbs	ip, ip, #0
 8000c5a:	eb7e 0000 	sbcs.w	r0, lr, r0
 8000c5e:	eb6e 0101 	sbc.w	r1, lr, r1
 8000c62:	f5b1 1f80 	cmp.w	r1, #1048576	@ 0x100000
 8000c66:	d31b      	bcc.n	8000ca0 <__adddf3+0x124>
 8000c68:	f5b1 1f00 	cmp.w	r1, #2097152	@ 0x200000
 8000c6c:	d30c      	bcc.n	8000c88 <__adddf3+0x10c>
 8000c6e:	0849      	lsrs	r1, r1, #1
 8000c70:	ea5f 0030 	movs.w	r0, r0, rrx
 8000c74:	ea4f 0c3c 	mov.w	ip, ip, rrx
 8000c78:	f104 0401 	add.w	r4, r4, #1
 8000c7c:	ea4f 5244 	mov.w	r2, r4, lsl #21
 8000c80:	f512 0f80 	cmn.w	r2, #4194304	@ 0x400000
 8000c84:	f080 809a 	bcs.w	8000dbc <__adddf3+0x240>
 8000c88:	f1bc 4f00 	cmp.w	ip, #2147483648	@ 0x80000000
 8000c8c:	bf08      	it	eq
 8000c8e:	ea5f 0c50 	movseq.w	ip, r0, lsr #1
 8000c92:	f150 0000 	adcs.w	r0, r0, #0
 8000c96:	eb41 5104 	adc.w	r1, r1, r4, lsl #20
 8000c9a:	ea41 0105 	orr.w	r1, r1, r5
 8000c9e:	bd30      	pop	{r4, r5, pc}
 8000ca0:	ea5f 0c4c 	movs.w	ip, ip, lsl #1
 8000ca4:	4140      	adcs	r0, r0
 8000ca6:	eb41 0101 	adc.w	r1, r1, r1
 8000caa:	3c01      	subs	r4, #1
 8000cac:	bf28      	it	cs
 8000cae:	f5b1 1f80 	cmpcs.w	r1, #1048576	@ 0x100000
 8000cb2:	d2e9      	bcs.n	8000c88 <__adddf3+0x10c>
 8000cb4:	f091 0f00 	teq	r1, #0
 8000cb8:	bf04      	itt	eq
 8000cba:	4601      	moveq	r1, r0
 8000cbc:	2000      	moveq	r0, #0
 8000cbe:	fab1 f381 	clz	r3, r1
 8000cc2:	bf08      	it	eq
 8000cc4:	3320      	addeq	r3, #32
 8000cc6:	f1a3 030b 	sub.w	r3, r3, #11
 8000cca:	f1b3 0220 	subs.w	r2, r3, #32
 8000cce:	da0c      	bge.n	8000cea <__adddf3+0x16e>
 8000cd0:	320c      	adds	r2, #12
 8000cd2:	dd08      	ble.n	8000ce6 <__adddf3+0x16a>
 8000cd4:	f102 0c14 	add.w	ip, r2, #20
 8000cd8:	f1c2 020c 	rsb	r2, r2, #12
 8000cdc:	fa01 f00c 	lsl.w	r0, r1, ip
 8000ce0:	fa21 f102 	lsr.w	r1, r1, r2
 8000ce4:	e00c      	b.n	8000d00 <__adddf3+0x184>
 8000ce6:	f102 0214 	add.w	r2, r2, #20
 8000cea:	bfd8      	it	le
 8000cec:	f1c2 0c20 	rsble	ip, r2, #32
 8000cf0:	fa01 f102 	lsl.w	r1, r1, r2
 8000cf4:	fa20 fc0c 	lsr.w	ip, r0, ip
 8000cf8:	bfdc      	itt	le
 8000cfa:	ea41 010c 	orrle.w	r1, r1, ip
 8000cfe:	4090      	lslle	r0, r2
 8000d00:	1ae4      	subs	r4, r4, r3
 8000d02:	bfa2      	ittt	ge
 8000d04:	eb01 5104 	addge.w	r1, r1, r4, lsl #20
 8000d08:	4329      	orrge	r1, r5
 8000d0a:	bd30      	popge	{r4, r5, pc}
 8000d0c:	ea6f 0404 	mvn.w	r4, r4
 8000d10:	3c1f      	subs	r4, #31
 8000d12:	da1c      	bge.n	8000d4e <__adddf3+0x1d2>
 8000d14:	340c      	adds	r4, #12
 8000d16:	dc0e      	bgt.n	8000d36 <__adddf3+0x1ba>
 8000d18:	f104 0414 	add.w	r4, r4, #20
 8000d1c:	f1c4 0220 	rsb	r2, r4, #32
 8000d20:	fa20 f004 	lsr.w	r0, r0, r4
 8000d24:	fa01 f302 	lsl.w	r3, r1, r2
 8000d28:	ea40 0003 	orr.w	r0, r0, r3
 8000d2c:	fa21 f304 	lsr.w	r3, r1, r4
 8000d30:	ea45 0103 	orr.w	r1, r5, r3
 8000d34:	bd30      	pop	{r4, r5, pc}
 8000d36:	f1c4 040c 	rsb	r4, r4, #12
 8000d3a:	f1c4 0220 	rsb	r2, r4, #32
 8000d3e:	fa20 f002 	lsr.w	r0, r0, r2
 8000d42:	fa01 f304 	lsl.w	r3, r1, r4
 8000d46:	ea40 0003 	orr.w	r0, r0, r3
 8000d4a:	4629      	mov	r1, r5
 8000d4c:	bd30      	pop	{r4, r5, pc}
 8000d4e:	fa21 f004 	lsr.w	r0, r1, r4
 8000d52:	4629      	mov	r1, r5
 8000d54:	bd30      	pop	{r4, r5, pc}
 8000d56:	f094 0f00 	teq	r4, #0
 8000d5a:	f483 1380 	eor.w	r3, r3, #1048576	@ 0x100000
 8000d5e:	bf06      	itte	eq
 8000d60:	f481 1180 	eoreq.w	r1, r1, #1048576	@ 0x100000
 8000d64:	3401      	addeq	r4, #1
 8000d66:	3d01      	subne	r5, #1
 8000d68:	e74e      	b.n	8000c08 <__adddf3+0x8c>
 8000d6a:	ea7f 5c64 	mvns.w	ip, r4, asr #21
 8000d6e:	bf18      	it	ne
 8000d70:	ea7f 5c65 	mvnsne.w	ip, r5, asr #21
 8000d74:	d029      	beq.n	8000dca <__adddf3+0x24e>
 8000d76:	ea94 0f05 	teq	r4, r5
 8000d7a:	bf08      	it	eq
 8000d7c:	ea90 0f02 	teqeq	r0, r2
 8000d80:	d005      	beq.n	8000d8e <__adddf3+0x212>
 8000d82:	ea54 0c00 	orrs.w	ip, r4, r0
 8000d86:	bf04      	itt	eq
 8000d88:	4619      	moveq	r1, r3
 8000d8a:	4610      	moveq	r0, r2
 8000d8c:	bd30      	pop	{r4, r5, pc}
 8000d8e:	ea91 0f03 	teq	r1, r3
 8000d92:	bf1e      	ittt	ne
 8000d94:	2100      	movne	r1, #0
 8000d96:	2000      	movne	r0, #0
 8000d98:	bd30      	popne	{r4, r5, pc}
 8000d9a:	ea5f 5c54 	movs.w	ip, r4, lsr #21
 8000d9e:	d105      	bne.n	8000dac <__adddf3+0x230>
 8000da0:	0040      	lsls	r0, r0, #1
 8000da2:	4149      	adcs	r1, r1
 8000da4:	bf28      	it	cs
 8000da6:	f041 4100 	orrcs.w	r1, r1, #2147483648	@ 0x80000000
 8000daa:	bd30      	pop	{r4, r5, pc}
 8000dac:	f514 0480 	adds.w	r4, r4, #4194304	@ 0x400000
 8000db0:	bf3c      	itt	cc
 8000db2:	f501 1180 	addcc.w	r1, r1, #1048576	@ 0x100000
 8000db6:	bd30      	popcc	{r4, r5, pc}
 8000db8:	f001 4500 	and.w	r5, r1, #2147483648	@ 0x80000000
 8000dbc:	f045 41fe 	orr.w	r1, r5, #2130706432	@ 0x7f000000
 8000dc0:	f441 0170 	orr.w	r1, r1, #15728640	@ 0xf00000
 8000dc4:	f04f 0000 	mov.w	r0, #0
 8000dc8:	bd30      	pop	{r4, r5, pc}
 8000dca:	ea7f 5c64 	mvns.w	ip, r4, asr #21
 8000dce:	bf1a      	itte	ne
 8000dd0:	4619      	movne	r1, r3
 8000dd2:	4610      	movne	r0, r2
 8000dd4:	ea7f 5c65 	mvnseq.w	ip, r5, asr #21
 8000dd8:	bf1c      	itt	ne
 8000dda:	460b      	movne	r3, r1
 8000ddc:	4602      	movne	r2, r0
 8000dde:	ea50 3401 	orrs.w	r4, r0, r1, lsl #12
 8000de2:	bf06      	itte	eq
 8000de4:	ea52 3503 	orrseq.w	r5, r2, r3, lsl #12
 8000de8:	ea91 0f03 	teqeq	r1, r3
 8000dec:	f441 2100 	orrne.w	r1, r1, #524288	@ 0x80000
 8000df0:	bd30      	pop	{r4, r5, pc}
 8000df2:	bf00      	nop

08000df4 <__aeabi_ui2d>:
 8000df4:	f090 0f00 	teq	r0, #0
 8000df8:	bf04      	itt	eq
 8000dfa:	2100      	moveq	r1, #0
 8000dfc:	4770      	bxeq	lr
 8000dfe:	b530      	push	{r4, r5, lr}
 8000e00:	f44f 6480 	mov.w	r4, #1024	@ 0x400
 8000e04:	f104 0432 	add.w	r4, r4, #50	@ 0x32
 8000e08:	f04f 0500 	mov.w	r5, #0
 8000e0c:	f04f 0100 	mov.w	r1, #0
 8000e10:	e750      	b.n	8000cb4 <__adddf3+0x138>
 8000e12:	bf00      	nop

08000e14 <__aeabi_i2d>:
 8000e14:	f090 0f00 	teq	r0, #0
 8000e18:	bf04      	itt	eq
 8000e1a:	2100      	moveq	r1, #0
 8000e1c:	4770      	bxeq	lr
 8000e1e:	b530      	push	{r4, r5, lr}
 8000e20:	f44f 6480 	mov.w	r4, #1024	@ 0x400
 8000e24:	f104 0432 	add.w	r4, r4, #50	@ 0x32
 8000e28:	f010 4500 	ands.w	r5, r0, #2147483648	@ 0x80000000
 8000e2c:	bf48      	it	mi
 8000e2e:	4240      	negmi	r0, r0
 8000e30:	f04f 0100 	mov.w	r1, #0
 8000e34:	e73e      	b.n	8000cb4 <__adddf3+0x138>
 8000e36:	bf00      	nop

08000e38 <__aeabi_f2d>:
 8000e38:	0042      	lsls	r2, r0, #1
 8000e3a:	ea4f 01e2 	mov.w	r1, r2, asr #3
 8000e3e:	ea4f 0131 	mov.w	r1, r1, rrx
 8000e42:	ea4f 7002 	mov.w	r0, r2, lsl #28
 8000e46:	bf1f      	itttt	ne
 8000e48:	f012 437f 	andsne.w	r3, r2, #4278190080	@ 0xff000000
 8000e4c:	f093 4f7f 	teqne	r3, #4278190080	@ 0xff000000
 8000e50:	f081 5160 	eorne.w	r1, r1, #939524096	@ 0x38000000
 8000e54:	4770      	bxne	lr
 8000e56:	f032 427f 	bics.w	r2, r2, #4278190080	@ 0xff000000
 8000e5a:	bf08      	it	eq
 8000e5c:	4770      	bxeq	lr
 8000e5e:	f093 4f7f 	teq	r3, #4278190080	@ 0xff000000
 8000e62:	bf04      	itt	eq
 8000e64:	f441 2100 	orreq.w	r1, r1, #524288	@ 0x80000
 8000e68:	4770      	bxeq	lr
 8000e6a:	b530      	push	{r4, r5, lr}
 8000e6c:	f44f 7460 	mov.w	r4, #896	@ 0x380
 8000e70:	f001 4500 	and.w	r5, r1, #2147483648	@ 0x80000000
 8000e74:	f021 4100 	bic.w	r1, r1, #2147483648	@ 0x80000000
 8000e78:	e71c      	b.n	8000cb4 <__adddf3+0x138>
 8000e7a:	bf00      	nop

08000e7c <__aeabi_ul2d>:
 8000e7c:	ea50 0201 	orrs.w	r2, r0, r1
 8000e80:	bf08      	it	eq
 8000e82:	4770      	bxeq	lr
 8000e84:	b530      	push	{r4, r5, lr}
 8000e86:	f04f 0500 	mov.w	r5, #0
 8000e8a:	e00a      	b.n	8000ea2 <__aeabi_l2d+0x16>

08000e8c <__aeabi_l2d>:
 8000e8c:	ea50 0201 	orrs.w	r2, r0, r1
 8000e90:	bf08      	it	eq
 8000e92:	4770      	bxeq	lr
 8000e94:	b530      	push	{r4, r5, lr}
 8000e96:	f011 4500 	ands.w	r5, r1, #2147483648	@ 0x80000000
 8000e9a:	d502      	bpl.n	8000ea2 <__aeabi_l2d+0x16>
 8000e9c:	4240      	negs	r0, r0
 8000e9e:	eb61 0141 	sbc.w	r1, r1, r1, lsl #1
 8000ea2:	f44f 6480 	mov.w	r4, #1024	@ 0x400
 8000ea6:	f104 0432 	add.w	r4, r4, #50	@ 0x32
 8000eaa:	ea5f 5c91 	movs.w	ip, r1, lsr #22
 8000eae:	f43f aed8 	beq.w	8000c62 <__adddf3+0xe6>
 8000eb2:	f04f 0203 	mov.w	r2, #3
 8000eb6:	ea5f 0cdc 	movs.w	ip, ip, lsr #3
 8000eba:	bf18      	it	ne
 8000ebc:	3203      	addne	r2, #3
 8000ebe:	ea5f 0cdc 	movs.w	ip, ip, lsr #3
 8000ec2:	bf18      	it	ne
 8000ec4:	3203      	addne	r2, #3
 8000ec6:	eb02 02dc 	add.w	r2, r2, ip, lsr #3
 8000eca:	f1c2 0320 	rsb	r3, r2, #32
 8000ece:	fa00 fc03 	lsl.w	ip, r0, r3
 8000ed2:	fa20 f002 	lsr.w	r0, r0, r2
 8000ed6:	fa01 fe03 	lsl.w	lr, r1, r3
 8000eda:	ea40 000e 	orr.w	r0, r0, lr
 8000ede:	fa21 f102 	lsr.w	r1, r1, r2
 8000ee2:	4414      	add	r4, r2
 8000ee4:	e6bd      	b.n	8000c62 <__adddf3+0xe6>
 8000ee6:	bf00      	nop

08000ee8 <__aeabi_uldivmod>:
 8000ee8:	b953      	cbnz	r3, 8000f00 <__aeabi_uldivmod+0x18>
 8000eea:	b94a      	cbnz	r2, 8000f00 <__aeabi_uldivmod+0x18>
 8000eec:	2900      	cmp	r1, #0
 8000eee:	bf08      	it	eq
 8000ef0:	2800      	cmpeq	r0, #0
 8000ef2:	bf1c      	itt	ne
 8000ef4:	f04f 31ff 	movne.w	r1, #4294967295
 8000ef8:	f04f 30ff 	movne.w	r0, #4294967295
 8000efc:	f000 b9c0 	b.w	8001280 <__aeabi_idiv0>
 8000f00:	f1ad 0c08 	sub.w	ip, sp, #8
 8000f04:	e96d ce04 	strd	ip, lr, [sp, #-16]!
 8000f08:	f000 f83e 	bl	8000f88 <__udivmoddi4>
 8000f0c:	f8dd e004 	ldr.w	lr, [sp, #4]
 8000f10:	e9dd 2302 	ldrd	r2, r3, [sp, #8]
 8000f14:	b004      	add	sp, #16
 8000f16:	4770      	bx	lr

08000f18 <__aeabi_d2lz>:
 8000f18:	b508      	push	{r3, lr}
 8000f1a:	4602      	mov	r2, r0
 8000f1c:	460b      	mov	r3, r1
 8000f1e:	ec43 2b17 	vmov	d7, r2, r3
 8000f22:	eeb5 7bc0 	vcmpe.f64	d7, #0.0
 8000f26:	eef1 fa10 	vmrs	APSR_nzcv, fpscr
 8000f2a:	d403      	bmi.n	8000f34 <__aeabi_d2lz+0x1c>
 8000f2c:	e8bd 4008 	ldmia.w	sp!, {r3, lr}
 8000f30:	f000 b80a 	b.w	8000f48 <__aeabi_d2ulz>
 8000f34:	eeb1 7b47 	vneg.f64	d7, d7
 8000f38:	ec51 0b17 	vmov	r0, r1, d7
 8000f3c:	f000 f804 	bl	8000f48 <__aeabi_d2ulz>
 8000f40:	4240      	negs	r0, r0
 8000f42:	eb61 0141 	sbc.w	r1, r1, r1, lsl #1
 8000f46:	bd08      	pop	{r3, pc}

08000f48 <__aeabi_d2ulz>:
 8000f48:	ed9f 6b0b 	vldr	d6, [pc, #44]	@ 8000f78 <__aeabi_d2ulz+0x30>
 8000f4c:	ec41 0b17 	vmov	d7, r0, r1
 8000f50:	ed9f 5b0b 	vldr	d5, [pc, #44]	@ 8000f80 <__aeabi_d2ulz+0x38>
 8000f54:	ee27 6b06 	vmul.f64	d6, d7, d6
 8000f58:	eebc 6bc6 	vcvt.u32.f64	s12, d6
 8000f5c:	eeb8 4b46 	vcvt.f64.u32	d4, s12
 8000f60:	eea4 7b45 	vfms.f64	d7, d4, d5
 8000f64:	eefc 7bc7 	vcvt.u32.f64	s15, d7
 8000f68:	ee16 1a10 	vmov	r1, s12
 8000f6c:	ee17 0a90 	vmov	r0, s15
 8000f70:	4770      	bx	lr
 8000f72:	bf00      	nop
 8000f74:	f3af 8000 	nop.w
 8000f78:	00000000 	.word	0x00000000
 8000f7c:	3df00000 	.word	0x3df00000
 8000f80:	00000000 	.word	0x00000000
 8000f84:	41f00000 	.word	0x41f00000

08000f88 <__udivmoddi4>:
 8000f88:	e92d 47f0 	stmdb	sp!, {r4, r5, r6, r7, r8, r9, sl, lr}
 8000f8c:	9d08      	ldr	r5, [sp, #32]
 8000f8e:	460f      	mov	r7, r1
 8000f90:	4604      	mov	r4, r0
 8000f92:	468c      	mov	ip, r1
 8000f94:	2b00      	cmp	r3, #0
 8000f96:	d148      	bne.n	800102a <__udivmoddi4+0xa2>
 8000f98:	428a      	cmp	r2, r1
 8000f9a:	4616      	mov	r6, r2
 8000f9c:	d961      	bls.n	8001062 <__udivmoddi4+0xda>
 8000f9e:	fab2 f382 	clz	r3, r2
 8000fa2:	b14b      	cbz	r3, 8000fb8 <__udivmoddi4+0x30>
 8000fa4:	f1c3 0220 	rsb	r2, r3, #32
 8000fa8:	fa01 fc03 	lsl.w	ip, r1, r3
 8000fac:	fa20 f202 	lsr.w	r2, r0, r2
 8000fb0:	409e      	lsls	r6, r3
 8000fb2:	ea42 0c0c 	orr.w	ip, r2, ip
 8000fb6:	409c      	lsls	r4, r3
 8000fb8:	ea4f 4e16 	mov.w	lr, r6, lsr #16
 8000fbc:	b2b7      	uxth	r7, r6
 8000fbe:	fbbc f1fe 	udiv	r1, ip, lr
 8000fc2:	0c22      	lsrs	r2, r4, #16
 8000fc4:	fb0e cc11 	mls	ip, lr, r1, ip
 8000fc8:	ea42 420c 	orr.w	r2, r2, ip, lsl #16
 8000fcc:	fb01 f007 	mul.w	r0, r1, r7
 8000fd0:	4290      	cmp	r0, r2
 8000fd2:	d909      	bls.n	8000fe8 <__udivmoddi4+0x60>
 8000fd4:	18b2      	adds	r2, r6, r2
 8000fd6:	f101 3cff 	add.w	ip, r1, #4294967295
 8000fda:	f080 80ee 	bcs.w	80011ba <__udivmoddi4+0x232>
 8000fde:	4290      	cmp	r0, r2
 8000fe0:	f240 80eb 	bls.w	80011ba <__udivmoddi4+0x232>
 8000fe4:	3902      	subs	r1, #2
 8000fe6:	4432      	add	r2, r6
 8000fe8:	1a12      	subs	r2, r2, r0
 8000fea:	b2a4      	uxth	r4, r4
 8000fec:	fbb2 f0fe 	udiv	r0, r2, lr
 8000ff0:	fb0e 2210 	mls	r2, lr, r0, r2
 8000ff4:	ea44 4402 	orr.w	r4, r4, r2, lsl #16
 8000ff8:	fb00 f707 	mul.w	r7, r0, r7
 8000ffc:	42a7      	cmp	r7, r4
 8000ffe:	d909      	bls.n	8001014 <__udivmoddi4+0x8c>
 8001000:	1934      	adds	r4, r6, r4
 8001002:	f100 32ff 	add.w	r2, r0, #4294967295
 8001006:	f080 80da 	bcs.w	80011be <__udivmoddi4+0x236>
 800100a:	42a7      	cmp	r7, r4
 800100c:	f240 80d7 	bls.w	80011be <__udivmoddi4+0x236>
 8001010:	4434      	add	r4, r6
 8001012:	3802      	subs	r0, #2
 8001014:	ea40 4001 	orr.w	r0, r0, r1, lsl #16
 8001018:	1be4      	subs	r4, r4, r7
 800101a:	2100      	movs	r1, #0
 800101c:	b11d      	cbz	r5, 8001026 <__udivmoddi4+0x9e>
 800101e:	40dc      	lsrs	r4, r3
 8001020:	2300      	movs	r3, #0
 8001022:	e9c5 4300 	strd	r4, r3, [r5]
 8001026:	e8bd 87f0 	ldmia.w	sp!, {r4, r5, r6, r7, r8, r9, sl, pc}
 800102a:	428b      	cmp	r3, r1
 800102c:	d906      	bls.n	800103c <__udivmoddi4+0xb4>
 800102e:	b10d      	cbz	r5, 8001034 <__udivmoddi4+0xac>
 8001030:	e9c5 0100 	strd	r0, r1, [r5]
 8001034:	2100      	movs	r1, #0
 8001036:	4608      	mov	r0, r1
 8001038:	e8bd 87f0 	ldmia.w	sp!, {r4, r5, r6, r7, r8, r9, sl, pc}
 800103c:	fab3 f183 	clz	r1, r3
 8001040:	2900      	cmp	r1, #0
 8001042:	d148      	bne.n	80010d6 <__udivmoddi4+0x14e>
 8001044:	42bb      	cmp	r3, r7
 8001046:	d302      	bcc.n	800104e <__udivmoddi4+0xc6>
 8001048:	4282      	cmp	r2, r0
 800104a:	f200 8107 	bhi.w	800125c <__udivmoddi4+0x2d4>
 800104e:	1a84      	subs	r4, r0, r2
 8001050:	eb67 0203 	sbc.w	r2, r7, r3
 8001054:	2001      	movs	r0, #1
 8001056:	4694      	mov	ip, r2
 8001058:	2d00      	cmp	r5, #0
 800105a:	d0e4      	beq.n	8001026 <__udivmoddi4+0x9e>
 800105c:	e9c5 4c00 	strd	r4, ip, [r5]
 8001060:	e7e1      	b.n	8001026 <__udivmoddi4+0x9e>
 8001062:	2a00      	cmp	r2, #0
 8001064:	f000 8092 	beq.w	800118c <__udivmoddi4+0x204>
 8001068:	fab2 f382 	clz	r3, r2
 800106c:	2b00      	cmp	r3, #0
 800106e:	f040 80a8 	bne.w	80011c2 <__udivmoddi4+0x23a>
 8001072:	1a8a      	subs	r2, r1, r2
 8001074:	ea4f 4e16 	mov.w	lr, r6, lsr #16
 8001078:	fa1f fc86 	uxth.w	ip, r6
 800107c:	2101      	movs	r1, #1
 800107e:	0c20      	lsrs	r0, r4, #16
 8001080:	fbb2 f7fe 	udiv	r7, r2, lr
 8001084:	fb0e 2217 	mls	r2, lr, r7, r2
 8001088:	ea40 4202 	orr.w	r2, r0, r2, lsl #16
 800108c:	fb0c f007 	mul.w	r0, ip, r7
 8001090:	4290      	cmp	r0, r2
 8001092:	d907      	bls.n	80010a4 <__udivmoddi4+0x11c>
 8001094:	18b2      	adds	r2, r6, r2
 8001096:	f107 38ff 	add.w	r8, r7, #4294967295
 800109a:	d202      	bcs.n	80010a2 <__udivmoddi4+0x11a>
 800109c:	4290      	cmp	r0, r2
 800109e:	f200 80e2 	bhi.w	8001266 <__udivmoddi4+0x2de>
 80010a2:	4647      	mov	r7, r8
 80010a4:	1a12      	subs	r2, r2, r0
 80010a6:	b2a4      	uxth	r4, r4
 80010a8:	fbb2 f0fe 	udiv	r0, r2, lr
 80010ac:	fb0e 2210 	mls	r2, lr, r0, r2
 80010b0:	ea44 4402 	orr.w	r4, r4, r2, lsl #16
 80010b4:	fb0c fc00 	mul.w	ip, ip, r0
 80010b8:	45a4      	cmp	ip, r4
 80010ba:	d907      	bls.n	80010cc <__udivmoddi4+0x144>
 80010bc:	1934      	adds	r4, r6, r4
 80010be:	f100 32ff 	add.w	r2, r0, #4294967295
 80010c2:	d202      	bcs.n	80010ca <__udivmoddi4+0x142>
 80010c4:	45a4      	cmp	ip, r4
 80010c6:	f200 80cb 	bhi.w	8001260 <__udivmoddi4+0x2d8>
 80010ca:	4610      	mov	r0, r2
 80010cc:	eba4 040c 	sub.w	r4, r4, ip
 80010d0:	ea40 4007 	orr.w	r0, r0, r7, lsl #16
 80010d4:	e7a2      	b.n	800101c <__udivmoddi4+0x94>
 80010d6:	f1c1 0620 	rsb	r6, r1, #32
 80010da:	408b      	lsls	r3, r1
 80010dc:	fa22 fc06 	lsr.w	ip, r2, r6
 80010e0:	ea4c 0c03 	orr.w	ip, ip, r3
 80010e4:	fa07 f401 	lsl.w	r4, r7, r1
 80010e8:	fa20 f306 	lsr.w	r3, r0, r6
 80010ec:	40f7      	lsrs	r7, r6
 80010ee:	ea4f 491c 	mov.w	r9, ip, lsr #16
 80010f2:	4323      	orrs	r3, r4
 80010f4:	fa00 f801 	lsl.w	r8, r0, r1
 80010f8:	fa1f fe8c 	uxth.w	lr, ip
 80010fc:	fbb7 f0f9 	udiv	r0, r7, r9
 8001100:	0c1c      	lsrs	r4, r3, #16
 8001102:	fb09 7710 	mls	r7, r9, r0, r7
 8001106:	ea44 4407 	orr.w	r4, r4, r7, lsl #16
 800110a:	fb00 f70e 	mul.w	r7, r0, lr
 800110e:	42a7      	cmp	r7, r4
 8001110:	fa02 f201 	lsl.w	r2, r2, r1
 8001114:	d90a      	bls.n	800112c <__udivmoddi4+0x1a4>
 8001116:	eb1c 0404 	adds.w	r4, ip, r4
 800111a:	f100 3aff 	add.w	sl, r0, #4294967295
 800111e:	f080 809b 	bcs.w	8001258 <__udivmoddi4+0x2d0>
 8001122:	42a7      	cmp	r7, r4
 8001124:	f240 8098 	bls.w	8001258 <__udivmoddi4+0x2d0>
 8001128:	3802      	subs	r0, #2
 800112a:	4464      	add	r4, ip
 800112c:	1be4      	subs	r4, r4, r7
 800112e:	b29f      	uxth	r7, r3
 8001130:	fbb4 f3f9 	udiv	r3, r4, r9
 8001134:	fb09 4413 	mls	r4, r9, r3, r4
 8001138:	ea47 4404 	orr.w	r4, r7, r4, lsl #16
 800113c:	fb03 fe0e 	mul.w	lr, r3, lr
 8001140:	45a6      	cmp	lr, r4
 8001142:	d909      	bls.n	8001158 <__udivmoddi4+0x1d0>
 8001144:	eb1c 0404 	adds.w	r4, ip, r4
 8001148:	f103 37ff 	add.w	r7, r3, #4294967295
 800114c:	f080 8082 	bcs.w	8001254 <__udivmoddi4+0x2cc>
 8001150:	45a6      	cmp	lr, r4
 8001152:	d97f      	bls.n	8001254 <__udivmoddi4+0x2cc>
 8001154:	3b02      	subs	r3, #2
 8001156:	4464      	add	r4, ip
 8001158:	ea43 4000 	orr.w	r0, r3, r0, lsl #16
 800115c:	eba4 040e 	sub.w	r4, r4, lr
 8001160:	fba0 e702 	umull	lr, r7, r0, r2
 8001164:	42bc      	cmp	r4, r7
 8001166:	4673      	mov	r3, lr
 8001168:	46b9      	mov	r9, r7
 800116a:	d363      	bcc.n	8001234 <__udivmoddi4+0x2ac>
 800116c:	d060      	beq.n	8001230 <__udivmoddi4+0x2a8>
 800116e:	b15d      	cbz	r5, 8001188 <__udivmoddi4+0x200>
 8001170:	ebb8 0203 	subs.w	r2, r8, r3
 8001174:	eb64 0409 	sbc.w	r4, r4, r9
 8001178:	fa04 f606 	lsl.w	r6, r4, r6
 800117c:	fa22 f301 	lsr.w	r3, r2, r1
 8001180:	431e      	orrs	r6, r3
 8001182:	40cc      	lsrs	r4, r1
 8001184:	e9c5 6400 	strd	r6, r4, [r5]
 8001188:	2100      	movs	r1, #0
 800118a:	e74c      	b.n	8001026 <__udivmoddi4+0x9e>
 800118c:	0862      	lsrs	r2, r4, #1
 800118e:	0848      	lsrs	r0, r1, #1
 8001190:	ea42 71c1 	orr.w	r1, r2, r1, lsl #31
 8001194:	0c0b      	lsrs	r3, r1, #16
 8001196:	ea43 4300 	orr.w	r3, r3, r0, lsl #16
 800119a:	b28a      	uxth	r2, r1
 800119c:	ea42 4203 	orr.w	r2, r2, r3, lsl #16
 80011a0:	fbb3 f1f6 	udiv	r1, r3, r6
 80011a4:	07e4      	lsls	r4, r4, #31
 80011a6:	46b4      	mov	ip, r6
 80011a8:	4637      	mov	r7, r6
 80011aa:	46b6      	mov	lr, r6
 80011ac:	231f      	movs	r3, #31
 80011ae:	fbb0 f0f6 	udiv	r0, r0, r6
 80011b2:	1bd2      	subs	r2, r2, r7
 80011b4:	ea41 4100 	orr.w	r1, r1, r0, lsl #16
 80011b8:	e761      	b.n	800107e <__udivmoddi4+0xf6>
 80011ba:	4661      	mov	r1, ip
 80011bc:	e714      	b.n	8000fe8 <__udivmoddi4+0x60>
 80011be:	4610      	mov	r0, r2
 80011c0:	e728      	b.n	8001014 <__udivmoddi4+0x8c>
 80011c2:	f1c3 0120 	rsb	r1, r3, #32
 80011c6:	fa20 f201 	lsr.w	r2, r0, r1
 80011ca:	409e      	lsls	r6, r3
 80011cc:	fa27 f101 	lsr.w	r1, r7, r1
 80011d0:	409f      	lsls	r7, r3
 80011d2:	433a      	orrs	r2, r7
 80011d4:	ea4f 4e16 	mov.w	lr, r6, lsr #16
 80011d8:	fa1f fc86 	uxth.w	ip, r6
 80011dc:	fbb1 f7fe 	udiv	r7, r1, lr
 80011e0:	fb0e 1017 	mls	r0, lr, r7, r1
 80011e4:	0c11      	lsrs	r1, r2, #16
 80011e6:	ea41 4100 	orr.w	r1, r1, r0, lsl #16
 80011ea:	fb07 f80c 	mul.w	r8, r7, ip
 80011ee:	4588      	cmp	r8, r1
 80011f0:	fa04 f403 	lsl.w	r4, r4, r3
 80011f4:	d93a      	bls.n	800126c <__udivmoddi4+0x2e4>
 80011f6:	1871      	adds	r1, r6, r1
 80011f8:	f107 30ff 	add.w	r0, r7, #4294967295
 80011fc:	d201      	bcs.n	8001202 <__udivmoddi4+0x27a>
 80011fe:	4588      	cmp	r8, r1
 8001200:	d81f      	bhi.n	8001242 <__udivmoddi4+0x2ba>
 8001202:	eba1 0108 	sub.w	r1, r1, r8
 8001206:	fbb1 f8fe 	udiv	r8, r1, lr
 800120a:	fb08 f70c 	mul.w	r7, r8, ip
 800120e:	fb0e 1118 	mls	r1, lr, r8, r1
 8001212:	b292      	uxth	r2, r2
 8001214:	ea42 4201 	orr.w	r2, r2, r1, lsl #16
 8001218:	42ba      	cmp	r2, r7
 800121a:	d22f      	bcs.n	800127c <__udivmoddi4+0x2f4>
 800121c:	18b2      	adds	r2, r6, r2
 800121e:	f108 31ff 	add.w	r1, r8, #4294967295
 8001222:	d2c6      	bcs.n	80011b2 <__udivmoddi4+0x22a>
 8001224:	42ba      	cmp	r2, r7
 8001226:	d2c4      	bcs.n	80011b2 <__udivmoddi4+0x22a>
 8001228:	f1a8 0102 	sub.w	r1, r8, #2
 800122c:	4432      	add	r2, r6
 800122e:	e7c0      	b.n	80011b2 <__udivmoddi4+0x22a>
 8001230:	45f0      	cmp	r8, lr
 8001232:	d29c      	bcs.n	800116e <__udivmoddi4+0x1e6>
 8001234:	ebbe 0302 	subs.w	r3, lr, r2
 8001238:	eb67 070c 	sbc.w	r7, r7, ip
 800123c:	3801      	subs	r0, #1
 800123e:	46b9      	mov	r9, r7
 8001240:	e795      	b.n	800116e <__udivmoddi4+0x1e6>
 8001242:	eba6 0808 	sub.w	r8, r6, r8
 8001246:	4441      	add	r1, r8
 8001248:	1eb8      	subs	r0, r7, #2
 800124a:	fbb1 f8fe 	udiv	r8, r1, lr
 800124e:	fb08 f70c 	mul.w	r7, r8, ip
 8001252:	e7dc      	b.n	800120e <__udivmoddi4+0x286>
 8001254:	463b      	mov	r3, r7
 8001256:	e77f      	b.n	8001158 <__udivmoddi4+0x1d0>
 8001258:	4650      	mov	r0, sl
 800125a:	e767      	b.n	800112c <__udivmoddi4+0x1a4>
 800125c:	4608      	mov	r0, r1
 800125e:	e6fb      	b.n	8001058 <__udivmoddi4+0xd0>
 8001260:	4434      	add	r4, r6
 8001262:	3802      	subs	r0, #2
 8001264:	e732      	b.n	80010cc <__udivmoddi4+0x144>
 8001266:	3f02      	subs	r7, #2
 8001268:	4432      	add	r2, r6
 800126a:	e71b      	b.n	80010a4 <__udivmoddi4+0x11c>
 800126c:	eba1 0108 	sub.w	r1, r1, r8
 8001270:	4638      	mov	r0, r7
 8001272:	fbb1 f8fe 	udiv	r8, r1, lr
 8001276:	fb08 f70c 	mul.w	r7, r8, ip
 800127a:	e7c8      	b.n	800120e <__udivmoddi4+0x286>
 800127c:	4641      	mov	r1, r8
 800127e:	e798      	b.n	80011b2 <__udivmoddi4+0x22a>

08001280 <__aeabi_idiv0>:
 8001280:	4770      	bx	lr
 8001282:	bf00      	nop

08001284 <SystemClock_Config>:
 8001284:	b510      	push	{r4, lr}
 8001286:	b0cc      	sub	sp, #304	@ 0x130
 8001288:	224c      	movs	r2, #76	@ 0x4c
 800128a:	2100      	movs	r1, #0
 800128c:	a80a      	add	r0, sp, #40	@ 0x28
 800128e:	f003 fd47 	bl	8004d20 <memset>
 8001292:	2220      	movs	r2, #32
 8001294:	2100      	movs	r1, #0
 8001296:	a802      	add	r0, sp, #8
 8001298:	f003 fd42 	bl	8004d20 <memset>
 800129c:	22bc      	movs	r2, #188	@ 0xbc
 800129e:	2100      	movs	r1, #0
 80012a0:	a81d      	add	r0, sp, #116	@ 0x74
 80012a2:	f003 fd3d 	bl	8004d20 <memset>
 80012a6:	2002      	movs	r0, #2
 80012a8:	f000 ff40 	bl	800212c <HAL_PWREx_ConfigSupply>
 80012ac:	2200      	movs	r2, #0
 80012ae:	4933      	ldr	r1, [pc, #204]	@ (800137c <SystemClock_Config+0xf8>)
 80012b0:	9201      	str	r2, [sp, #4]
 80012b2:	4a33      	ldr	r2, [pc, #204]	@ (8001380 <SystemClock_Config+0xfc>)
 80012b4:	6990      	ldr	r0, [r2, #24]
 80012b6:	f440 4040 	orr.w	r0, r0, #49152	@ 0xc000
 80012ba:	6190      	str	r0, [r2, #24]
 80012bc:	6990      	ldr	r0, [r2, #24]
 80012be:	f400 4040 	and.w	r0, r0, #49152	@ 0xc000
 80012c2:	9001      	str	r0, [sp, #4]
 80012c4:	6ac8      	ldr	r0, [r1, #44]	@ 0x2c
 80012c6:	f040 0001 	orr.w	r0, r0, #1
 80012ca:	62c8      	str	r0, [r1, #44]	@ 0x2c
 80012cc:	6ac9      	ldr	r1, [r1, #44]	@ 0x2c
 80012ce:	f001 0101 	and.w	r1, r1, #1
 80012d2:	9101      	str	r1, [sp, #4]
 80012d4:	9b01      	ldr	r3, [sp, #4]
 80012d6:	6993      	ldr	r3, [r2, #24]
 80012d8:	049b      	lsls	r3, r3, #18
 80012da:	d5fc      	bpl.n	80012d6 <SystemClock_Config+0x52>
 80012dc:	2201      	movs	r2, #1
 80012de:	f44f 3380 	mov.w	r3, #65536	@ 0x10000
 80012e2:	a80a      	add	r0, sp, #40	@ 0x28
 80012e4:	e9cd 230a 	strd	r2, r3, [sp, #40]	@ 0x28
 80012e8:	2302      	movs	r3, #2
 80012ea:	2205      	movs	r2, #5
 80012ec:	e9cd 3313 	strd	r3, r3, [sp, #76]	@ 0x4c
 80012f0:	9215      	str	r2, [sp, #84]	@ 0x54
 80012f2:	22c0      	movs	r2, #192	@ 0xc0
 80012f4:	9317      	str	r3, [sp, #92]	@ 0x5c
 80012f6:	9319      	str	r3, [sp, #100]	@ 0x64
 80012f8:	2308      	movs	r3, #8
 80012fa:	9216      	str	r2, [sp, #88]	@ 0x58
 80012fc:	2204      	movs	r2, #4
 80012fe:	931a      	str	r3, [sp, #104]	@ 0x68
 8001300:	2300      	movs	r3, #0
 8001302:	9218      	str	r2, [sp, #96]	@ 0x60
 8001304:	e9cd 331b 	strd	r3, r3, [sp, #108]	@ 0x6c
 8001308:	f000 ff34 	bl	8002174 <HAL_RCC_OscConfig>
 800130c:	bb60      	cbnz	r0, 8001368 <SystemClock_Config+0xe4>
 800130e:	213f      	movs	r1, #63	@ 0x3f
 8001310:	2203      	movs	r2, #3
 8001312:	2340      	movs	r3, #64	@ 0x40
 8001314:	9102      	str	r1, [sp, #8]
 8001316:	2100      	movs	r1, #0
 8001318:	9203      	str	r2, [sp, #12]
 800131a:	2208      	movs	r2, #8
 800131c:	9306      	str	r3, [sp, #24]
 800131e:	9307      	str	r3, [sp, #28]
 8001320:	eb0d 0002 	add.w	r0, sp, r2
 8001324:	9309      	str	r3, [sp, #36]	@ 0x24
 8001326:	f44f 6380 	mov.w	r3, #1024	@ 0x400
 800132a:	9104      	str	r1, [sp, #16]
 800132c:	2104      	movs	r1, #4
 800132e:	9205      	str	r2, [sp, #20]
 8001330:	9308      	str	r3, [sp, #32]
 8001332:	f001 fa8b 	bl	800284c <HAL_RCC_ClockConfig>
 8001336:	b9f0      	cbnz	r0, 8001376 <SystemClock_Config+0xf2>
 8001338:	2302      	movs	r3, #2
 800133a:	f04f 7400 	mov.w	r4, #33554432	@ 0x2000000
 800133e:	2105      	movs	r1, #5
 8001340:	2200      	movs	r2, #0
 8001342:	9320      	str	r3, [sp, #128]	@ 0x80
 8001344:	a81d      	add	r0, sp, #116	@ 0x74
 8001346:	e9cd 411d 	strd	r4, r1, [sp, #116]	@ 0x74
 800134a:	e9cd 3321 	strd	r3, r3, [sp, #132]	@ 0x84
 800134e:	2464      	movs	r4, #100	@ 0x64
 8001350:	2180      	movs	r1, #128	@ 0x80
 8001352:	2320      	movs	r3, #32
 8001354:	941f      	str	r4, [sp, #124]	@ 0x7c
 8001356:	9123      	str	r1, [sp, #140]	@ 0x8c
 8001358:	932f      	str	r3, [sp, #188]	@ 0xbc
 800135a:	e9cd 2224 	strd	r2, r2, [sp, #144]	@ 0x90
 800135e:	f001 fc7f 	bl	8002c60 <HAL_RCCEx_PeriphCLKConfig>
 8001362:	b920      	cbnz	r0, 800136e <SystemClock_Config+0xea>
 8001364:	b04c      	add	sp, #304	@ 0x130
 8001366:	bd10      	pop	{r4, pc}
 8001368:	f000 f89c 	bl	80014a4 <Error_Handler>
 800136c:	e7cf      	b.n	800130e <SystemClock_Config+0x8a>
 800136e:	f000 f899 	bl	80014a4 <Error_Handler>
 8001372:	b04c      	add	sp, #304	@ 0x130
 8001374:	bd10      	pop	{r4, pc}
 8001376:	f000 f895 	bl	80014a4 <Error_Handler>
 800137a:	e7dd      	b.n	8001338 <SystemClock_Config+0xb4>
 800137c:	58000400 	.word	0x58000400
 8001380:	58024800 	.word	0x58024800

08001384 <LED_Init>:
 8001384:	b500      	push	{lr}
 8001386:	2200      	movs	r2, #0
 8001388:	b089      	sub	sp, #36	@ 0x24
 800138a:	4b13      	ldr	r3, [pc, #76]	@ (80013d8 <LED_Init+0x54>)
 800138c:	f44f 5100 	mov.w	r1, #8192	@ 0x2000
 8001390:	9206      	str	r2, [sp, #24]
 8001392:	e9cd 2202 	strd	r2, r2, [sp, #8]
 8001396:	e9cd 2204 	strd	r2, r2, [sp, #16]
 800139a:	f8d3 00e0 	ldr.w	r0, [r3, #224]	@ 0xe0
 800139e:	f040 0004 	orr.w	r0, r0, #4
 80013a2:	f8c3 00e0 	str.w	r0, [r3, #224]	@ 0xe0
 80013a6:	f8d3 30e0 	ldr.w	r3, [r3, #224]	@ 0xe0
 80013aa:	480c      	ldr	r0, [pc, #48]	@ (80013dc <LED_Init+0x58>)
 80013ac:	f003 0304 	and.w	r3, r3, #4
 80013b0:	9301      	str	r3, [sp, #4]
 80013b2:	9b01      	ldr	r3, [sp, #4]
 80013b4:	f000 fe9a 	bl	80020ec <HAL_GPIO_WritePin>
 80013b8:	f44f 5200 	mov.w	r2, #8192	@ 0x2000
 80013bc:	2301      	movs	r3, #1
 80013be:	a902      	add	r1, sp, #8
 80013c0:	4806      	ldr	r0, [pc, #24]	@ (80013dc <LED_Init+0x58>)
 80013c2:	e9cd 2302 	strd	r2, r3, [sp, #8]
 80013c6:	2200      	movs	r2, #0
 80013c8:	2300      	movs	r3, #0
 80013ca:	e9cd 2304 	strd	r2, r3, [sp, #16]
 80013ce:	f000 fc81 	bl	8001cd4 <HAL_GPIO_Init>
 80013d2:	b009      	add	sp, #36	@ 0x24
 80013d4:	bd00      	pop	{pc}
 80013d6:	bf00      	nop
 80013d8:	58024400 	.word	0x58024400
 80013dc:	58020800 	.word	0x58020800

080013e0 <main>:
 80013e0:	4a2d      	ldr	r2, [pc, #180]	@ (8001498 <main+0xb8>)
 80013e2:	b508      	push	{r3, lr}
 80013e4:	6953      	ldr	r3, [r2, #20]
 80013e6:	f413 3300 	ands.w	r3, r3, #131072	@ 0x20000
 80013ea:	d111      	bne.n	8001410 <main+0x30>
 80013ec:	f3bf 8f4f 	dsb	sy
 80013f0:	f3bf 8f6f 	isb	sy
 80013f4:	f8c2 3250 	str.w	r3, [r2, #592]	@ 0x250
 80013f8:	f3bf 8f4f 	dsb	sy
 80013fc:	f3bf 8f6f 	isb	sy
 8001400:	6953      	ldr	r3, [r2, #20]
 8001402:	f443 3300 	orr.w	r3, r3, #131072	@ 0x20000
 8001406:	6153      	str	r3, [r2, #20]
 8001408:	f3bf 8f4f 	dsb	sy
 800140c:	f3bf 8f6f 	isb	sy
 8001410:	4821      	ldr	r0, [pc, #132]	@ (8001498 <main+0xb8>)
 8001412:	6943      	ldr	r3, [r0, #20]
 8001414:	f413 3380 	ands.w	r3, r3, #65536	@ 0x10000
 8001418:	d126      	bne.n	8001468 <main+0x88>
 800141a:	f8c0 3084 	str.w	r3, [r0, #132]	@ 0x84
 800141e:	f3bf 8f4f 	dsb	sy
 8001422:	f8d0 3080 	ldr.w	r3, [r0, #128]	@ 0x80
 8001426:	f643 74e0 	movw	r4, #16352	@ 0x3fe0
 800142a:	f3c3 3c4e 	ubfx	ip, r3, #13, #15
 800142e:	f3c3 0ec9 	ubfx	lr, r3, #3, #10
 8001432:	ea4f 1c4c 	mov.w	ip, ip, lsl #5
 8001436:	ea0c 0104 	and.w	r1, ip, r4
 800143a:	4673      	mov	r3, lr
 800143c:	ea41 7283 	orr.w	r2, r1, r3, lsl #30
 8001440:	3b01      	subs	r3, #1
 8001442:	f8c0 2260 	str.w	r2, [r0, #608]	@ 0x260
 8001446:	1c5a      	adds	r2, r3, #1
 8001448:	d1f8      	bne.n	800143c <main+0x5c>
 800144a:	f1ac 0c20 	sub.w	ip, ip, #32
 800144e:	f11c 0f20 	cmn.w	ip, #32
 8001452:	d1f0      	bne.n	8001436 <main+0x56>
 8001454:	f3bf 8f4f 	dsb	sy
 8001458:	6943      	ldr	r3, [r0, #20]
 800145a:	f443 3380 	orr.w	r3, r3, #65536	@ 0x10000
 800145e:	6143      	str	r3, [r0, #20]
 8001460:	f3bf 8f4f 	dsb	sy
 8001464:	f3bf 8f6f 	isb	sy
 8001468:	f000 fb78 	bl	8001b5c <HAL_Init>
 800146c:	f7ff ff0a 	bl	8001284 <SystemClock_Config>
 8001470:	f7ff ff88 	bl	8001384 <LED_Init>
 8001474:	f002 fb46 	bl	8003b04 <USART1_Init>
 8001478:	f000 f816 	bl	80014a8 <pi_compute>
 800147c:	4807      	ldr	r0, [pc, #28]	@ (800149c <main+0xbc>)
 800147e:	f003 fb4f 	bl	8004b20 <puts>
 8001482:	f240 20ee 	movw	r0, #750	@ 0x2ee
 8001486:	f000 fbab 	bl	8001be0 <HAL_Delay>
 800148a:	f44f 5100 	mov.w	r1, #8192	@ 0x2000
 800148e:	4804      	ldr	r0, [pc, #16]	@ (80014a0 <main+0xc0>)
 8001490:	f000 fe30 	bl	80020f4 <HAL_GPIO_TogglePin>
 8001494:	e7f5      	b.n	8001482 <main+0xa2>
 8001496:	bf00      	nop
 8001498:	e000ed00 	.word	0xe000ed00
 800149c:	08008248 	.word	0x08008248
 80014a0:	58020800 	.word	0x58020800

080014a4 <Error_Handler>:
 80014a4:	b672      	cpsid	i
 80014a6:	e7fe      	b.n	80014a6 <Error_Handler+0x2>

080014a8 <pi_compute>:
 80014a8:	4977      	ldr	r1, [pc, #476]	@ (8001688 <pi_compute+0x1e0>)
 80014aa:	4a78      	ldr	r2, [pc, #480]	@ (800168c <pi_compute+0x1e4>)
 80014ac:	f8d1 30fc 	ldr.w	r3, [r1, #252]	@ 0xfc
 80014b0:	6812      	ldr	r2, [r2, #0]
 80014b2:	4877      	ldr	r0, [pc, #476]	@ (8001690 <pi_compute+0x1e8>)
 80014b4:	f043 7380 	orr.w	r3, r3, #16777216	@ 0x1000000
 80014b8:	e92d 4ff0 	stmdb	sp!, {r4, r5, r6, r7, r8, r9, sl, fp, lr}
 80014bc:	4d75      	ldr	r5, [pc, #468]	@ (8001694 <pi_compute+0x1ec>)
 80014be:	2400      	movs	r4, #0
 80014c0:	b08d      	sub	sp, #52	@ 0x34
 80014c2:	fba0 0202 	umull	r0, r2, r0, r2
 80014c6:	f8c1 30fc 	str.w	r3, [r1, #252]	@ 0xfc
 80014ca:	606c      	str	r4, [r5, #4]
 80014cc:	0996      	lsrs	r6, r2, #6
 80014ce:	682b      	ldr	r3, [r5, #0]
 80014d0:	4871      	ldr	r0, [pc, #452]	@ (8001698 <pi_compute+0x1f0>)
 80014d2:	f043 0301 	orr.w	r3, r3, #1
 80014d6:	9605      	str	r6, [sp, #20]
 80014d8:	602b      	str	r3, [r5, #0]
 80014da:	f003 fb21 	bl	8004b20 <puts>
 80014de:	f242 7110 	movw	r1, #10000	@ 0x2710
 80014e2:	486e      	ldr	r0, [pc, #440]	@ (800169c <pi_compute+0x1f4>)
 80014e4:	f003 fab4 	bl	8004a50 <iprintf>
 80014e8:	486d      	ldr	r0, [pc, #436]	@ (80016a0 <pi_compute+0x1f8>)
 80014ea:	f003 fb19 	bl	8004b20 <puts>
 80014ee:	486d      	ldr	r0, [pc, #436]	@ (80016a4 <pi_compute+0x1fc>)
 80014f0:	f003 fb16 	bl	8004b20 <puts>
 80014f4:	486c      	ldr	r0, [pc, #432]	@ (80016a8 <pi_compute+0x200>)
 80014f6:	f003 fb13 	bl	8004b20 <puts>
 80014fa:	486c      	ldr	r0, [pc, #432]	@ (80016ac <pi_compute+0x204>)
 80014fc:	f003 fb10 	bl	8004b20 <puts>
 8001500:	686a      	ldr	r2, [r5, #4]
 8001502:	686b      	ldr	r3, [r5, #4]
 8001504:	486a      	ldr	r0, [pc, #424]	@ (80016b0 <pi_compute+0x208>)
 8001506:	1a9b      	subs	r3, r3, r2
 8001508:	fbb3 f3f6 	udiv	r3, r3, r6
 800150c:	9303      	str	r3, [sp, #12]
 800150e:	a358      	add	r3, pc, #352	@ (adr r3, 8001670 <pi_compute+0x1c8>)
 8001510:	e9d3 2300 	ldrd	r2, r3, [r3]
 8001514:	f003 fa9c 	bl	8004a50 <iprintf>
 8001518:	4866      	ldr	r0, [pc, #408]	@ (80016b4 <pi_compute+0x20c>)
 800151a:	f003 fb01 	bl	8004b20 <puts>
 800151e:	4866      	ldr	r0, [pc, #408]	@ (80016b8 <pi_compute+0x210>)
 8001520:	a355      	add	r3, pc, #340	@ (adr r3, 8001678 <pi_compute+0x1d0>)
 8001522:	e9d3 2300 	ldrd	r2, r3, [r3]
 8001526:	f003 fa93 	bl	8004a50 <iprintf>
 800152a:	4864      	ldr	r0, [pc, #400]	@ (80016bc <pi_compute+0x214>)
 800152c:	f003 faf8 	bl	8004b20 <puts>
 8001530:	686d      	ldr	r5, [r5, #4]
 8001532:	4621      	mov	r1, r4
 8001534:	4862      	ldr	r0, [pc, #392]	@ (80016c0 <pi_compute+0x218>)
 8001536:	a352      	add	r3, pc, #328	@ (adr r3, 8001680 <pi_compute+0x1d8>)
 8001538:	e9d3 2300 	ldrd	r2, r3, [r3]
 800153c:	e9cd 2308 	strd	r2, r3, [sp, #32]
 8001540:	f241 126c 	movw	r2, #4460	@ 0x116c
 8001544:	f003 fbec 	bl	8004d20 <memset>
 8001548:	f241 126c 	movw	r2, #4460	@ 0x116c
 800154c:	4621      	mov	r1, r4
 800154e:	485d      	ldr	r0, [pc, #372]	@ (80016c4 <pi_compute+0x21c>)
 8001550:	f003 fbe6 	bl	8004d20 <memset>
 8001554:	2301      	movs	r3, #1
 8001556:	4a5c      	ldr	r2, [pc, #368]	@ (80016c8 <pi_compute+0x220>)
 8001558:	a90a      	add	r1, sp, #40	@ 0x28
 800155a:	2005      	movs	r0, #5
 800155c:	f8c2 3168 	str.w	r3, [r2, #360]	@ 0x168
 8001560:	f04f 3233 	mov.w	r2, #858993459	@ 0x33333333
 8001564:	f04f 3333 	mov.w	r3, #858993459	@ 0x33333333
 8001568:	e9cd 230a 	strd	r2, r3, [sp, #40]	@ 0x28
 800156c:	f006 fe64 	bl	8008238 <__bn_div_word_top_rec.constprop.0_veneer>
 8001570:	4680      	mov	r8, r0
 8001572:	2800      	cmp	r0, #0
 8001574:	f000 82b8 	beq.w	8001ae8 <pi_compute+0x640>
 8001578:	0086      	lsls	r6, r0, #2
 800157a:	4952      	ldr	r1, [pc, #328]	@ (80016c4 <pi_compute+0x21c>)
 800157c:	4853      	ldr	r0, [pc, #332]	@ (80016cc <pi_compute+0x224>)
 800157e:	4632      	mov	r2, r6
 8001580:	f003 fc4d 	bl	8004e1e <memcpy>
 8001584:	f240 435b 	movw	r3, #1115	@ 0x45b
 8001588:	4598      	cmp	r8, r3
 800158a:	d007      	beq.n	800159c <pi_compute+0xf4>
 800158c:	4a4f      	ldr	r2, [pc, #316]	@ (80016cc <pi_compute+0x224>)
 800158e:	eba3 0308 	sub.w	r3, r3, r8
 8001592:	4621      	mov	r1, r4
 8001594:	1990      	adds	r0, r2, r6
 8001596:	009a      	lsls	r2, r3, #2
 8001598:	f003 fbc2 	bl	8004d20 <memset>
 800159c:	f04f 0a00 	mov.w	sl, #0
 80015a0:	ab08      	add	r3, sp, #32
 80015a2:	2701      	movs	r7, #1
 80015a4:	9506      	str	r5, [sp, #24]
 80015a6:	4654      	mov	r4, sl
 80015a8:	46d1      	mov	r9, sl
 80015aa:	469b      	mov	fp, r3
 80015ac:	463a      	mov	r2, r7
 80015ae:	4653      	mov	r3, sl
 80015b0:	f04f 30ff 	mov.w	r0, #4294967295
 80015b4:	f04f 31ff 	mov.w	r1, #4294967295
 80015b8:	f7ff fc96 	bl	8000ee8 <__aeabi_uldivmod>
 80015bc:	ab0a      	add	r3, sp, #40	@ 0x28
 80015be:	463a      	mov	r2, r7
 80015c0:	9300      	str	r3, [sp, #0]
 80015c2:	4643      	mov	r3, r8
 80015c4:	e9cd 010a 	strd	r0, r1, [sp, #40]	@ 0x28
 80015c8:	4940      	ldr	r1, [pc, #256]	@ (80016cc <pi_compute+0x224>)
 80015ca:	4841      	ldr	r0, [pc, #260]	@ (80016d0 <pi_compute+0x228>)
 80015cc:	f006 fe38 	bl	8008240 <__bn_div_word_top_rec_veneer>
 80015d0:	f019 0f01 	tst.w	r9, #1
 80015d4:	4603      	mov	r3, r0
 80015d6:	f000 8270 	beq.w	8001aba <pi_compute+0x612>
 80015da:	2c00      	cmp	r4, #0
 80015dc:	f340 827e 	ble.w	8001adc <pi_compute+0x634>
 80015e0:	2800      	cmp	r0, #0
 80015e2:	f340 8276 	ble.w	8001ad2 <pi_compute+0x62a>
 80015e6:	42a0      	cmp	r0, r4
 80015e8:	f8df e0d4 	ldr.w	lr, [pc, #212]	@ 80016c0 <pi_compute+0x218>
 80015ec:	f04f 0500 	mov.w	r5, #0
 80015f0:	4602      	mov	r2, r0
 80015f2:	46f4      	mov	ip, lr
 80015f4:	bfa8      	it	ge
 80015f6:	4622      	movge	r2, r4
 80015f8:	4835      	ldr	r0, [pc, #212]	@ (80016d0 <pi_compute+0x228>)
 80015fa:	462e      	mov	r6, r5
 80015fc:	9304      	str	r3, [sp, #16]
 80015fe:	f85c 1b04 	ldr.w	r1, [ip], #4
 8001602:	f850 3b04 	ldr.w	r3, [r0], #4
 8001606:	1acb      	subs	r3, r1, r3
 8001608:	eb61 0101 	sbc.w	r1, r1, r1
 800160c:	1b5b      	subs	r3, r3, r5
 800160e:	f04f 0500 	mov.w	r5, #0
 8001612:	f161 0100 	sbc.w	r1, r1, #0
 8001616:	42a9      	cmp	r1, r5
 8001618:	da06      	bge.n	8001628 <pi_compute+0x180>
 800161a:	f103 536e 	add.w	r3, r3, #998244352	@ 0x3b800000
 800161e:	2501      	movs	r5, #1
 8001620:	f503 13d6 	add.w	r3, r3, #1753088	@ 0x1ac000
 8001624:	f503 6320 	add.w	r3, r3, #2560	@ 0xa00
 8001628:	3601      	adds	r6, #1
 800162a:	f84c 3c04 	str.w	r3, [ip, #-4]
 800162e:	4296      	cmp	r6, r2
 8001630:	dbe5      	blt.n	80015fe <pi_compute+0x156>
 8001632:	9b04      	ldr	r3, [sp, #16]
 8001634:	42a3      	cmp	r3, r4
 8001636:	da18      	bge.n	800166a <pi_compute+0x1c2>
 8001638:	f06f 4140 	mvn.w	r1, #3221225472	@ 0xc0000000
 800163c:	4411      	add	r1, r2
 800163e:	eb0e 0181 	add.w	r1, lr, r1, lsl #2
 8001642:	f851 3f04 	ldr.w	r3, [r1, #4]!
 8001646:	4823      	ldr	r0, [pc, #140]	@ (80016d4 <pi_compute+0x22c>)
 8001648:	1b5b      	subs	r3, r3, r5
 800164a:	f04f 0501 	mov.w	r5, #1
 800164e:	eb66 0606 	sbc.w	r6, r6, r6
 8001652:	f1b6 3fff 	cmp.w	r6, #4294967295
 8001656:	bf08      	it	eq
 8001658:	f1b3 3fff 	cmpeq.w	r3, #4294967295
 800165c:	d001      	beq.n	8001662 <pi_compute+0x1ba>
 800165e:	4618      	mov	r0, r3
 8001660:	2500      	movs	r5, #0
 8001662:	3201      	adds	r2, #1
 8001664:	6008      	str	r0, [r1, #0]
 8001666:	42a2      	cmp	r2, r4
 8001668:	dbeb      	blt.n	8001642 <pi_compute+0x19a>
 800166a:	eb0e 0384 	add.w	r3, lr, r4, lsl #2
 800166e:	e035      	b.n	80016dc <pi_compute+0x234>
 8001670:	54442d1a 	.word	0x54442d1a
 8001674:	400921fb 	.word	0x400921fb
 8001678:	54442d19 	.word	0x54442d19
 800167c:	400921fb 	.word	0x400921fb
 8001680:	d70a3d70 	.word	0xd70a3d70
 8001684:	0a3d70a3 	.word	0x0a3d70a3
 8001688:	e000ed00 	.word	0xe000ed00
 800168c:	2000000c 	.word	0x2000000c
 8001690:	10624dd3 	.word	0x10624dd3
 8001694:	e0001000 	.word	0xe0001000
 8001698:	08008268 	.word	0x08008268
 800169c:	08008294 	.word	0x08008294
 80016a0:	080082b0 	.word	0x080082b0
 80016a4:	080082d8 	.word	0x080082d8
 80016a8:	080082fc 	.word	0x080082fc
 80016ac:	08008328 	.word	0x08008328
 80016b0:	0800834c 	.word	0x0800834c
 80016b4:	08008364 	.word	0x08008364
 80016b8:	0800837c 	.word	0x0800837c
 80016bc:	08008390 	.word	0x08008390
 80016c0:	24003444 	.word	0x24003444
 80016c4:	240045b0 	.word	0x240045b0
 80016c8:	240055b0 	.word	0x240055b0
 80016cc:	2400116c 	.word	0x2400116c
 80016d0:	24000000 	.word	0x24000000
 80016d4:	3b9ac9ff 	.word	0x3b9ac9ff
 80016d8:	3c01      	subs	r4, #1
 80016da:	d007      	beq.n	80016ec <pi_compute+0x244>
 80016dc:	f853 2d04 	ldr.w	r2, [r3, #-4]!
 80016e0:	2a00      	cmp	r2, #0
 80016e2:	d0f9      	beq.n	80016d8 <pi_compute+0x230>
 80016e4:	f240 435a 	movw	r3, #1114	@ 0x45a
 80016e8:	429c      	cmp	r4, r3
 80016ea:	dc08      	bgt.n	80016fe <pi_compute+0x256>
 80016ec:	f240 425b 	movw	r2, #1115	@ 0x45b
 80016f0:	eb0e 0084 	add.w	r0, lr, r4, lsl #2
 80016f4:	2100      	movs	r1, #0
 80016f6:	1b12      	subs	r2, r2, r4
 80016f8:	0092      	lsls	r2, r2, #2
 80016fa:	f003 fb11 	bl	8004d20 <memset>
 80016fe:	49c4      	ldr	r1, [pc, #784]	@ (8001a10 <pi_compute+0x568>)
 8001700:	4643      	mov	r3, r8
 8001702:	2219      	movs	r2, #25
 8001704:	f8cd b000 	str.w	fp, [sp]
 8001708:	4608      	mov	r0, r1
 800170a:	f006 fd99 	bl	8008240 <__bn_div_word_top_rec_veneer>
 800170e:	4680      	mov	r8, r0
 8001710:	b140      	cbz	r0, 8001724 <pi_compute+0x27c>
 8001712:	3702      	adds	r7, #2
 8001714:	f109 0901 	add.w	r9, r9, #1
 8001718:	f14a 0a00 	adc.w	sl, sl, #0
 800171c:	f5b9 5fe1 	cmp.w	r9, #7200	@ 0x1c20
 8001720:	f47f af44 	bne.w	80015ac <pi_compute+0x104>
 8001724:	9d06      	ldr	r5, [sp, #24]
 8001726:	4cbb      	ldr	r4, [pc, #748]	@ (8001a14 <pi_compute+0x56c>)
 8001728:	9b05      	ldr	r3, [sp, #20]
 800172a:	6867      	ldr	r7, [r4, #4]
 800172c:	48ba      	ldr	r0, [pc, #744]	@ (8001a18 <pi_compute+0x570>)
 800172e:	1b7f      	subs	r7, r7, r5
 8001730:	fbb7 f7f3 	udiv	r7, r7, r3
 8001734:	f003 f9f4 	bl	8004b20 <puts>
 8001738:	f8d4 9004 	ldr.w	r9, [r4, #4]
 800173c:	f241 126c 	movw	r2, #4460	@ 0x116c
 8001740:	2100      	movs	r1, #0
 8001742:	48b6      	ldr	r0, [pc, #728]	@ (8001a1c <pi_compute+0x574>)
 8001744:	a5ac      	add	r5, pc, #688	@ (adr r5, 80019f8 <pi_compute+0x550>)
 8001746:	e9d5 4500 	ldrd	r4, r5, [r5]
 800174a:	e9cd 4508 	strd	r4, r5, [sp, #32]
 800174e:	f003 fae7 	bl	8004d20 <memset>
 8001752:	f241 126c 	movw	r2, #4460	@ 0x116c
 8001756:	2100      	movs	r1, #0
 8001758:	48b1      	ldr	r0, [pc, #708]	@ (8001a20 <pi_compute+0x578>)
 800175a:	f003 fae1 	bl	8004d20 <memset>
 800175e:	2301      	movs	r3, #1
 8001760:	4ab0      	ldr	r2, [pc, #704]	@ (8001a24 <pi_compute+0x57c>)
 8001762:	a90a      	add	r1, sp, #40	@ 0x28
 8001764:	20ef      	movs	r0, #239	@ 0xef
 8001766:	f8c2 3168 	str.w	r3, [r2, #360]	@ 0x168
 800176a:	a3a5      	add	r3, pc, #660	@ (adr r3, 8001a00 <pi_compute+0x558>)
 800176c:	e9d3 2300 	ldrd	r2, r3, [r3]
 8001770:	e9cd 230a 	strd	r2, r3, [sp, #40]	@ 0x28
 8001774:	f006 fd60 	bl	8008238 <__bn_div_word_top_rec.constprop.0_veneer>
 8001778:	4606      	mov	r6, r0
 800177a:	2800      	cmp	r0, #0
 800177c:	f000 81bb 	beq.w	8001af6 <pi_compute+0x64e>
 8001780:	0084      	lsls	r4, r0, #2
 8001782:	49a7      	ldr	r1, [pc, #668]	@ (8001a20 <pi_compute+0x578>)
 8001784:	48a2      	ldr	r0, [pc, #648]	@ (8001a10 <pi_compute+0x568>)
 8001786:	4622      	mov	r2, r4
 8001788:	f003 fb49 	bl	8004e1e <memcpy>
 800178c:	f240 435b 	movw	r3, #1115	@ 0x45b
 8001790:	429e      	cmp	r6, r3
 8001792:	d006      	beq.n	80017a2 <pi_compute+0x2fa>
 8001794:	4a9e      	ldr	r2, [pc, #632]	@ (8001a10 <pi_compute+0x568>)
 8001796:	1b9b      	subs	r3, r3, r6
 8001798:	2100      	movs	r1, #0
 800179a:	1910      	adds	r0, r2, r4
 800179c:	009a      	lsls	r2, r3, #2
 800179e:	f003 fabf 	bl	8004d20 <memset>
 80017a2:	f04f 0b00 	mov.w	fp, #0
 80017a6:	ab08      	add	r3, sp, #32
 80017a8:	2501      	movs	r5, #1
 80017aa:	46ca      	mov	sl, r9
 80017ac:	465c      	mov	r4, fp
 80017ae:	46d8      	mov	r8, fp
 80017b0:	9304      	str	r3, [sp, #16]
 80017b2:	9707      	str	r7, [sp, #28]
 80017b4:	462a      	mov	r2, r5
 80017b6:	465b      	mov	r3, fp
 80017b8:	f04f 30ff 	mov.w	r0, #4294967295
 80017bc:	f04f 31ff 	mov.w	r1, #4294967295
 80017c0:	f7ff fb92 	bl	8000ee8 <__aeabi_uldivmod>
 80017c4:	ab0a      	add	r3, sp, #40	@ 0x28
 80017c6:	462a      	mov	r2, r5
 80017c8:	9300      	str	r3, [sp, #0]
 80017ca:	4633      	mov	r3, r6
 80017cc:	e9cd 010a 	strd	r0, r1, [sp, #40]	@ 0x28
 80017d0:	498f      	ldr	r1, [pc, #572]	@ (8001a10 <pi_compute+0x568>)
 80017d2:	4895      	ldr	r0, [pc, #596]	@ (8001a28 <pi_compute+0x580>)
 80017d4:	f006 fd34 	bl	8008240 <__bn_div_word_top_rec_veneer>
 80017d8:	f018 0f01 	tst.w	r8, #1
 80017dc:	4603      	mov	r3, r0
 80017de:	f000 8153 	beq.w	8001a88 <pi_compute+0x5e0>
 80017e2:	2c00      	cmp	r4, #0
 80017e4:	f340 817d 	ble.w	8001ae2 <pi_compute+0x63a>
 80017e8:	2800      	cmp	r0, #0
 80017ea:	f340 816d 	ble.w	8001ac8 <pi_compute+0x620>
 80017ee:	42a0      	cmp	r0, r4
 80017f0:	f8df 9228 	ldr.w	r9, [pc, #552]	@ 8001a1c <pi_compute+0x574>
 80017f4:	f04f 0100 	mov.w	r1, #0
 80017f8:	4607      	mov	r7, r0
 80017fa:	46ce      	mov	lr, r9
 80017fc:	bfa8      	it	ge
 80017fe:	4627      	movge	r7, r4
 8001800:	4889      	ldr	r0, [pc, #548]	@ (8001a28 <pi_compute+0x580>)
 8001802:	468c      	mov	ip, r1
 8001804:	f8cd a018 	str.w	sl, [sp, #24]
 8001808:	f85e ab04 	ldr.w	sl, [lr], #4
 800180c:	f850 2b04 	ldr.w	r2, [r0], #4
 8001810:	ebba 0202 	subs.w	r2, sl, r2
 8001814:	eb6a 0a0a 	sbc.w	sl, sl, sl
 8001818:	1a52      	subs	r2, r2, r1
 800181a:	f04f 0100 	mov.w	r1, #0
 800181e:	f16a 0a00 	sbc.w	sl, sl, #0
 8001822:	458a      	cmp	sl, r1
 8001824:	da06      	bge.n	8001834 <pi_compute+0x38c>
 8001826:	f102 526e 	add.w	r2, r2, #998244352	@ 0x3b800000
 800182a:	2101      	movs	r1, #1
 800182c:	f502 12d6 	add.w	r2, r2, #1753088	@ 0x1ac000
 8001830:	f502 6220 	add.w	r2, r2, #2560	@ 0xa00
 8001834:	f10c 0c01 	add.w	ip, ip, #1
 8001838:	f84e 2c04 	str.w	r2, [lr, #-4]
 800183c:	45bc      	cmp	ip, r7
 800183e:	dbe3      	blt.n	8001808 <pi_compute+0x360>
 8001840:	42a3      	cmp	r3, r4
 8001842:	f8dd a018 	ldr.w	sl, [sp, #24]
 8001846:	da18      	bge.n	800187a <pi_compute+0x3d2>
 8001848:	f06f 4240 	mvn.w	r2, #3221225472	@ 0xc0000000
 800184c:	443a      	add	r2, r7
 800184e:	eb09 0282 	add.w	r2, r9, r2, lsl #2
 8001852:	f852 3f04 	ldr.w	r3, [r2, #4]!
 8001856:	4875      	ldr	r0, [pc, #468]	@ (8001a2c <pi_compute+0x584>)
 8001858:	1a5b      	subs	r3, r3, r1
 800185a:	f04f 0101 	mov.w	r1, #1
 800185e:	eb6c 0c0c 	sbc.w	ip, ip, ip
 8001862:	f1bc 3fff 	cmp.w	ip, #4294967295
 8001866:	bf08      	it	eq
 8001868:	f1b3 3fff 	cmpeq.w	r3, #4294967295
 800186c:	d001      	beq.n	8001872 <pi_compute+0x3ca>
 800186e:	4618      	mov	r0, r3
 8001870:	2100      	movs	r1, #0
 8001872:	3701      	adds	r7, #1
 8001874:	6010      	str	r0, [r2, #0]
 8001876:	42a7      	cmp	r7, r4
 8001878:	dbeb      	blt.n	8001852 <pi_compute+0x3aa>
 800187a:	eb09 0384 	add.w	r3, r9, r4, lsl #2
 800187e:	e001      	b.n	8001884 <pi_compute+0x3dc>
 8001880:	3c01      	subs	r4, #1
 8001882:	d007      	beq.n	8001894 <pi_compute+0x3ec>
 8001884:	f853 2d04 	ldr.w	r2, [r3, #-4]!
 8001888:	2a00      	cmp	r2, #0
 800188a:	d0f9      	beq.n	8001880 <pi_compute+0x3d8>
 800188c:	f240 435a 	movw	r3, #1114	@ 0x45a
 8001890:	429c      	cmp	r4, r3
 8001892:	dc08      	bgt.n	80018a6 <pi_compute+0x3fe>
 8001894:	f240 425b 	movw	r2, #1115	@ 0x45b
 8001898:	eb09 0084 	add.w	r0, r9, r4, lsl #2
 800189c:	2100      	movs	r1, #0
 800189e:	1b12      	subs	r2, r2, r4
 80018a0:	0092      	lsls	r2, r2, #2
 80018a2:	f003 fa3d 	bl	8004d20 <memset>
 80018a6:	9a04      	ldr	r2, [sp, #16]
 80018a8:	4633      	mov	r3, r6
 80018aa:	4959      	ldr	r1, [pc, #356]	@ (8001a10 <pi_compute+0x568>)
 80018ac:	9200      	str	r2, [sp, #0]
 80018ae:	f64d 7221 	movw	r2, #57121	@ 0xdf21
 80018b2:	4608      	mov	r0, r1
 80018b4:	f006 fcc4 	bl	8008240 <__bn_div_word_top_rec_veneer>
 80018b8:	4606      	mov	r6, r0
 80018ba:	b148      	cbz	r0, 80018d0 <pi_compute+0x428>
 80018bc:	3502      	adds	r5, #2
 80018be:	f108 0801 	add.w	r8, r8, #1
 80018c2:	f640 0398 	movw	r3, #2200	@ 0x898
 80018c6:	f14b 0b00 	adc.w	fp, fp, #0
 80018ca:	4598      	cmp	r8, r3
 80018cc:	f47f af72 	bne.w	80017b4 <pi_compute+0x30c>
 80018d0:	9f07      	ldr	r7, [sp, #28]
 80018d2:	46d1      	mov	r9, sl
 80018d4:	4c4f      	ldr	r4, [pc, #316]	@ (8001a14 <pi_compute+0x56c>)
 80018d6:	2610      	movs	r6, #16
 80018d8:	4855      	ldr	r0, [pc, #340]	@ (8001a30 <pi_compute+0x588>)
 80018da:	6863      	ldr	r3, [r4, #4]
 80018dc:	f8df b19c 	ldr.w	fp, [pc, #412]	@ 8001a7c <pi_compute+0x5d4>
 80018e0:	eba3 0909 	sub.w	r9, r3, r9
 80018e4:	9b05      	ldr	r3, [sp, #20]
 80018e6:	4d53      	ldr	r5, [pc, #332]	@ (8001a34 <pi_compute+0x58c>)
 80018e8:	fbb9 f9f3 	udiv	r9, r9, r3
 80018ec:	f003 f918 	bl	8004b20 <puts>
 80018f0:	2000      	movs	r0, #0
 80018f2:	6863      	ldr	r3, [r4, #4]
 80018f4:	465c      	mov	r4, fp
 80018f6:	4601      	mov	r1, r0
 80018f8:	9304      	str	r3, [sp, #16]
 80018fa:	f854 3f04 	ldr.w	r3, [r4, #4]!
 80018fe:	fbe3 0106 	umlal	r0, r1, r3, r6
 8001902:	a341      	add	r3, pc, #260	@ (adr r3, 8001a08 <pi_compute+0x560>)
 8001904:	e9d3 2300 	ldrd	r2, r3, [r3]
 8001908:	f7ff faee 	bl	8000ee8 <__aeabi_uldivmod>
 800190c:	42ac      	cmp	r4, r5
 800190e:	6022      	str	r2, [r4, #0]
 8001910:	d1f3      	bne.n	80018fa <pi_compute+0x452>
 8001912:	f8df a16c 	ldr.w	sl, [pc, #364]	@ 8001a80 <pi_compute+0x5d8>
 8001916:	2000      	movs	r0, #0
 8001918:	f8df 8168 	ldr.w	r8, [pc, #360]	@ 8001a84 <pi_compute+0x5dc>
 800191c:	2604      	movs	r6, #4
 800191e:	4654      	mov	r4, sl
 8001920:	4601      	mov	r1, r0
 8001922:	f854 3f04 	ldr.w	r3, [r4, #4]!
 8001926:	fbe3 0106 	umlal	r0, r1, r3, r6
 800192a:	a337      	add	r3, pc, #220	@ (adr r3, 8001a08 <pi_compute+0x560>)
 800192c:	e9d3 2300 	ldrd	r2, r3, [r3]
 8001930:	f7ff fada 	bl	8000ee8 <__aeabi_uldivmod>
 8001934:	45a0      	cmp	r8, r4
 8001936:	6022      	str	r2, [r4, #0]
 8001938:	d1f3      	bne.n	8001922 <pi_compute+0x47a>
 800193a:	483f      	ldr	r0, [pc, #252]	@ (8001a38 <pi_compute+0x590>)
 800193c:	2200      	movs	r2, #0
 800193e:	493f      	ldr	r1, [pc, #252]	@ (8001a3c <pi_compute+0x594>)
 8001940:	f85a 4f04 	ldr.w	r4, [sl, #4]!
 8001944:	f85b 3f04 	ldr.w	r3, [fp, #4]!
 8001948:	1b1b      	subs	r3, r3, r4
 800194a:	eb64 0404 	sbc.w	r4, r4, r4
 800194e:	1a9b      	subs	r3, r3, r2
 8001950:	f04f 0200 	mov.w	r2, #0
 8001954:	f164 0400 	sbc.w	r4, r4, #0
 8001958:	4294      	cmp	r4, r2
 800195a:	da01      	bge.n	8001960 <pi_compute+0x4b8>
 800195c:	440b      	add	r3, r1
 800195e:	2201      	movs	r2, #1
 8001960:	455d      	cmp	r5, fp
 8001962:	f840 3f04 	str.w	r3, [r0, #4]!
 8001966:	d1eb      	bne.n	8001940 <pi_compute+0x498>
 8001968:	4b2e      	ldr	r3, [pc, #184]	@ (8001a24 <pi_compute+0x57c>)
 800196a:	4c35      	ldr	r4, [pc, #212]	@ (8001a40 <pi_compute+0x598>)
 800196c:	f8d3 1168 	ldr.w	r1, [r3, #360]	@ 0x168
 8001970:	4b28      	ldr	r3, [pc, #160]	@ (8001a14 <pi_compute+0x56c>)
 8001972:	4d34      	ldr	r5, [pc, #208]	@ (8001a44 <pi_compute+0x59c>)
 8001974:	685e      	ldr	r6, [r3, #4]
 8001976:	9b04      	ldr	r3, [sp, #16]
 8001978:	4833      	ldr	r0, [pc, #204]	@ (8001a48 <pi_compute+0x5a0>)
 800197a:	1af6      	subs	r6, r6, r3
 800197c:	9b05      	ldr	r3, [sp, #20]
 800197e:	fbb6 f6f3 	udiv	r6, r6, r3
 8001982:	f003 f865 	bl	8004a50 <iprintf>
 8001986:	f854 1d04 	ldr.w	r1, [r4, #-4]!
 800198a:	4830      	ldr	r0, [pc, #192]	@ (8001a4c <pi_compute+0x5a4>)
 800198c:	f003 f860 	bl	8004a50 <iprintf>
 8001990:	42a5      	cmp	r5, r4
 8001992:	d1f8      	bne.n	8001986 <pi_compute+0x4de>
 8001994:	4b22      	ldr	r3, [pc, #136]	@ (8001a20 <pi_compute+0x578>)
 8001996:	2101      	movs	r1, #1
 8001998:	482d      	ldr	r0, [pc, #180]	@ (8001a50 <pi_compute+0x5a8>)
 800199a:	689a      	ldr	r2, [r3, #8]
 800199c:	4b2d      	ldr	r3, [pc, #180]	@ (8001a54 <pi_compute+0x5ac>)
 800199e:	fba3 3202 	umull	r3, r2, r3, r2
 80019a2:	0e52      	lsrs	r2, r2, #25
 80019a4:	f003 f854 	bl	8004a50 <iprintf>
 80019a8:	482b      	ldr	r0, [pc, #172]	@ (8001a58 <pi_compute+0x5b0>)
 80019aa:	f003 f8b9 	bl	8004b20 <puts>
 80019ae:	482b      	ldr	r0, [pc, #172]	@ (8001a5c <pi_compute+0x5b4>)
 80019b0:	f003 f8b6 	bl	8004b20 <puts>
 80019b4:	482a      	ldr	r0, [pc, #168]	@ (8001a60 <pi_compute+0x5b8>)
 80019b6:	f003 f8b3 	bl	8004b20 <puts>
 80019ba:	9903      	ldr	r1, [sp, #12]
 80019bc:	4829      	ldr	r0, [pc, #164]	@ (8001a64 <pi_compute+0x5bc>)
 80019be:	f003 f847 	bl	8004a50 <iprintf>
 80019c2:	4639      	mov	r1, r7
 80019c4:	4828      	ldr	r0, [pc, #160]	@ (8001a68 <pi_compute+0x5c0>)
 80019c6:	f003 f843 	bl	8004a50 <iprintf>
 80019ca:	4649      	mov	r1, r9
 80019cc:	4827      	ldr	r0, [pc, #156]	@ (8001a6c <pi_compute+0x5c4>)
 80019ce:	f003 f83f 	bl	8004a50 <iprintf>
 80019d2:	4631      	mov	r1, r6
 80019d4:	4826      	ldr	r0, [pc, #152]	@ (8001a70 <pi_compute+0x5c8>)
 80019d6:	f003 f83b 	bl	8004a50 <iprintf>
 80019da:	eb07 0109 	add.w	r1, r7, r9
 80019de:	4825      	ldr	r0, [pc, #148]	@ (8001a74 <pi_compute+0x5cc>)
 80019e0:	4431      	add	r1, r6
 80019e2:	f003 f835 	bl	8004a50 <iprintf>
 80019e6:	4824      	ldr	r0, [pc, #144]	@ (8001a78 <pi_compute+0x5d0>)
 80019e8:	b00d      	add	sp, #52	@ 0x34
 80019ea:	e8bd 4ff0 	ldmia.w	sp!, {r4, r5, r6, r7, r8, r9, sl, fp, lr}
 80019ee:	f003 b897 	b.w	8004b20 <puts>
 80019f2:	bf00      	nop
 80019f4:	f3af 8000 	nop.w
 80019f8:	b02883c3 	.word	0xb02883c3
 80019fc:	000125b6 	.word	0x000125b6
 8001a00:	75d30336 	.word	0x75d30336
 8001a04:	0112358e 	.word	0x0112358e
 8001a08:	3b9aca00 	.word	0x3b9aca00
 8001a0c:	00000000 	.word	0x00000000
 8001a10:	2400116c 	.word	0x2400116c
 8001a14:	e0001000 	.word	0xe0001000
 8001a18:	080083a4 	.word	0x080083a4
 8001a1c:	240022d8 	.word	0x240022d8
 8001a20:	240045b0 	.word	0x240045b0
 8001a24:	240055b0 	.word	0x240055b0
 8001a28:	24000000 	.word	0x24000000
 8001a2c:	3b9ac9ff 	.word	0x3b9ac9ff
 8001a30:	080083bc 	.word	0x080083bc
 8001a34:	240045ac 	.word	0x240045ac
 8001a38:	240045ac 	.word	0x240045ac
 8001a3c:	3b9aca00 	.word	0x3b9aca00
 8001a40:	24005718 	.word	0x24005718
 8001a44:	240045bc 	.word	0x240045bc
 8001a48:	080083d0 	.word	0x080083d0
 8001a4c:	080083dc 	.word	0x080083dc
 8001a50:	080083e4 	.word	0x080083e4
 8001a54:	55e63b89 	.word	0x55e63b89
 8001a58:	080083ec 	.word	0x080083ec
 8001a5c:	08008268 	.word	0x08008268
 8001a60:	080083f0 	.word	0x080083f0
 8001a64:	08008404 	.word	0x08008404
 8001a68:	08008428 	.word	0x08008428
 8001a6c:	0800844c 	.word	0x0800844c
 8001a70:	08008470 	.word	0x08008470
 8001a74:	08008494 	.word	0x08008494
 8001a78:	080084b8 	.word	0x080084b8
 8001a7c:	24003440 	.word	0x24003440
 8001a80:	240022d4 	.word	0x240022d4
 8001a84:	24003440 	.word	0x24003440
 8001a88:	491e      	ldr	r1, [pc, #120]	@ (8001b04 <pi_compute+0x65c>)
 8001a8a:	4622      	mov	r2, r4
 8001a8c:	4608      	mov	r0, r1
 8001a8e:	f006 fbcf 	bl	8008230 <__bn_add_top.constprop.0_veneer>
 8001a92:	9a04      	ldr	r2, [sp, #16]
 8001a94:	491c      	ldr	r1, [pc, #112]	@ (8001b08 <pi_compute+0x660>)
 8001a96:	4633      	mov	r3, r6
 8001a98:	9200      	str	r2, [sp, #0]
 8001a9a:	4604      	mov	r4, r0
 8001a9c:	f64d 7221 	movw	r2, #57121	@ 0xdf21
 8001aa0:	4608      	mov	r0, r1
 8001aa2:	f006 fbcd 	bl	8008240 <__bn_div_word_top_rec_veneer>
 8001aa6:	4606      	mov	r6, r0
 8001aa8:	2800      	cmp	r0, #0
 8001aaa:	f43f af11 	beq.w	80018d0 <pi_compute+0x428>
 8001aae:	3502      	adds	r5, #2
 8001ab0:	f108 0801 	add.w	r8, r8, #1
 8001ab4:	f14b 0b00 	adc.w	fp, fp, #0
 8001ab8:	e67c      	b.n	80017b4 <pi_compute+0x30c>
 8001aba:	4914      	ldr	r1, [pc, #80]	@ (8001b0c <pi_compute+0x664>)
 8001abc:	4622      	mov	r2, r4
 8001abe:	4608      	mov	r0, r1
 8001ac0:	f006 fbb6 	bl	8008230 <__bn_add_top.constprop.0_veneer>
 8001ac4:	4604      	mov	r4, r0
 8001ac6:	e61a      	b.n	80016fe <pi_compute+0x256>
 8001ac8:	2100      	movs	r1, #0
 8001aca:	f8df 9038 	ldr.w	r9, [pc, #56]	@ 8001b04 <pi_compute+0x65c>
 8001ace:	460f      	mov	r7, r1
 8001ad0:	e6ba      	b.n	8001848 <pi_compute+0x3a0>
 8001ad2:	2500      	movs	r5, #0
 8001ad4:	f8df e034 	ldr.w	lr, [pc, #52]	@ 8001b0c <pi_compute+0x664>
 8001ad8:	462a      	mov	r2, r5
 8001ada:	e5ad      	b.n	8001638 <pi_compute+0x190>
 8001adc:	f8df e02c 	ldr.w	lr, [pc, #44]	@ 8001b0c <pi_compute+0x664>
 8001ae0:	e604      	b.n	80016ec <pi_compute+0x244>
 8001ae2:	f8df 9020 	ldr.w	r9, [pc, #32]	@ 8001b04 <pi_compute+0x65c>
 8001ae6:	e6d5      	b.n	8001894 <pi_compute+0x3ec>
 8001ae8:	4601      	mov	r1, r0
 8001aea:	f241 126c 	movw	r2, #4460	@ 0x116c
 8001aee:	4806      	ldr	r0, [pc, #24]	@ (8001b08 <pi_compute+0x660>)
 8001af0:	f003 f916 	bl	8004d20 <memset>
 8001af4:	e617      	b.n	8001726 <pi_compute+0x27e>
 8001af6:	4601      	mov	r1, r0
 8001af8:	f241 126c 	movw	r2, #4460	@ 0x116c
 8001afc:	4802      	ldr	r0, [pc, #8]	@ (8001b08 <pi_compute+0x660>)
 8001afe:	f003 f90f 	bl	8004d20 <memset>
 8001b02:	e6e7      	b.n	80018d4 <pi_compute+0x42c>
 8001b04:	240022d8 	.word	0x240022d8
 8001b08:	2400116c 	.word	0x2400116c
 8001b0c:	24003444 	.word	0x24003444

08001b10 <HAL_InitTick>:
 8001b10:	4b0f      	ldr	r3, [pc, #60]	@ (8001b50 <HAL_InitTick+0x40>)
 8001b12:	781b      	ldrb	r3, [r3, #0]
 8001b14:	b90b      	cbnz	r3, 8001b1a <HAL_InitTick+0xa>
 8001b16:	2001      	movs	r0, #1
 8001b18:	4770      	bx	lr
 8001b1a:	b510      	push	{r4, lr}
 8001b1c:	4604      	mov	r4, r0
 8001b1e:	f44f 707a 	mov.w	r0, #1000	@ 0x3e8
 8001b22:	4a0c      	ldr	r2, [pc, #48]	@ (8001b54 <HAL_InitTick+0x44>)
 8001b24:	fbb0 f3f3 	udiv	r3, r0, r3
 8001b28:	6810      	ldr	r0, [r2, #0]
 8001b2a:	fbb0 f0f3 	udiv	r0, r0, r3
 8001b2e:	f000 f8bb 	bl	8001ca8 <HAL_SYSTICK_Config>
 8001b32:	2c0f      	cmp	r4, #15
 8001b34:	d800      	bhi.n	8001b38 <HAL_InitTick+0x28>
 8001b36:	b108      	cbz	r0, 8001b3c <HAL_InitTick+0x2c>
 8001b38:	2001      	movs	r0, #1
 8001b3a:	bd10      	pop	{r4, pc}
 8001b3c:	2200      	movs	r2, #0
 8001b3e:	4621      	mov	r1, r4
 8001b40:	f04f 30ff 	mov.w	r0, #4294967295
 8001b44:	f000 f876 	bl	8001c34 <HAL_NVIC_SetPriority>
 8001b48:	4b03      	ldr	r3, [pc, #12]	@ (8001b58 <HAL_InitTick+0x48>)
 8001b4a:	2000      	movs	r0, #0
 8001b4c:	601c      	str	r4, [r3, #0]
 8001b4e:	bd10      	pop	{r4, pc}
 8001b50:	20000000 	.word	0x20000000
 8001b54:	2000000c 	.word	0x2000000c
 8001b58:	20000004 	.word	0x20000004

08001b5c <HAL_Init>:
 8001b5c:	b510      	push	{r4, lr}
 8001b5e:	2003      	movs	r0, #3
 8001b60:	4c12      	ldr	r4, [pc, #72]	@ (8001bac <HAL_Init+0x50>)
 8001b62:	f000 f855 	bl	8001c10 <HAL_NVIC_SetPriorityGrouping>
 8001b66:	f000 fde3 	bl	8002730 <HAL_RCC_GetSysClockFreq>
 8001b6a:	4b11      	ldr	r3, [pc, #68]	@ (8001bb0 <HAL_Init+0x54>)
 8001b6c:	4911      	ldr	r1, [pc, #68]	@ (8001bb4 <HAL_Init+0x58>)
 8001b6e:	699a      	ldr	r2, [r3, #24]
 8001b70:	699b      	ldr	r3, [r3, #24]
 8001b72:	f3c2 2203 	ubfx	r2, r2, #8, #4
 8001b76:	f003 030f 	and.w	r3, r3, #15
 8001b7a:	5ca2      	ldrb	r2, [r4, r2]
 8001b7c:	5ce3      	ldrb	r3, [r4, r3]
 8001b7e:	f002 021f 	and.w	r2, r2, #31
 8001b82:	4c0d      	ldr	r4, [pc, #52]	@ (8001bb8 <HAL_Init+0x5c>)
 8001b84:	f003 031f 	and.w	r3, r3, #31
 8001b88:	40d0      	lsrs	r0, r2
 8001b8a:	fa20 f303 	lsr.w	r3, r0, r3
 8001b8e:	6020      	str	r0, [r4, #0]
 8001b90:	200f      	movs	r0, #15
 8001b92:	600b      	str	r3, [r1, #0]
 8001b94:	f7ff ffbc 	bl	8001b10 <HAL_InitTick>
 8001b98:	b110      	cbz	r0, 8001ba0 <HAL_Init+0x44>
 8001b9a:	2401      	movs	r4, #1
 8001b9c:	4620      	mov	r0, r4
 8001b9e:	bd10      	pop	{r4, pc}
 8001ba0:	4604      	mov	r4, r0
 8001ba2:	f000 fab1 	bl	8002108 <HAL_MspInit>
 8001ba6:	4620      	mov	r0, r4
 8001ba8:	bd10      	pop	{r4, pc}
 8001baa:	bf00      	nop
 8001bac:	080084e4 	.word	0x080084e4
 8001bb0:	58024400 	.word	0x58024400
 8001bb4:	20000008 	.word	0x20000008
 8001bb8:	2000000c 	.word	0x2000000c

08001bbc <HAL_IncTick>:
 8001bbc:	4a03      	ldr	r2, [pc, #12]	@ (8001bcc <HAL_IncTick+0x10>)
 8001bbe:	4b04      	ldr	r3, [pc, #16]	@ (8001bd0 <HAL_IncTick+0x14>)
 8001bc0:	6811      	ldr	r1, [r2, #0]
 8001bc2:	781b      	ldrb	r3, [r3, #0]
 8001bc4:	440b      	add	r3, r1
 8001bc6:	6013      	str	r3, [r2, #0]
 8001bc8:	4770      	bx	lr
 8001bca:	bf00      	nop
 8001bcc:	200001f4 	.word	0x200001f4
 8001bd0:	20000000 	.word	0x20000000

08001bd4 <HAL_GetTick>:
 8001bd4:	4b01      	ldr	r3, [pc, #4]	@ (8001bdc <HAL_GetTick+0x8>)
 8001bd6:	6818      	ldr	r0, [r3, #0]
 8001bd8:	4770      	bx	lr
 8001bda:	bf00      	nop
 8001bdc:	200001f4 	.word	0x200001f4

08001be0 <HAL_Delay>:
 8001be0:	b538      	push	{r3, r4, r5, lr}
 8001be2:	4604      	mov	r4, r0
 8001be4:	f7ff fff6 	bl	8001bd4 <HAL_GetTick>
 8001be8:	4605      	mov	r5, r0
 8001bea:	1c63      	adds	r3, r4, #1
 8001bec:	d002      	beq.n	8001bf4 <HAL_Delay+0x14>
 8001bee:	4b04      	ldr	r3, [pc, #16]	@ (8001c00 <HAL_Delay+0x20>)
 8001bf0:	781b      	ldrb	r3, [r3, #0]
 8001bf2:	441c      	add	r4, r3
 8001bf4:	f7ff ffee 	bl	8001bd4 <HAL_GetTick>
 8001bf8:	1b40      	subs	r0, r0, r5
 8001bfa:	42a0      	cmp	r0, r4
 8001bfc:	d3fa      	bcc.n	8001bf4 <HAL_Delay+0x14>
 8001bfe:	bd38      	pop	{r3, r4, r5, pc}
 8001c00:	20000000 	.word	0x20000000

08001c04 <HAL_GetREVID>:
 8001c04:	4b01      	ldr	r3, [pc, #4]	@ (8001c0c <HAL_GetREVID+0x8>)
 8001c06:	6818      	ldr	r0, [r3, #0]
 8001c08:	0c00      	lsrs	r0, r0, #16
 8001c0a:	4770      	bx	lr
 8001c0c:	5c001000 	.word	0x5c001000

08001c10 <HAL_NVIC_SetPriorityGrouping>:
 8001c10:	4906      	ldr	r1, [pc, #24]	@ (8001c2c <HAL_NVIC_SetPriorityGrouping+0x1c>)
 8001c12:	f64f 0cff 	movw	ip, #63743	@ 0xf8ff
 8001c16:	0200      	lsls	r0, r0, #8
 8001c18:	4b05      	ldr	r3, [pc, #20]	@ (8001c30 <HAL_NVIC_SetPriorityGrouping+0x20>)
 8001c1a:	68ca      	ldr	r2, [r1, #12]
 8001c1c:	f400 60e0 	and.w	r0, r0, #1792	@ 0x700
 8001c20:	ea02 020c 	and.w	r2, r2, ip
 8001c24:	4310      	orrs	r0, r2
 8001c26:	4303      	orrs	r3, r0
 8001c28:	60cb      	str	r3, [r1, #12]
 8001c2a:	4770      	bx	lr
 8001c2c:	e000ed00 	.word	0xe000ed00
 8001c30:	05fa0000 	.word	0x05fa0000

08001c34 <HAL_NVIC_SetPriority>:
 8001c34:	4b19      	ldr	r3, [pc, #100]	@ (8001c9c <HAL_NVIC_SetPriority+0x68>)
 8001c36:	68db      	ldr	r3, [r3, #12]
 8001c38:	f3c3 2302 	ubfx	r3, r3, #8, #3
 8001c3c:	b500      	push	{lr}
 8001c3e:	f1c3 0e07 	rsb	lr, r3, #7
 8001c42:	f103 0c04 	add.w	ip, r3, #4
 8001c46:	f1be 0f04 	cmp.w	lr, #4
 8001c4a:	bf28      	it	cs
 8001c4c:	f04f 0e04 	movcs.w	lr, #4
 8001c50:	f1bc 0f06 	cmp.w	ip, #6
 8001c54:	d919      	bls.n	8001c8a <HAL_NVIC_SetPriority+0x56>
 8001c56:	f1a3 0c03 	sub.w	ip, r3, #3
 8001c5a:	f04f 33ff 	mov.w	r3, #4294967295
 8001c5e:	fa03 f30c 	lsl.w	r3, r3, ip
 8001c62:	ea22 0203 	bic.w	r2, r2, r3
 8001c66:	f04f 33ff 	mov.w	r3, #4294967295
 8001c6a:	2800      	cmp	r0, #0
 8001c6c:	fa03 f30e 	lsl.w	r3, r3, lr
 8001c70:	ea21 0303 	bic.w	r3, r1, r3
 8001c74:	fa03 f30c 	lsl.w	r3, r3, ip
 8001c78:	ea43 0302 	orr.w	r3, r3, r2
 8001c7c:	ea4f 1303 	mov.w	r3, r3, lsl #4
 8001c80:	b2db      	uxtb	r3, r3
 8001c82:	db05      	blt.n	8001c90 <HAL_NVIC_SetPriority+0x5c>
 8001c84:	4a06      	ldr	r2, [pc, #24]	@ (8001ca0 <HAL_NVIC_SetPriority+0x6c>)
 8001c86:	5413      	strb	r3, [r2, r0]
 8001c88:	bd00      	pop	{pc}
 8001c8a:	2200      	movs	r2, #0
 8001c8c:	4694      	mov	ip, r2
 8001c8e:	e7ea      	b.n	8001c66 <HAL_NVIC_SetPriority+0x32>
 8001c90:	f000 000f 	and.w	r0, r0, #15
 8001c94:	4a03      	ldr	r2, [pc, #12]	@ (8001ca4 <HAL_NVIC_SetPriority+0x70>)
 8001c96:	5413      	strb	r3, [r2, r0]
 8001c98:	bd00      	pop	{pc}
 8001c9a:	bf00      	nop
 8001c9c:	e000ed00 	.word	0xe000ed00
 8001ca0:	e000e400 	.word	0xe000e400
 8001ca4:	e000ed14 	.word	0xe000ed14

08001ca8 <HAL_SYSTICK_Config>:
 8001ca8:	1e43      	subs	r3, r0, #1
 8001caa:	f1b3 7f80 	cmp.w	r3, #16777216	@ 0x1000000
 8001cae:	d301      	bcc.n	8001cb4 <HAL_SYSTICK_Config+0xc>
 8001cb0:	2001      	movs	r0, #1
 8001cb2:	4770      	bx	lr
 8001cb4:	f04f 22e0 	mov.w	r2, #3758153728	@ 0xe000e000
 8001cb8:	2000      	movs	r0, #0
 8001cba:	4905      	ldr	r1, [pc, #20]	@ (8001cd0 <HAL_SYSTICK_Config+0x28>)
 8001cbc:	f04f 0cf0 	mov.w	ip, #240	@ 0xf0
 8001cc0:	6153      	str	r3, [r2, #20]
 8001cc2:	2307      	movs	r3, #7
 8001cc4:	f881 c023 	strb.w	ip, [r1, #35]	@ 0x23
 8001cc8:	6190      	str	r0, [r2, #24]
 8001cca:	6113      	str	r3, [r2, #16]
 8001ccc:	4770      	bx	lr
 8001cce:	bf00      	nop
 8001cd0:	e000ed00 	.word	0xe000ed00

08001cd4 <HAL_GPIO_Init>:
 8001cd4:	680b      	ldr	r3, [r1, #0]
 8001cd6:	2b00      	cmp	r3, #0
 8001cd8:	f000 81da 	beq.w	8002090 <HAL_GPIO_Init+0x3bc>
 8001cdc:	4a7b      	ldr	r2, [pc, #492]	@ (8001ecc <HAL_GPIO_Init+0x1f8>)
 8001cde:	4290      	cmp	r0, r2
 8001ce0:	f04f 0200 	mov.w	r2, #0
 8001ce4:	e92d 4ff0 	stmdb	sp!, {r4, r5, r6, r7, r8, r9, sl, fp, lr}
 8001ce8:	f04f 0901 	mov.w	r9, #1
 8001cec:	b085      	sub	sp, #20
 8001cee:	f000 80ea 	beq.w	8001ec6 <HAL_GPIO_Init+0x1f2>
 8001cf2:	f04f 48b0 	mov.w	r8, #1476395008	@ 0x58000000
 8001cf6:	9301      	str	r3, [sp, #4]
 8001cf8:	e03c      	b.n	8001d74 <HAL_GPIO_Init+0xa0>
 8001cfa:	f8d0 b008 	ldr.w	fp, [r0, #8]
 8001cfe:	2f02      	cmp	r7, #2
 8001d00:	68cb      	ldr	r3, [r1, #12]
 8001d02:	ea0b 0b05 	and.w	fp, fp, r5
 8001d06:	fa03 fa0c 	lsl.w	sl, r3, ip
 8001d0a:	ea4a 0a0b 	orr.w	sl, sl, fp
 8001d0e:	f8c0 a008 	str.w	sl, [r0, #8]
 8001d12:	ea4f 1a16 	mov.w	sl, r6, lsr #4
 8001d16:	f8d0 b004 	ldr.w	fp, [r0, #4]
 8001d1a:	fa0a fa02 	lsl.w	sl, sl, r2
 8001d1e:	ea2b 0404 	bic.w	r4, fp, r4
 8001d22:	ea4a 0404 	orr.w	r4, sl, r4
 8001d26:	6044      	str	r4, [r0, #4]
 8001d28:	68c4      	ldr	r4, [r0, #12]
 8001d2a:	ea04 0405 	and.w	r4, r4, r5
 8001d2e:	ea44 040e 	orr.w	r4, r4, lr
 8001d32:	60c4      	str	r4, [r0, #12]
 8001d34:	f040 81cf 	bne.w	80020d6 <HAL_GPIO_Init+0x402>
 8001d38:	fa07 f70c 	lsl.w	r7, r7, ip
 8001d3c:	f002 0407 	and.w	r4, r2, #7
 8001d40:	ea4f 0cd2 	mov.w	ip, r2, lsr #3
 8001d44:	690e      	ldr	r6, [r1, #16]
 8001d46:	00a4      	lsls	r4, r4, #2
 8001d48:	230f      	movs	r3, #15
 8001d4a:	eb00 0c8c 	add.w	ip, r0, ip, lsl #2
 8001d4e:	40a6      	lsls	r6, r4
 8001d50:	fa03 f404 	lsl.w	r4, r3, r4
 8001d54:	f8dc e020 	ldr.w	lr, [ip, #32]
 8001d58:	ea2e 0404 	bic.w	r4, lr, r4
 8001d5c:	4326      	orrs	r6, r4
 8001d5e:	f8cc 6020 	str.w	r6, [ip, #32]
 8001d62:	6804      	ldr	r4, [r0, #0]
 8001d64:	402c      	ands	r4, r5
 8001d66:	4327      	orrs	r7, r4
 8001d68:	6007      	str	r7, [r0, #0]
 8001d6a:	3201      	adds	r2, #1
 8001d6c:	9b01      	ldr	r3, [sp, #4]
 8001d6e:	fa33 f402 	lsrs.w	r4, r3, r2
 8001d72:	d074      	beq.n	8001e5e <HAL_GPIO_Init+0x18a>
 8001d74:	fa09 f402 	lsl.w	r4, r9, r2
 8001d78:	9b01      	ldr	r3, [sp, #4]
 8001d7a:	ea14 0a03 	ands.w	sl, r4, r3
 8001d7e:	d0f4      	beq.n	8001d6a <HAL_GPIO_Init+0x96>
 8001d80:	684e      	ldr	r6, [r1, #4]
 8001d82:	ea4f 0c42 	mov.w	ip, r2, lsl #1
 8001d86:	688d      	ldr	r5, [r1, #8]
 8001d88:	2303      	movs	r3, #3
 8001d8a:	f026 0710 	bic.w	r7, r6, #16
 8001d8e:	fa05 fe0c 	lsl.w	lr, r5, ip
 8001d92:	fa03 f50c 	lsl.w	r5, r3, ip
 8001d96:	f107 3bff 	add.w	fp, r7, #4294967295
 8001d9a:	43ed      	mvns	r5, r5
 8001d9c:	f1bb 0f01 	cmp.w	fp, #1
 8001da0:	d9ab      	bls.n	8001cfa <HAL_GPIO_Init+0x26>
 8001da2:	68c4      	ldr	r4, [r0, #12]
 8001da4:	00f3      	lsls	r3, r6, #3
 8001da6:	ea04 0405 	and.w	r4, r4, r5
 8001daa:	ea44 040e 	orr.w	r4, r4, lr
 8001dae:	60c4      	str	r4, [r0, #12]
 8001db0:	f006 0403 	and.w	r4, r6, #3
 8001db4:	6807      	ldr	r7, [r0, #0]
 8001db6:	fa04 f40c 	lsl.w	r4, r4, ip
 8001dba:	ea05 0507 	and.w	r5, r5, r7
 8001dbe:	ea44 0405 	orr.w	r4, r4, r5
 8001dc2:	6004      	str	r4, [r0, #0]
 8001dc4:	d5d1      	bpl.n	8001d6a <HAL_GPIO_Init+0x96>
 8001dc6:	4d42      	ldr	r5, [pc, #264]	@ (8001ed0 <HAL_GPIO_Init+0x1fc>)
 8001dc8:	f022 0703 	bic.w	r7, r2, #3
 8001dcc:	230f      	movs	r3, #15
 8001dce:	f8d5 40f4 	ldr.w	r4, [r5, #244]	@ 0xf4
 8001dd2:	f107 47b0 	add.w	r7, r7, #1476395008	@ 0x58000000
 8001dd6:	f044 0402 	orr.w	r4, r4, #2
 8001dda:	f507 6780 	add.w	r7, r7, #1024	@ 0x400
 8001dde:	f8c5 40f4 	str.w	r4, [r5, #244]	@ 0xf4
 8001de2:	f8d5 40f4 	ldr.w	r4, [r5, #244]	@ 0xf4
 8001de6:	f002 0503 	and.w	r5, r2, #3
 8001dea:	00ad      	lsls	r5, r5, #2
 8001dec:	f004 0402 	and.w	r4, r4, #2
 8001df0:	fa03 fc05 	lsl.w	ip, r3, r5
 8001df4:	4b37      	ldr	r3, [pc, #220]	@ (8001ed4 <HAL_GPIO_Init+0x200>)
 8001df6:	9403      	str	r4, [sp, #12]
 8001df8:	9c03      	ldr	r4, [sp, #12]
 8001dfa:	4298      	cmp	r0, r3
 8001dfc:	68bc      	ldr	r4, [r7, #8]
 8001dfe:	ea24 040c 	bic.w	r4, r4, ip
 8001e02:	d05c      	beq.n	8001ebe <HAL_GPIO_Init+0x1ea>
 8001e04:	4b34      	ldr	r3, [pc, #208]	@ (8001ed8 <HAL_GPIO_Init+0x204>)
 8001e06:	4298      	cmp	r0, r3
 8001e08:	d02c      	beq.n	8001e64 <HAL_GPIO_Init+0x190>
 8001e0a:	f8df c0d0 	ldr.w	ip, [pc, #208]	@ 8001edc <HAL_GPIO_Init+0x208>
 8001e0e:	4560      	cmp	r0, ip
 8001e10:	f000 8139 	beq.w	8002086 <HAL_GPIO_Init+0x3b2>
 8001e14:	f8df c0c8 	ldr.w	ip, [pc, #200]	@ 8001ee0 <HAL_GPIO_Init+0x20c>
 8001e18:	4560      	cmp	r0, ip
 8001e1a:	f000 813a 	beq.w	8002092 <HAL_GPIO_Init+0x3be>
 8001e1e:	f8df c0c4 	ldr.w	ip, [pc, #196]	@ 8001ee4 <HAL_GPIO_Init+0x210>
 8001e22:	4560      	cmp	r0, ip
 8001e24:	f000 8129 	beq.w	800207a <HAL_GPIO_Init+0x3a6>
 8001e28:	f8df c0bc 	ldr.w	ip, [pc, #188]	@ 8001ee8 <HAL_GPIO_Init+0x214>
 8001e2c:	4560      	cmp	r0, ip
 8001e2e:	f000 8136 	beq.w	800209e <HAL_GPIO_Init+0x3ca>
 8001e32:	f8df c0b8 	ldr.w	ip, [pc, #184]	@ 8001eec <HAL_GPIO_Init+0x218>
 8001e36:	4560      	cmp	r0, ip
 8001e38:	f000 8137 	beq.w	80020aa <HAL_GPIO_Init+0x3d6>
 8001e3c:	f8df c0b0 	ldr.w	ip, [pc, #176]	@ 8001ef0 <HAL_GPIO_Init+0x21c>
 8001e40:	4560      	cmp	r0, ip
 8001e42:	f000 8138 	beq.w	80020b6 <HAL_GPIO_Init+0x3e2>
 8001e46:	f8df c0ac 	ldr.w	ip, [pc, #172]	@ 8001ef4 <HAL_GPIO_Init+0x220>
 8001e4a:	4560      	cmp	r0, ip
 8001e4c:	bf0c      	ite	eq
 8001e4e:	f04f 0c09 	moveq.w	ip, #9
 8001e52:	f04f 0c0a 	movne.w	ip, #10
 8001e56:	fa0c f505 	lsl.w	r5, ip, r5
 8001e5a:	432c      	orrs	r4, r5
 8001e5c:	e007      	b.n	8001e6e <HAL_GPIO_Init+0x19a>
 8001e5e:	b005      	add	sp, #20
 8001e60:	e8bd 8ff0 	ldmia.w	sp!, {r4, r5, r6, r7, r8, r9, sl, fp, pc}
 8001e64:	f04f 0c02 	mov.w	ip, #2
 8001e68:	fa0c f505 	lsl.w	r5, ip, r5
 8001e6c:	432c      	orrs	r4, r5
 8001e6e:	60bc      	str	r4, [r7, #8]
 8001e70:	ea6f 050a 	mvn.w	r5, sl
 8001e74:	f8d8 4080 	ldr.w	r4, [r8, #128]	@ 0x80
 8001e78:	03f7      	lsls	r7, r6, #15
 8001e7a:	bf54      	ite	pl
 8001e7c:	402c      	andpl	r4, r5
 8001e7e:	ea4a 0404 	orrmi.w	r4, sl, r4
 8001e82:	03b3      	lsls	r3, r6, #14
 8001e84:	f8c8 4080 	str.w	r4, [r8, #128]	@ 0x80
 8001e88:	f8d8 4084 	ldr.w	r4, [r8, #132]	@ 0x84
 8001e8c:	bf54      	ite	pl
 8001e8e:	402c      	andpl	r4, r5
 8001e90:	ea4a 0404 	orrmi.w	r4, sl, r4
 8001e94:	02f7      	lsls	r7, r6, #11
 8001e96:	f8c8 4084 	str.w	r4, [r8, #132]	@ 0x84
 8001e9a:	f8d8 4000 	ldr.w	r4, [r8]
 8001e9e:	bf54      	ite	pl
 8001ea0:	402c      	andpl	r4, r5
 8001ea2:	ea4a 0404 	orrmi.w	r4, sl, r4
 8001ea6:	02b6      	lsls	r6, r6, #10
 8001ea8:	f8c8 4000 	str.w	r4, [r8]
 8001eac:	f8d8 4004 	ldr.w	r4, [r8, #4]
 8001eb0:	bf54      	ite	pl
 8001eb2:	402c      	andpl	r4, r5
 8001eb4:	ea4a 0404 	orrmi.w	r4, sl, r4
 8001eb8:	f8c8 4004 	str.w	r4, [r8, #4]
 8001ebc:	e755      	b.n	8001d6a <HAL_GPIO_Init+0x96>
 8001ebe:	fa09 f505 	lsl.w	r5, r9, r5
 8001ec2:	432c      	orrs	r4, r5
 8001ec4:	e7d3      	b.n	8001e6e <HAL_GPIO_Init+0x19a>
 8001ec6:	f04f 47b0 	mov.w	r7, #1476395008	@ 0x58000000
 8001eca:	e056      	b.n	8001f7a <HAL_GPIO_Init+0x2a6>
 8001ecc:	58020000 	.word	0x58020000
 8001ed0:	58024400 	.word	0x58024400
 8001ed4:	58020400 	.word	0x58020400
 8001ed8:	58020800 	.word	0x58020800
 8001edc:	58020c00 	.word	0x58020c00
 8001ee0:	58021000 	.word	0x58021000
 8001ee4:	58021400 	.word	0x58021400
 8001ee8:	58021800 	.word	0x58021800
 8001eec:	58021c00 	.word	0x58021c00
 8001ef0:	58022000 	.word	0x58022000
 8001ef4:	58022400 	.word	0x58022400
 8001ef8:	f8d0 b008 	ldr.w	fp, [r0, #8]
 8001efc:	f1bc 0f02 	cmp.w	ip, #2
 8001f00:	ea05 0b0b 	and.w	fp, r5, fp
 8001f04:	68cd      	ldr	r5, [r1, #12]
 8001f06:	fa05 f80e 	lsl.w	r8, r5, lr
 8001f0a:	9d01      	ldr	r5, [sp, #4]
 8001f0c:	ea48 080b 	orr.w	r8, r8, fp
 8001f10:	f8c0 8008 	str.w	r8, [r0, #8]
 8001f14:	ea4f 1816 	mov.w	r8, r6, lsr #4
 8001f18:	f8d0 b004 	ldr.w	fp, [r0, #4]
 8001f1c:	fa08 f802 	lsl.w	r8, r8, r2
 8001f20:	ea2b 0404 	bic.w	r4, fp, r4
 8001f24:	ea48 0404 	orr.w	r4, r8, r4
 8001f28:	6044      	str	r4, [r0, #4]
 8001f2a:	68c4      	ldr	r4, [r0, #12]
 8001f2c:	ea04 0405 	and.w	r4, r4, r5
 8001f30:	ea4a 0404 	orr.w	r4, sl, r4
 8001f34:	60c4      	str	r4, [r0, #12]
 8001f36:	f040 80c4 	bne.w	80020c2 <HAL_GPIO_Init+0x3ee>
 8001f3a:	fa0c fc0e 	lsl.w	ip, ip, lr
 8001f3e:	f002 0407 	and.w	r4, r2, #7
 8001f42:	ea4f 0ed2 	mov.w	lr, r2, lsr #3
 8001f46:	690e      	ldr	r6, [r1, #16]
 8001f48:	00a4      	lsls	r4, r4, #2
 8001f4a:	250f      	movs	r5, #15
 8001f4c:	eb00 0e8e 	add.w	lr, r0, lr, lsl #2
 8001f50:	40a6      	lsls	r6, r4
 8001f52:	fa05 f404 	lsl.w	r4, r5, r4
 8001f56:	f8de 8020 	ldr.w	r8, [lr, #32]
 8001f5a:	9d01      	ldr	r5, [sp, #4]
 8001f5c:	ea28 0404 	bic.w	r4, r8, r4
 8001f60:	4326      	orrs	r6, r4
 8001f62:	f8ce 6020 	str.w	r6, [lr, #32]
 8001f66:	6804      	ldr	r4, [r0, #0]
 8001f68:	402c      	ands	r4, r5
 8001f6a:	ea4c 0404 	orr.w	r4, ip, r4
 8001f6e:	6004      	str	r4, [r0, #0]
 8001f70:	3201      	adds	r2, #1
 8001f72:	fa33 f402 	lsrs.w	r4, r3, r2
 8001f76:	f43f af72 	beq.w	8001e5e <HAL_GPIO_Init+0x18a>
 8001f7a:	fa09 f402 	lsl.w	r4, r9, r2
 8001f7e:	ea13 0804 	ands.w	r8, r3, r4
 8001f82:	d0f5      	beq.n	8001f70 <HAL_GPIO_Init+0x29c>
 8001f84:	ea4f 0e42 	mov.w	lr, r2, lsl #1
 8001f88:	688d      	ldr	r5, [r1, #8]
 8001f8a:	684e      	ldr	r6, [r1, #4]
 8001f8c:	fa05 fa0e 	lsl.w	sl, r5, lr
 8001f90:	2503      	movs	r5, #3
 8001f92:	f026 0c10 	bic.w	ip, r6, #16
 8001f96:	fa05 f50e 	lsl.w	r5, r5, lr
 8001f9a:	f10c 3bff 	add.w	fp, ip, #4294967295
 8001f9e:	43ed      	mvns	r5, r5
 8001fa0:	f1bb 0f01 	cmp.w	fp, #1
 8001fa4:	9501      	str	r5, [sp, #4]
 8001fa6:	d9a7      	bls.n	8001ef8 <HAL_GPIO_Init+0x224>
 8001fa8:	68c4      	ldr	r4, [r0, #12]
 8001faa:	402c      	ands	r4, r5
 8001fac:	ea44 040a 	orr.w	r4, r4, sl
 8001fb0:	60c4      	str	r4, [r0, #12]
 8001fb2:	f006 0403 	and.w	r4, r6, #3
 8001fb6:	f8d0 c000 	ldr.w	ip, [r0]
 8001fba:	fa04 f40e 	lsl.w	r4, r4, lr
 8001fbe:	ea0c 0505 	and.w	r5, ip, r5
 8001fc2:	432c      	orrs	r4, r5
 8001fc4:	6004      	str	r4, [r0, #0]
 8001fc6:	00f4      	lsls	r4, r6, #3
 8001fc8:	d5d2      	bpl.n	8001f70 <HAL_GPIO_Init+0x29c>
 8001fca:	4d47      	ldr	r5, [pc, #284]	@ (80020e8 <HAL_GPIO_Init+0x414>)
 8001fcc:	f04f 0c0f 	mov.w	ip, #15
 8001fd0:	f416 3f80 	tst.w	r6, #65536	@ 0x10000
 8001fd4:	f8d5 40f4 	ldr.w	r4, [r5, #244]	@ 0xf4
 8001fd8:	f044 0402 	orr.w	r4, r4, #2
 8001fdc:	f8c5 40f4 	str.w	r4, [r5, #244]	@ 0xf4
 8001fe0:	f8d5 40f4 	ldr.w	r4, [r5, #244]	@ 0xf4
 8001fe4:	f022 0503 	bic.w	r5, r2, #3
 8001fe8:	f004 0402 	and.w	r4, r4, #2
 8001fec:	f105 45b0 	add.w	r5, r5, #1476395008	@ 0x58000000
 8001ff0:	9403      	str	r4, [sp, #12]
 8001ff2:	f505 6580 	add.w	r5, r5, #1024	@ 0x400
 8001ff6:	9c03      	ldr	r4, [sp, #12]
 8001ff8:	f002 0403 	and.w	r4, r2, #3
 8001ffc:	ea4f 0484 	mov.w	r4, r4, lsl #2
 8002000:	fa0c f404 	lsl.w	r4, ip, r4
 8002004:	f8d5 c008 	ldr.w	ip, [r5, #8]
 8002008:	ea2c 0404 	bic.w	r4, ip, r4
 800200c:	60ac      	str	r4, [r5, #8]
 800200e:	ea6f 0508 	mvn.w	r5, r8
 8002012:	f8d7 4080 	ldr.w	r4, [r7, #128]	@ 0x80
 8002016:	d116      	bne.n	8002046 <HAL_GPIO_Init+0x372>
 8002018:	402c      	ands	r4, r5
 800201a:	f416 3f00 	tst.w	r6, #131072	@ 0x20000
 800201e:	f8c7 4080 	str.w	r4, [r7, #128]	@ 0x80
 8002022:	f8d7 4084 	ldr.w	r4, [r7, #132]	@ 0x84
 8002026:	d117      	bne.n	8002058 <HAL_GPIO_Init+0x384>
 8002028:	402c      	ands	r4, r5
 800202a:	f416 1f80 	tst.w	r6, #1048576	@ 0x100000
 800202e:	f8c7 4084 	str.w	r4, [r7, #132]	@ 0x84
 8002032:	683c      	ldr	r4, [r7, #0]
 8002034:	d118      	bne.n	8002068 <HAL_GPIO_Init+0x394>
 8002036:	402c      	ands	r4, r5
 8002038:	02b6      	lsls	r6, r6, #10
 800203a:	603c      	str	r4, [r7, #0]
 800203c:	687c      	ldr	r4, [r7, #4]
 800203e:	d419      	bmi.n	8002074 <HAL_GPIO_Init+0x3a0>
 8002040:	402c      	ands	r4, r5
 8002042:	607c      	str	r4, [r7, #4]
 8002044:	e794      	b.n	8001f70 <HAL_GPIO_Init+0x29c>
 8002046:	ea44 0408 	orr.w	r4, r4, r8
 800204a:	f416 3f00 	tst.w	r6, #131072	@ 0x20000
 800204e:	f8c7 4080 	str.w	r4, [r7, #128]	@ 0x80
 8002052:	f8d7 4084 	ldr.w	r4, [r7, #132]	@ 0x84
 8002056:	d0e7      	beq.n	8002028 <HAL_GPIO_Init+0x354>
 8002058:	ea44 0408 	orr.w	r4, r4, r8
 800205c:	f416 1f80 	tst.w	r6, #1048576	@ 0x100000
 8002060:	f8c7 4084 	str.w	r4, [r7, #132]	@ 0x84
 8002064:	683c      	ldr	r4, [r7, #0]
 8002066:	d0e6      	beq.n	8002036 <HAL_GPIO_Init+0x362>
 8002068:	ea44 0408 	orr.w	r4, r4, r8
 800206c:	02b6      	lsls	r6, r6, #10
 800206e:	603c      	str	r4, [r7, #0]
 8002070:	687c      	ldr	r4, [r7, #4]
 8002072:	d5e5      	bpl.n	8002040 <HAL_GPIO_Init+0x36c>
 8002074:	ea48 0404 	orr.w	r4, r8, r4
 8002078:	e7e3      	b.n	8002042 <HAL_GPIO_Init+0x36e>
 800207a:	f04f 0c05 	mov.w	ip, #5
 800207e:	fa0c f505 	lsl.w	r5, ip, r5
 8002082:	432c      	orrs	r4, r5
 8002084:	e6f3      	b.n	8001e6e <HAL_GPIO_Init+0x19a>
 8002086:	2303      	movs	r3, #3
 8002088:	fa03 f505 	lsl.w	r5, r3, r5
 800208c:	432c      	orrs	r4, r5
 800208e:	e6ee      	b.n	8001e6e <HAL_GPIO_Init+0x19a>
 8002090:	4770      	bx	lr
 8002092:	f04f 0c04 	mov.w	ip, #4
 8002096:	fa0c f505 	lsl.w	r5, ip, r5
 800209a:	432c      	orrs	r4, r5
 800209c:	e6e7      	b.n	8001e6e <HAL_GPIO_Init+0x19a>
 800209e:	f04f 0c06 	mov.w	ip, #6
 80020a2:	fa0c f505 	lsl.w	r5, ip, r5
 80020a6:	432c      	orrs	r4, r5
 80020a8:	e6e1      	b.n	8001e6e <HAL_GPIO_Init+0x19a>
 80020aa:	f04f 0c07 	mov.w	ip, #7
 80020ae:	fa0c f505 	lsl.w	r5, ip, r5
 80020b2:	432c      	orrs	r4, r5
 80020b4:	e6db      	b.n	8001e6e <HAL_GPIO_Init+0x19a>
 80020b6:	f04f 0c08 	mov.w	ip, #8
 80020ba:	fa0c f505 	lsl.w	r5, ip, r5
 80020be:	432c      	orrs	r4, r5
 80020c0:	e6d5      	b.n	8001e6e <HAL_GPIO_Init+0x19a>
 80020c2:	f006 0403 	and.w	r4, r6, #3
 80020c6:	9d01      	ldr	r5, [sp, #4]
 80020c8:	6806      	ldr	r6, [r0, #0]
 80020ca:	fa04 f40e 	lsl.w	r4, r4, lr
 80020ce:	4035      	ands	r5, r6
 80020d0:	432c      	orrs	r4, r5
 80020d2:	6004      	str	r4, [r0, #0]
 80020d4:	e74c      	b.n	8001f70 <HAL_GPIO_Init+0x29c>
 80020d6:	f006 0403 	and.w	r4, r6, #3
 80020da:	6806      	ldr	r6, [r0, #0]
 80020dc:	fa04 f40c 	lsl.w	r4, r4, ip
 80020e0:	4035      	ands	r5, r6
 80020e2:	432c      	orrs	r4, r5
 80020e4:	6004      	str	r4, [r0, #0]
 80020e6:	e640      	b.n	8001d6a <HAL_GPIO_Init+0x96>
 80020e8:	58024400 	.word	0x58024400

080020ec <HAL_GPIO_WritePin>:
 80020ec:	b902      	cbnz	r2, 80020f0 <HAL_GPIO_WritePin+0x4>
 80020ee:	0409      	lsls	r1, r1, #16
 80020f0:	6181      	str	r1, [r0, #24]
 80020f2:	4770      	bx	lr

080020f4 <HAL_GPIO_TogglePin>:
 80020f4:	6943      	ldr	r3, [r0, #20]
 80020f6:	ea01 0203 	and.w	r2, r1, r3
 80020fa:	ea21 0103 	bic.w	r1, r1, r3
 80020fe:	ea41 4102 	orr.w	r1, r1, r2, lsl #16
 8002102:	6181      	str	r1, [r0, #24]
 8002104:	4770      	bx	lr
 8002106:	bf00      	nop

08002108 <HAL_MspInit>:
 8002108:	4b07      	ldr	r3, [pc, #28]	@ (8002128 <HAL_MspInit+0x20>)
 800210a:	b082      	sub	sp, #8
 800210c:	f8d3 20f4 	ldr.w	r2, [r3, #244]	@ 0xf4
 8002110:	f042 0202 	orr.w	r2, r2, #2
 8002114:	f8c3 20f4 	str.w	r2, [r3, #244]	@ 0xf4
 8002118:	f8d3 30f4 	ldr.w	r3, [r3, #244]	@ 0xf4
 800211c:	f003 0302 	and.w	r3, r3, #2
 8002120:	9301      	str	r3, [sp, #4]
 8002122:	9b01      	ldr	r3, [sp, #4]
 8002124:	b002      	add	sp, #8
 8002126:	4770      	bx	lr
 8002128:	58024400 	.word	0x58024400

0800212c <HAL_PWREx_ConfigSupply>:
 800212c:	b538      	push	{r3, r4, r5, lr}
 800212e:	4c10      	ldr	r4, [pc, #64]	@ (8002170 <HAL_PWREx_ConfigSupply+0x44>)
 8002130:	68e3      	ldr	r3, [r4, #12]
 8002132:	f013 0f04 	tst.w	r3, #4
 8002136:	68e3      	ldr	r3, [r4, #12]
 8002138:	d105      	bne.n	8002146 <HAL_PWREx_ConfigSupply+0x1a>
 800213a:	f003 0307 	and.w	r3, r3, #7
 800213e:	1a18      	subs	r0, r3, r0
 8002140:	bf18      	it	ne
 8002142:	2001      	movne	r0, #1
 8002144:	bd38      	pop	{r3, r4, r5, pc}
 8002146:	f023 0307 	bic.w	r3, r3, #7
 800214a:	4303      	orrs	r3, r0
 800214c:	60e3      	str	r3, [r4, #12]
 800214e:	f7ff fd41 	bl	8001bd4 <HAL_GetTick>
 8002152:	4605      	mov	r5, r0
 8002154:	e005      	b.n	8002162 <HAL_PWREx_ConfigSupply+0x36>
 8002156:	f7ff fd3d 	bl	8001bd4 <HAL_GetTick>
 800215a:	1b40      	subs	r0, r0, r5
 800215c:	f5b0 7f7a 	cmp.w	r0, #1000	@ 0x3e8
 8002160:	d804      	bhi.n	800216c <HAL_PWREx_ConfigSupply+0x40>
 8002162:	6863      	ldr	r3, [r4, #4]
 8002164:	049b      	lsls	r3, r3, #18
 8002166:	d5f6      	bpl.n	8002156 <HAL_PWREx_ConfigSupply+0x2a>
 8002168:	2000      	movs	r0, #0
 800216a:	bd38      	pop	{r3, r4, r5, pc}
 800216c:	2001      	movs	r0, #1
 800216e:	bd38      	pop	{r3, r4, r5, pc}
 8002170:	58024800 	.word	0x58024800

08002174 <HAL_RCC_OscConfig>:
 8002174:	2800      	cmp	r0, #0
 8002176:	f000 81e6 	beq.w	8002546 <HAL_RCC_OscConfig+0x3d2>
 800217a:	b5f8      	push	{r3, r4, r5, r6, r7, lr}
 800217c:	6803      	ldr	r3, [r0, #0]
 800217e:	4604      	mov	r4, r0
 8002180:	07d9      	lsls	r1, r3, #31
 8002182:	d52e      	bpl.n	80021e2 <HAL_RCC_OscConfig+0x6e>
 8002184:	499f      	ldr	r1, [pc, #636]	@ (8002404 <HAL_RCC_OscConfig+0x290>)
 8002186:	690a      	ldr	r2, [r1, #16]
 8002188:	6a89      	ldr	r1, [r1, #40]	@ 0x28
 800218a:	f002 0238 	and.w	r2, r2, #56	@ 0x38
 800218e:	2a10      	cmp	r2, #16
 8002190:	f000 8125 	beq.w	80023de <HAL_RCC_OscConfig+0x26a>
 8002194:	2a18      	cmp	r2, #24
 8002196:	f000 811d 	beq.w	80023d4 <HAL_RCC_OscConfig+0x260>
 800219a:	6863      	ldr	r3, [r4, #4]
 800219c:	f5b3 3f80 	cmp.w	r3, #65536	@ 0x10000
 80021a0:	f000 815f 	beq.w	8002462 <HAL_RCC_OscConfig+0x2ee>
 80021a4:	2b00      	cmp	r3, #0
 80021a6:	f000 8177 	beq.w	8002498 <HAL_RCC_OscConfig+0x324>
 80021aa:	f5b3 2fa0 	cmp.w	r3, #327680	@ 0x50000
 80021ae:	4b95      	ldr	r3, [pc, #596]	@ (8002404 <HAL_RCC_OscConfig+0x290>)
 80021b0:	681a      	ldr	r2, [r3, #0]
 80021b2:	f000 8266 	beq.w	8002682 <HAL_RCC_OscConfig+0x50e>
 80021b6:	f422 3280 	bic.w	r2, r2, #65536	@ 0x10000
 80021ba:	601a      	str	r2, [r3, #0]
 80021bc:	681a      	ldr	r2, [r3, #0]
 80021be:	f422 2280 	bic.w	r2, r2, #262144	@ 0x40000
 80021c2:	601a      	str	r2, [r3, #0]
 80021c4:	f7ff fd06 	bl	8001bd4 <HAL_GetTick>
 80021c8:	4e8e      	ldr	r6, [pc, #568]	@ (8002404 <HAL_RCC_OscConfig+0x290>)
 80021ca:	4605      	mov	r5, r0
 80021cc:	e005      	b.n	80021da <HAL_RCC_OscConfig+0x66>
 80021ce:	f7ff fd01 	bl	8001bd4 <HAL_GetTick>
 80021d2:	1b40      	subs	r0, r0, r5
 80021d4:	2864      	cmp	r0, #100	@ 0x64
 80021d6:	f200 815d 	bhi.w	8002494 <HAL_RCC_OscConfig+0x320>
 80021da:	6833      	ldr	r3, [r6, #0]
 80021dc:	039f      	lsls	r7, r3, #14
 80021de:	d5f6      	bpl.n	80021ce <HAL_RCC_OscConfig+0x5a>
 80021e0:	6823      	ldr	r3, [r4, #0]
 80021e2:	0799      	lsls	r1, r3, #30
 80021e4:	d521      	bpl.n	800222a <HAL_RCC_OscConfig+0xb6>
 80021e6:	4a87      	ldr	r2, [pc, #540]	@ (8002404 <HAL_RCC_OscConfig+0x290>)
 80021e8:	6913      	ldr	r3, [r2, #16]
 80021ea:	6a92      	ldr	r2, [r2, #40]	@ 0x28
 80021ec:	f013 0338 	ands.w	r3, r3, #56	@ 0x38
 80021f0:	f040 80a4 	bne.w	800233c <HAL_RCC_OscConfig+0x1c8>
 80021f4:	4b83      	ldr	r3, [pc, #524]	@ (8002404 <HAL_RCC_OscConfig+0x290>)
 80021f6:	681b      	ldr	r3, [r3, #0]
 80021f8:	075b      	lsls	r3, r3, #29
 80021fa:	d503      	bpl.n	8002204 <HAL_RCC_OscConfig+0x90>
 80021fc:	68e3      	ldr	r3, [r4, #12]
 80021fe:	2b00      	cmp	r3, #0
 8002200:	f000 80e6 	beq.w	80023d0 <HAL_RCC_OscConfig+0x25c>
 8002204:	f7ff fcfe 	bl	8001c04 <HAL_GetREVID>
 8002208:	f241 0303 	movw	r3, #4099	@ 0x1003
 800220c:	6922      	ldr	r2, [r4, #16]
 800220e:	4298      	cmp	r0, r3
 8002210:	f200 817b 	bhi.w	800250a <HAL_RCC_OscConfig+0x396>
 8002214:	2a40      	cmp	r2, #64	@ 0x40
 8002216:	f000 823c 	beq.w	8002692 <HAL_RCC_OscConfig+0x51e>
 800221a:	497a      	ldr	r1, [pc, #488]	@ (8002404 <HAL_RCC_OscConfig+0x290>)
 800221c:	684b      	ldr	r3, [r1, #4]
 800221e:	f423 337c 	bic.w	r3, r3, #258048	@ 0x3f000
 8002222:	ea43 3302 	orr.w	r3, r3, r2, lsl #12
 8002226:	604b      	str	r3, [r1, #4]
 8002228:	6823      	ldr	r3, [r4, #0]
 800222a:	06d9      	lsls	r1, r3, #27
 800222c:	d453      	bmi.n	80022d6 <HAL_RCC_OscConfig+0x162>
 800222e:	071d      	lsls	r5, r3, #28
 8002230:	d516      	bpl.n	8002260 <HAL_RCC_OscConfig+0xec>
 8002232:	6963      	ldr	r3, [r4, #20]
 8002234:	4d73      	ldr	r5, [pc, #460]	@ (8002404 <HAL_RCC_OscConfig+0x290>)
 8002236:	2b00      	cmp	r3, #0
 8002238:	f000 80ae 	beq.w	8002398 <HAL_RCC_OscConfig+0x224>
 800223c:	6f6b      	ldr	r3, [r5, #116]	@ 0x74
 800223e:	f043 0301 	orr.w	r3, r3, #1
 8002242:	676b      	str	r3, [r5, #116]	@ 0x74
 8002244:	f7ff fcc6 	bl	8001bd4 <HAL_GetTick>
 8002248:	4606      	mov	r6, r0
 800224a:	e005      	b.n	8002258 <HAL_RCC_OscConfig+0xe4>
 800224c:	f7ff fcc2 	bl	8001bd4 <HAL_GetTick>
 8002250:	1b80      	subs	r0, r0, r6
 8002252:	2802      	cmp	r0, #2
 8002254:	f200 811e 	bhi.w	8002494 <HAL_RCC_OscConfig+0x320>
 8002258:	6f6b      	ldr	r3, [r5, #116]	@ 0x74
 800225a:	0798      	lsls	r0, r3, #30
 800225c:	d5f6      	bpl.n	800224c <HAL_RCC_OscConfig+0xd8>
 800225e:	6823      	ldr	r3, [r4, #0]
 8002260:	069a      	lsls	r2, r3, #26
 8002262:	d516      	bpl.n	8002292 <HAL_RCC_OscConfig+0x11e>
 8002264:	69a3      	ldr	r3, [r4, #24]
 8002266:	4d67      	ldr	r5, [pc, #412]	@ (8002404 <HAL_RCC_OscConfig+0x290>)
 8002268:	2b00      	cmp	r3, #0
 800226a:	f000 812b 	beq.w	80024c4 <HAL_RCC_OscConfig+0x350>
 800226e:	682b      	ldr	r3, [r5, #0]
 8002270:	f443 5380 	orr.w	r3, r3, #4096	@ 0x1000
 8002274:	602b      	str	r3, [r5, #0]
 8002276:	f7ff fcad 	bl	8001bd4 <HAL_GetTick>
 800227a:	4606      	mov	r6, r0
 800227c:	e005      	b.n	800228a <HAL_RCC_OscConfig+0x116>
 800227e:	f7ff fca9 	bl	8001bd4 <HAL_GetTick>
 8002282:	1b80      	subs	r0, r0, r6
 8002284:	2802      	cmp	r0, #2
 8002286:	f200 8105 	bhi.w	8002494 <HAL_RCC_OscConfig+0x320>
 800228a:	682b      	ldr	r3, [r5, #0]
 800228c:	049f      	lsls	r7, r3, #18
 800228e:	d5f6      	bpl.n	800227e <HAL_RCC_OscConfig+0x10a>
 8002290:	6823      	ldr	r3, [r4, #0]
 8002292:	0759      	lsls	r1, r3, #29
 8002294:	f100 80ad 	bmi.w	80023f2 <HAL_RCC_OscConfig+0x27e>
 8002298:	6a62      	ldr	r2, [r4, #36]	@ 0x24
 800229a:	b1d2      	cbz	r2, 80022d2 <HAL_RCC_OscConfig+0x15e>
 800229c:	4d59      	ldr	r5, [pc, #356]	@ (8002404 <HAL_RCC_OscConfig+0x290>)
 800229e:	692b      	ldr	r3, [r5, #16]
 80022a0:	f003 0338 	and.w	r3, r3, #56	@ 0x38
 80022a4:	2b18      	cmp	r3, #24
 80022a6:	f000 81be 	beq.w	8002626 <HAL_RCC_OscConfig+0x4b2>
 80022aa:	682b      	ldr	r3, [r5, #0]
 80022ac:	2a02      	cmp	r2, #2
 80022ae:	f023 7380 	bic.w	r3, r3, #16777216	@ 0x1000000
 80022b2:	602b      	str	r3, [r5, #0]
 80022b4:	f000 8152 	beq.w	800255c <HAL_RCC_OscConfig+0x3e8>
 80022b8:	f7ff fc8c 	bl	8001bd4 <HAL_GetTick>
 80022bc:	4604      	mov	r4, r0
 80022be:	e005      	b.n	80022cc <HAL_RCC_OscConfig+0x158>
 80022c0:	f7ff fc88 	bl	8001bd4 <HAL_GetTick>
 80022c4:	1b00      	subs	r0, r0, r4
 80022c6:	2802      	cmp	r0, #2
 80022c8:	f200 80e4 	bhi.w	8002494 <HAL_RCC_OscConfig+0x320>
 80022cc:	682b      	ldr	r3, [r5, #0]
 80022ce:	019b      	lsls	r3, r3, #6
 80022d0:	d4f6      	bmi.n	80022c0 <HAL_RCC_OscConfig+0x14c>
 80022d2:	2000      	movs	r0, #0
 80022d4:	bdf8      	pop	{r3, r4, r5, r6, r7, pc}
 80022d6:	4a4b      	ldr	r2, [pc, #300]	@ (8002404 <HAL_RCC_OscConfig+0x290>)
 80022d8:	6913      	ldr	r3, [r2, #16]
 80022da:	6a92      	ldr	r2, [r2, #40]	@ 0x28
 80022dc:	f003 0338 	and.w	r3, r3, #56	@ 0x38
 80022e0:	2b08      	cmp	r3, #8
 80022e2:	d06e      	beq.n	80023c2 <HAL_RCC_OscConfig+0x24e>
 80022e4:	2b18      	cmp	r3, #24
 80022e6:	d068      	beq.n	80023ba <HAL_RCC_OscConfig+0x246>
 80022e8:	69e3      	ldr	r3, [r4, #28]
 80022ea:	4d46      	ldr	r5, [pc, #280]	@ (8002404 <HAL_RCC_OscConfig+0x290>)
 80022ec:	2b00      	cmp	r3, #0
 80022ee:	f000 80fa 	beq.w	80024e6 <HAL_RCC_OscConfig+0x372>
 80022f2:	682b      	ldr	r3, [r5, #0]
 80022f4:	f043 0380 	orr.w	r3, r3, #128	@ 0x80
 80022f8:	602b      	str	r3, [r5, #0]
 80022fa:	f7ff fc6b 	bl	8001bd4 <HAL_GetTick>
 80022fe:	4606      	mov	r6, r0
 8002300:	e005      	b.n	800230e <HAL_RCC_OscConfig+0x19a>
 8002302:	f7ff fc67 	bl	8001bd4 <HAL_GetTick>
 8002306:	1b80      	subs	r0, r0, r6
 8002308:	2802      	cmp	r0, #2
 800230a:	f200 80c3 	bhi.w	8002494 <HAL_RCC_OscConfig+0x320>
 800230e:	682b      	ldr	r3, [r5, #0]
 8002310:	05db      	lsls	r3, r3, #23
 8002312:	d5f6      	bpl.n	8002302 <HAL_RCC_OscConfig+0x18e>
 8002314:	f7ff fc76 	bl	8001c04 <HAL_GetREVID>
 8002318:	f241 0303 	movw	r3, #4099	@ 0x1003
 800231c:	6a22      	ldr	r2, [r4, #32]
 800231e:	4298      	cmp	r0, r3
 8002320:	f200 81de 	bhi.w	80026e0 <HAL_RCC_OscConfig+0x56c>
 8002324:	686b      	ldr	r3, [r5, #4]
 8002326:	2a20      	cmp	r2, #32
 8002328:	f023 43f8 	bic.w	r3, r3, #2080374784	@ 0x7c000000
 800232c:	bf0c      	ite	eq
 800232e:	f043 4380 	orreq.w	r3, r3, #1073741824	@ 0x40000000
 8002332:	ea43 6382 	orrne.w	r3, r3, r2, lsl #26
 8002336:	606b      	str	r3, [r5, #4]
 8002338:	6823      	ldr	r3, [r4, #0]
 800233a:	e778      	b.n	800222e <HAL_RCC_OscConfig+0xba>
 800233c:	2b18      	cmp	r3, #24
 800233e:	f000 80fe 	beq.w	800253e <HAL_RCC_OscConfig+0x3ca>
 8002342:	4d30      	ldr	r5, [pc, #192]	@ (8002404 <HAL_RCC_OscConfig+0x290>)
 8002344:	68e2      	ldr	r2, [r4, #12]
 8002346:	682b      	ldr	r3, [r5, #0]
 8002348:	2a00      	cmp	r2, #0
 800234a:	f000 80e7 	beq.w	800251c <HAL_RCC_OscConfig+0x3a8>
 800234e:	f023 0319 	bic.w	r3, r3, #25
 8002352:	4313      	orrs	r3, r2
 8002354:	602b      	str	r3, [r5, #0]
 8002356:	f7ff fc3d 	bl	8001bd4 <HAL_GetTick>
 800235a:	4606      	mov	r6, r0
 800235c:	e005      	b.n	800236a <HAL_RCC_OscConfig+0x1f6>
 800235e:	f7ff fc39 	bl	8001bd4 <HAL_GetTick>
 8002362:	1b80      	subs	r0, r0, r6
 8002364:	2802      	cmp	r0, #2
 8002366:	f200 8095 	bhi.w	8002494 <HAL_RCC_OscConfig+0x320>
 800236a:	682b      	ldr	r3, [r5, #0]
 800236c:	075f      	lsls	r7, r3, #29
 800236e:	d5f6      	bpl.n	800235e <HAL_RCC_OscConfig+0x1ea>
 8002370:	f7ff fc48 	bl	8001c04 <HAL_GetREVID>
 8002374:	f241 0303 	movw	r3, #4099	@ 0x1003
 8002378:	6922      	ldr	r2, [r4, #16]
 800237a:	4298      	cmp	r0, r3
 800237c:	686b      	ldr	r3, [r5, #4]
 800237e:	f200 81b7 	bhi.w	80026f0 <HAL_RCC_OscConfig+0x57c>
 8002382:	f423 337c 	bic.w	r3, r3, #258048	@ 0x3f000
 8002386:	2a40      	cmp	r2, #64	@ 0x40
 8002388:	bf0c      	ite	eq
 800238a:	f443 3300 	orreq.w	r3, r3, #131072	@ 0x20000
 800238e:	ea43 3302 	orrne.w	r3, r3, r2, lsl #12
 8002392:	606b      	str	r3, [r5, #4]
 8002394:	6823      	ldr	r3, [r4, #0]
 8002396:	e748      	b.n	800222a <HAL_RCC_OscConfig+0xb6>
 8002398:	6f6b      	ldr	r3, [r5, #116]	@ 0x74
 800239a:	f023 0301 	bic.w	r3, r3, #1
 800239e:	676b      	str	r3, [r5, #116]	@ 0x74
 80023a0:	f7ff fc18 	bl	8001bd4 <HAL_GetTick>
 80023a4:	4606      	mov	r6, r0
 80023a6:	e004      	b.n	80023b2 <HAL_RCC_OscConfig+0x23e>
 80023a8:	f7ff fc14 	bl	8001bd4 <HAL_GetTick>
 80023ac:	1b80      	subs	r0, r0, r6
 80023ae:	2802      	cmp	r0, #2
 80023b0:	d870      	bhi.n	8002494 <HAL_RCC_OscConfig+0x320>
 80023b2:	6f6b      	ldr	r3, [r5, #116]	@ 0x74
 80023b4:	0799      	lsls	r1, r3, #30
 80023b6:	d4f7      	bmi.n	80023a8 <HAL_RCC_OscConfig+0x234>
 80023b8:	e751      	b.n	800225e <HAL_RCC_OscConfig+0xea>
 80023ba:	f002 0203 	and.w	r2, r2, #3
 80023be:	2a01      	cmp	r2, #1
 80023c0:	d192      	bne.n	80022e8 <HAL_RCC_OscConfig+0x174>
 80023c2:	4b10      	ldr	r3, [pc, #64]	@ (8002404 <HAL_RCC_OscConfig+0x290>)
 80023c4:	681b      	ldr	r3, [r3, #0]
 80023c6:	05da      	lsls	r2, r3, #23
 80023c8:	d551      	bpl.n	800246e <HAL_RCC_OscConfig+0x2fa>
 80023ca:	69e3      	ldr	r3, [r4, #28]
 80023cc:	2b80      	cmp	r3, #128	@ 0x80
 80023ce:	d04e      	beq.n	800246e <HAL_RCC_OscConfig+0x2fa>
 80023d0:	2001      	movs	r0, #1
 80023d2:	bdf8      	pop	{r3, r4, r5, r6, r7, pc}
 80023d4:	f001 0103 	and.w	r1, r1, #3
 80023d8:	2902      	cmp	r1, #2
 80023da:	f47f aede 	bne.w	800219a <HAL_RCC_OscConfig+0x26>
 80023de:	4a09      	ldr	r2, [pc, #36]	@ (8002404 <HAL_RCC_OscConfig+0x290>)
 80023e0:	6812      	ldr	r2, [r2, #0]
 80023e2:	0392      	lsls	r2, r2, #14
 80023e4:	f57f aefd 	bpl.w	80021e2 <HAL_RCC_OscConfig+0x6e>
 80023e8:	6862      	ldr	r2, [r4, #4]
 80023ea:	2a00      	cmp	r2, #0
 80023ec:	f47f aef9 	bne.w	80021e2 <HAL_RCC_OscConfig+0x6e>
 80023f0:	e7ee      	b.n	80023d0 <HAL_RCC_OscConfig+0x25c>
 80023f2:	4d05      	ldr	r5, [pc, #20]	@ (8002408 <HAL_RCC_OscConfig+0x294>)
 80023f4:	682b      	ldr	r3, [r5, #0]
 80023f6:	f443 7380 	orr.w	r3, r3, #256	@ 0x100
 80023fa:	602b      	str	r3, [r5, #0]
 80023fc:	f7ff fbea 	bl	8001bd4 <HAL_GetTick>
 8002400:	4606      	mov	r6, r0
 8002402:	e008      	b.n	8002416 <HAL_RCC_OscConfig+0x2a2>
 8002404:	58024400 	.word	0x58024400
 8002408:	58024800 	.word	0x58024800
 800240c:	f7ff fbe2 	bl	8001bd4 <HAL_GetTick>
 8002410:	1b80      	subs	r0, r0, r6
 8002412:	2864      	cmp	r0, #100	@ 0x64
 8002414:	d83e      	bhi.n	8002494 <HAL_RCC_OscConfig+0x320>
 8002416:	682b      	ldr	r3, [r5, #0]
 8002418:	05da      	lsls	r2, r3, #23
 800241a:	d5f7      	bpl.n	800240c <HAL_RCC_OscConfig+0x298>
 800241c:	68a3      	ldr	r3, [r4, #8]
 800241e:	2b01      	cmp	r3, #1
 8002420:	f000 816d 	beq.w	80026fe <HAL_RCC_OscConfig+0x58a>
 8002424:	2b00      	cmp	r3, #0
 8002426:	f000 813d 	beq.w	80026a4 <HAL_RCC_OscConfig+0x530>
 800242a:	2b05      	cmp	r3, #5
 800242c:	4ba5      	ldr	r3, [pc, #660]	@ (80026c4 <HAL_RCC_OscConfig+0x550>)
 800242e:	6f1a      	ldr	r2, [r3, #112]	@ 0x70
 8002430:	f000 8174 	beq.w	800271c <HAL_RCC_OscConfig+0x5a8>
 8002434:	f022 0201 	bic.w	r2, r2, #1
 8002438:	671a      	str	r2, [r3, #112]	@ 0x70
 800243a:	6f1a      	ldr	r2, [r3, #112]	@ 0x70
 800243c:	f022 0204 	bic.w	r2, r2, #4
 8002440:	671a      	str	r2, [r3, #112]	@ 0x70
 8002442:	f7ff fbc7 	bl	8001bd4 <HAL_GetTick>
 8002446:	4e9f      	ldr	r6, [pc, #636]	@ (80026c4 <HAL_RCC_OscConfig+0x550>)
 8002448:	f241 3788 	movw	r7, #5000	@ 0x1388
 800244c:	4605      	mov	r5, r0
 800244e:	e004      	b.n	800245a <HAL_RCC_OscConfig+0x2e6>
 8002450:	f7ff fbc0 	bl	8001bd4 <HAL_GetTick>
 8002454:	1b40      	subs	r0, r0, r5
 8002456:	42b8      	cmp	r0, r7
 8002458:	d81c      	bhi.n	8002494 <HAL_RCC_OscConfig+0x320>
 800245a:	6f33      	ldr	r3, [r6, #112]	@ 0x70
 800245c:	079b      	lsls	r3, r3, #30
 800245e:	d5f7      	bpl.n	8002450 <HAL_RCC_OscConfig+0x2dc>
 8002460:	e71a      	b.n	8002298 <HAL_RCC_OscConfig+0x124>
 8002462:	4a98      	ldr	r2, [pc, #608]	@ (80026c4 <HAL_RCC_OscConfig+0x550>)
 8002464:	6813      	ldr	r3, [r2, #0]
 8002466:	f443 3380 	orr.w	r3, r3, #65536	@ 0x10000
 800246a:	6013      	str	r3, [r2, #0]
 800246c:	e6aa      	b.n	80021c4 <HAL_RCC_OscConfig+0x50>
 800246e:	f7ff fbc9 	bl	8001c04 <HAL_GetREVID>
 8002472:	f241 0303 	movw	r3, #4099	@ 0x1003
 8002476:	6a22      	ldr	r2, [r4, #32]
 8002478:	4298      	cmp	r0, r3
 800247a:	d866      	bhi.n	800254a <HAL_RCC_OscConfig+0x3d6>
 800247c:	2a20      	cmp	r2, #32
 800247e:	f000 8144 	beq.w	800270a <HAL_RCC_OscConfig+0x596>
 8002482:	4990      	ldr	r1, [pc, #576]	@ (80026c4 <HAL_RCC_OscConfig+0x550>)
 8002484:	684b      	ldr	r3, [r1, #4]
 8002486:	f023 43f8 	bic.w	r3, r3, #2080374784	@ 0x7c000000
 800248a:	ea43 6382 	orr.w	r3, r3, r2, lsl #26
 800248e:	604b      	str	r3, [r1, #4]
 8002490:	6823      	ldr	r3, [r4, #0]
 8002492:	e6cc      	b.n	800222e <HAL_RCC_OscConfig+0xba>
 8002494:	2003      	movs	r0, #3
 8002496:	bdf8      	pop	{r3, r4, r5, r6, r7, pc}
 8002498:	4d8a      	ldr	r5, [pc, #552]	@ (80026c4 <HAL_RCC_OscConfig+0x550>)
 800249a:	682b      	ldr	r3, [r5, #0]
 800249c:	f423 3380 	bic.w	r3, r3, #65536	@ 0x10000
 80024a0:	602b      	str	r3, [r5, #0]
 80024a2:	682b      	ldr	r3, [r5, #0]
 80024a4:	f423 2380 	bic.w	r3, r3, #262144	@ 0x40000
 80024a8:	602b      	str	r3, [r5, #0]
 80024aa:	f7ff fb93 	bl	8001bd4 <HAL_GetTick>
 80024ae:	4606      	mov	r6, r0
 80024b0:	e004      	b.n	80024bc <HAL_RCC_OscConfig+0x348>
 80024b2:	f7ff fb8f 	bl	8001bd4 <HAL_GetTick>
 80024b6:	1b80      	subs	r0, r0, r6
 80024b8:	2864      	cmp	r0, #100	@ 0x64
 80024ba:	d8eb      	bhi.n	8002494 <HAL_RCC_OscConfig+0x320>
 80024bc:	682b      	ldr	r3, [r5, #0]
 80024be:	0398      	lsls	r0, r3, #14
 80024c0:	d4f7      	bmi.n	80024b2 <HAL_RCC_OscConfig+0x33e>
 80024c2:	e68d      	b.n	80021e0 <HAL_RCC_OscConfig+0x6c>
 80024c4:	682b      	ldr	r3, [r5, #0]
 80024c6:	f423 5380 	bic.w	r3, r3, #4096	@ 0x1000
 80024ca:	602b      	str	r3, [r5, #0]
 80024cc:	f7ff fb82 	bl	8001bd4 <HAL_GetTick>
 80024d0:	4606      	mov	r6, r0
 80024d2:	e004      	b.n	80024de <HAL_RCC_OscConfig+0x36a>
 80024d4:	f7ff fb7e 	bl	8001bd4 <HAL_GetTick>
 80024d8:	1b80      	subs	r0, r0, r6
 80024da:	2802      	cmp	r0, #2
 80024dc:	d8da      	bhi.n	8002494 <HAL_RCC_OscConfig+0x320>
 80024de:	682b      	ldr	r3, [r5, #0]
 80024e0:	0498      	lsls	r0, r3, #18
 80024e2:	d4f7      	bmi.n	80024d4 <HAL_RCC_OscConfig+0x360>
 80024e4:	e6d4      	b.n	8002290 <HAL_RCC_OscConfig+0x11c>
 80024e6:	682b      	ldr	r3, [r5, #0]
 80024e8:	f023 0380 	bic.w	r3, r3, #128	@ 0x80
 80024ec:	602b      	str	r3, [r5, #0]
 80024ee:	f7ff fb71 	bl	8001bd4 <HAL_GetTick>
 80024f2:	4606      	mov	r6, r0
 80024f4:	e004      	b.n	8002500 <HAL_RCC_OscConfig+0x38c>
 80024f6:	f7ff fb6d 	bl	8001bd4 <HAL_GetTick>
 80024fa:	1b80      	subs	r0, r0, r6
 80024fc:	2802      	cmp	r0, #2
 80024fe:	d8c9      	bhi.n	8002494 <HAL_RCC_OscConfig+0x320>
 8002500:	682b      	ldr	r3, [r5, #0]
 8002502:	05df      	lsls	r7, r3, #23
 8002504:	d4f7      	bmi.n	80024f6 <HAL_RCC_OscConfig+0x382>
 8002506:	6823      	ldr	r3, [r4, #0]
 8002508:	e691      	b.n	800222e <HAL_RCC_OscConfig+0xba>
 800250a:	496e      	ldr	r1, [pc, #440]	@ (80026c4 <HAL_RCC_OscConfig+0x550>)
 800250c:	684b      	ldr	r3, [r1, #4]
 800250e:	f023 43fe 	bic.w	r3, r3, #2130706432	@ 0x7f000000
 8002512:	ea43 6302 	orr.w	r3, r3, r2, lsl #24
 8002516:	604b      	str	r3, [r1, #4]
 8002518:	6823      	ldr	r3, [r4, #0]
 800251a:	e686      	b.n	800222a <HAL_RCC_OscConfig+0xb6>
 800251c:	f023 0301 	bic.w	r3, r3, #1
 8002520:	602b      	str	r3, [r5, #0]
 8002522:	f7ff fb57 	bl	8001bd4 <HAL_GetTick>
 8002526:	4606      	mov	r6, r0
 8002528:	e004      	b.n	8002534 <HAL_RCC_OscConfig+0x3c0>
 800252a:	f7ff fb53 	bl	8001bd4 <HAL_GetTick>
 800252e:	1b80      	subs	r0, r0, r6
 8002530:	2802      	cmp	r0, #2
 8002532:	d8af      	bhi.n	8002494 <HAL_RCC_OscConfig+0x320>
 8002534:	682b      	ldr	r3, [r5, #0]
 8002536:	0758      	lsls	r0, r3, #29
 8002538:	d4f7      	bmi.n	800252a <HAL_RCC_OscConfig+0x3b6>
 800253a:	6823      	ldr	r3, [r4, #0]
 800253c:	e675      	b.n	800222a <HAL_RCC_OscConfig+0xb6>
 800253e:	0792      	lsls	r2, r2, #30
 8002540:	f47f aeff 	bne.w	8002342 <HAL_RCC_OscConfig+0x1ce>
 8002544:	e656      	b.n	80021f4 <HAL_RCC_OscConfig+0x80>
 8002546:	2001      	movs	r0, #1
 8002548:	4770      	bx	lr
 800254a:	495e      	ldr	r1, [pc, #376]	@ (80026c4 <HAL_RCC_OscConfig+0x550>)
 800254c:	68cb      	ldr	r3, [r1, #12]
 800254e:	f023 537c 	bic.w	r3, r3, #1056964608	@ 0x3f000000
 8002552:	ea43 6302 	orr.w	r3, r3, r2, lsl #24
 8002556:	60cb      	str	r3, [r1, #12]
 8002558:	6823      	ldr	r3, [r4, #0]
 800255a:	e668      	b.n	800222e <HAL_RCC_OscConfig+0xba>
 800255c:	f7ff fb3a 	bl	8001bd4 <HAL_GetTick>
 8002560:	4606      	mov	r6, r0
 8002562:	e004      	b.n	800256e <HAL_RCC_OscConfig+0x3fa>
 8002564:	f7ff fb36 	bl	8001bd4 <HAL_GetTick>
 8002568:	1b80      	subs	r0, r0, r6
 800256a:	2802      	cmp	r0, #2
 800256c:	d892      	bhi.n	8002494 <HAL_RCC_OscConfig+0x320>
 800256e:	682b      	ldr	r3, [r5, #0]
 8002570:	0199      	lsls	r1, r3, #6
 8002572:	d4f7      	bmi.n	8002564 <HAL_RCC_OscConfig+0x3f0>
 8002574:	6aa9      	ldr	r1, [r5, #40]	@ 0x28
 8002576:	4b54      	ldr	r3, [pc, #336]	@ (80026c8 <HAL_RCC_OscConfig+0x554>)
 8002578:	6aa2      	ldr	r2, [r4, #40]	@ 0x28
 800257a:	400b      	ands	r3, r1
 800257c:	4313      	orrs	r3, r2
 800257e:	6ae2      	ldr	r2, [r4, #44]	@ 0x2c
 8002580:	ea43 1302 	orr.w	r3, r3, r2, lsl #4
 8002584:	62ab      	str	r3, [r5, #40]	@ 0x28
 8002586:	6b21      	ldr	r1, [r4, #48]	@ 0x30
 8002588:	e9d4 320d 	ldrd	r3, r2, [r4, #52]	@ 0x34
 800258c:	3901      	subs	r1, #1
 800258e:	3b01      	subs	r3, #1
 8002590:	3a01      	subs	r2, #1
 8002592:	f3c1 0108 	ubfx	r1, r1, #0, #9
 8002596:	025b      	lsls	r3, r3, #9
 8002598:	0412      	lsls	r2, r2, #16
 800259a:	b29b      	uxth	r3, r3
 800259c:	f402 02fe 	and.w	r2, r2, #8323072	@ 0x7f0000
 80025a0:	4313      	orrs	r3, r2
 80025a2:	6be2      	ldr	r2, [r4, #60]	@ 0x3c
 80025a4:	3a01      	subs	r2, #1
 80025a6:	430b      	orrs	r3, r1
 80025a8:	0612      	lsls	r2, r2, #24
 80025aa:	f002 42fe 	and.w	r2, r2, #2130706432	@ 0x7f000000
 80025ae:	4313      	orrs	r3, r2
 80025b0:	632b      	str	r3, [r5, #48]	@ 0x30
 80025b2:	6aeb      	ldr	r3, [r5, #44]	@ 0x2c
 80025b4:	f023 0301 	bic.w	r3, r3, #1
 80025b8:	62eb      	str	r3, [r5, #44]	@ 0x2c
 80025ba:	6b6b      	ldr	r3, [r5, #52]	@ 0x34
 80025bc:	6ca2      	ldr	r2, [r4, #72]	@ 0x48
 80025be:	f36f 03cf 	bfc	r3, #3, #13
 80025c2:	ea43 03c2 	orr.w	r3, r3, r2, lsl #3
 80025c6:	636b      	str	r3, [r5, #52]	@ 0x34
 80025c8:	6aeb      	ldr	r3, [r5, #44]	@ 0x2c
 80025ca:	6c22      	ldr	r2, [r4, #64]	@ 0x40
 80025cc:	f023 030c 	bic.w	r3, r3, #12
 80025d0:	4313      	orrs	r3, r2
 80025d2:	62eb      	str	r3, [r5, #44]	@ 0x2c
 80025d4:	6aeb      	ldr	r3, [r5, #44]	@ 0x2c
 80025d6:	6c62      	ldr	r2, [r4, #68]	@ 0x44
 80025d8:	f023 0302 	bic.w	r3, r3, #2
 80025dc:	4313      	orrs	r3, r2
 80025de:	62eb      	str	r3, [r5, #44]	@ 0x2c
 80025e0:	6aeb      	ldr	r3, [r5, #44]	@ 0x2c
 80025e2:	f443 3380 	orr.w	r3, r3, #65536	@ 0x10000
 80025e6:	62eb      	str	r3, [r5, #44]	@ 0x2c
 80025e8:	6aeb      	ldr	r3, [r5, #44]	@ 0x2c
 80025ea:	f443 3300 	orr.w	r3, r3, #131072	@ 0x20000
 80025ee:	62eb      	str	r3, [r5, #44]	@ 0x2c
 80025f0:	6aeb      	ldr	r3, [r5, #44]	@ 0x2c
 80025f2:	f443 2380 	orr.w	r3, r3, #262144	@ 0x40000
 80025f6:	62eb      	str	r3, [r5, #44]	@ 0x2c
 80025f8:	6aeb      	ldr	r3, [r5, #44]	@ 0x2c
 80025fa:	f043 0301 	orr.w	r3, r3, #1
 80025fe:	62eb      	str	r3, [r5, #44]	@ 0x2c
 8002600:	682b      	ldr	r3, [r5, #0]
 8002602:	f043 7380 	orr.w	r3, r3, #16777216	@ 0x1000000
 8002606:	602b      	str	r3, [r5, #0]
 8002608:	f7ff fae4 	bl	8001bd4 <HAL_GetTick>
 800260c:	4d2d      	ldr	r5, [pc, #180]	@ (80026c4 <HAL_RCC_OscConfig+0x550>)
 800260e:	4604      	mov	r4, r0
 8002610:	e005      	b.n	800261e <HAL_RCC_OscConfig+0x4aa>
 8002612:	f7ff fadf 	bl	8001bd4 <HAL_GetTick>
 8002616:	1b00      	subs	r0, r0, r4
 8002618:	2802      	cmp	r0, #2
 800261a:	f63f af3b 	bhi.w	8002494 <HAL_RCC_OscConfig+0x320>
 800261e:	682b      	ldr	r3, [r5, #0]
 8002620:	019a      	lsls	r2, r3, #6
 8002622:	d5f6      	bpl.n	8002612 <HAL_RCC_OscConfig+0x49e>
 8002624:	e655      	b.n	80022d2 <HAL_RCC_OscConfig+0x15e>
 8002626:	2a01      	cmp	r2, #1
 8002628:	6aa9      	ldr	r1, [r5, #40]	@ 0x28
 800262a:	6b2b      	ldr	r3, [r5, #48]	@ 0x30
 800262c:	f43f aed0 	beq.w	80023d0 <HAL_RCC_OscConfig+0x25c>
 8002630:	f001 0203 	and.w	r2, r1, #3
 8002634:	6aa0      	ldr	r0, [r4, #40]	@ 0x28
 8002636:	4282      	cmp	r2, r0
 8002638:	f47f aeca 	bne.w	80023d0 <HAL_RCC_OscConfig+0x25c>
 800263c:	f3c1 1105 	ubfx	r1, r1, #4, #6
 8002640:	6ae2      	ldr	r2, [r4, #44]	@ 0x2c
 8002642:	4291      	cmp	r1, r2
 8002644:	f47f aec4 	bne.w	80023d0 <HAL_RCC_OscConfig+0x25c>
 8002648:	6b22      	ldr	r2, [r4, #48]	@ 0x30
 800264a:	f3c3 0108 	ubfx	r1, r3, #0, #9
 800264e:	3a01      	subs	r2, #1
 8002650:	4291      	cmp	r1, r2
 8002652:	f47f aebd 	bne.w	80023d0 <HAL_RCC_OscConfig+0x25c>
 8002656:	6b62      	ldr	r2, [r4, #52]	@ 0x34
 8002658:	f3c3 2146 	ubfx	r1, r3, #9, #7
 800265c:	3a01      	subs	r2, #1
 800265e:	4291      	cmp	r1, r2
 8002660:	f47f aeb6 	bne.w	80023d0 <HAL_RCC_OscConfig+0x25c>
 8002664:	6ba2      	ldr	r2, [r4, #56]	@ 0x38
 8002666:	f3c3 4106 	ubfx	r1, r3, #16, #7
 800266a:	3a01      	subs	r2, #1
 800266c:	4291      	cmp	r1, r2
 800266e:	f47f aeaf 	bne.w	80023d0 <HAL_RCC_OscConfig+0x25c>
 8002672:	6be2      	ldr	r2, [r4, #60]	@ 0x3c
 8002674:	f3c3 6306 	ubfx	r3, r3, #24, #7
 8002678:	3a01      	subs	r2, #1
 800267a:	1a98      	subs	r0, r3, r2
 800267c:	bf18      	it	ne
 800267e:	2001      	movne	r0, #1
 8002680:	bdf8      	pop	{r3, r4, r5, r6, r7, pc}
 8002682:	f442 2280 	orr.w	r2, r2, #262144	@ 0x40000
 8002686:	601a      	str	r2, [r3, #0]
 8002688:	681a      	ldr	r2, [r3, #0]
 800268a:	f442 3280 	orr.w	r2, r2, #65536	@ 0x10000
 800268e:	601a      	str	r2, [r3, #0]
 8002690:	e598      	b.n	80021c4 <HAL_RCC_OscConfig+0x50>
 8002692:	4a0c      	ldr	r2, [pc, #48]	@ (80026c4 <HAL_RCC_OscConfig+0x550>)
 8002694:	6853      	ldr	r3, [r2, #4]
 8002696:	f423 337c 	bic.w	r3, r3, #258048	@ 0x3f000
 800269a:	f443 3300 	orr.w	r3, r3, #131072	@ 0x20000
 800269e:	6053      	str	r3, [r2, #4]
 80026a0:	6823      	ldr	r3, [r4, #0]
 80026a2:	e5c2      	b.n	800222a <HAL_RCC_OscConfig+0xb6>
 80026a4:	4d07      	ldr	r5, [pc, #28]	@ (80026c4 <HAL_RCC_OscConfig+0x550>)
 80026a6:	f241 3788 	movw	r7, #5000	@ 0x1388
 80026aa:	6f2b      	ldr	r3, [r5, #112]	@ 0x70
 80026ac:	f023 0301 	bic.w	r3, r3, #1
 80026b0:	672b      	str	r3, [r5, #112]	@ 0x70
 80026b2:	6f2b      	ldr	r3, [r5, #112]	@ 0x70
 80026b4:	f023 0304 	bic.w	r3, r3, #4
 80026b8:	672b      	str	r3, [r5, #112]	@ 0x70
 80026ba:	f7ff fa8b 	bl	8001bd4 <HAL_GetTick>
 80026be:	4606      	mov	r6, r0
 80026c0:	e00a      	b.n	80026d8 <HAL_RCC_OscConfig+0x564>
 80026c2:	bf00      	nop
 80026c4:	58024400 	.word	0x58024400
 80026c8:	fffffc0c 	.word	0xfffffc0c
 80026cc:	f7ff fa82 	bl	8001bd4 <HAL_GetTick>
 80026d0:	1b80      	subs	r0, r0, r6
 80026d2:	42b8      	cmp	r0, r7
 80026d4:	f63f aede 	bhi.w	8002494 <HAL_RCC_OscConfig+0x320>
 80026d8:	6f2b      	ldr	r3, [r5, #112]	@ 0x70
 80026da:	0798      	lsls	r0, r3, #30
 80026dc:	d4f6      	bmi.n	80026cc <HAL_RCC_OscConfig+0x558>
 80026de:	e5db      	b.n	8002298 <HAL_RCC_OscConfig+0x124>
 80026e0:	68eb      	ldr	r3, [r5, #12]
 80026e2:	f023 537c 	bic.w	r3, r3, #1056964608	@ 0x3f000000
 80026e6:	ea43 6302 	orr.w	r3, r3, r2, lsl #24
 80026ea:	60eb      	str	r3, [r5, #12]
 80026ec:	6823      	ldr	r3, [r4, #0]
 80026ee:	e59e      	b.n	800222e <HAL_RCC_OscConfig+0xba>
 80026f0:	f023 43fe 	bic.w	r3, r3, #2130706432	@ 0x7f000000
 80026f4:	ea43 6302 	orr.w	r3, r3, r2, lsl #24
 80026f8:	606b      	str	r3, [r5, #4]
 80026fa:	6823      	ldr	r3, [r4, #0]
 80026fc:	e595      	b.n	800222a <HAL_RCC_OscConfig+0xb6>
 80026fe:	4a0b      	ldr	r2, [pc, #44]	@ (800272c <HAL_RCC_OscConfig+0x5b8>)
 8002700:	6f13      	ldr	r3, [r2, #112]	@ 0x70
 8002702:	f043 0301 	orr.w	r3, r3, #1
 8002706:	6713      	str	r3, [r2, #112]	@ 0x70
 8002708:	e69b      	b.n	8002442 <HAL_RCC_OscConfig+0x2ce>
 800270a:	4a08      	ldr	r2, [pc, #32]	@ (800272c <HAL_RCC_OscConfig+0x5b8>)
 800270c:	6853      	ldr	r3, [r2, #4]
 800270e:	f023 43f8 	bic.w	r3, r3, #2080374784	@ 0x7c000000
 8002712:	f043 4380 	orr.w	r3, r3, #1073741824	@ 0x40000000
 8002716:	6053      	str	r3, [r2, #4]
 8002718:	6823      	ldr	r3, [r4, #0]
 800271a:	e588      	b.n	800222e <HAL_RCC_OscConfig+0xba>
 800271c:	f042 0204 	orr.w	r2, r2, #4
 8002720:	671a      	str	r2, [r3, #112]	@ 0x70
 8002722:	6f1a      	ldr	r2, [r3, #112]	@ 0x70
 8002724:	f042 0201 	orr.w	r2, r2, #1
 8002728:	671a      	str	r2, [r3, #112]	@ 0x70
 800272a:	e68a      	b.n	8002442 <HAL_RCC_OscConfig+0x2ce>
 800272c:	58024400 	.word	0x58024400

08002730 <HAL_RCC_GetSysClockFreq>:
 8002730:	4a3f      	ldr	r2, [pc, #252]	@ (8002830 <HAL_RCC_GetSysClockFreq+0x100>)
 8002732:	6913      	ldr	r3, [r2, #16]
 8002734:	f003 0338 	and.w	r3, r3, #56	@ 0x38
 8002738:	2b10      	cmp	r3, #16
 800273a:	d04f      	beq.n	80027dc <HAL_RCC_GetSysClockFreq+0xac>
 800273c:	2b18      	cmp	r3, #24
 800273e:	d00a      	beq.n	8002756 <HAL_RCC_GetSysClockFreq+0x26>
 8002740:	2b00      	cmp	r3, #0
 8002742:	d14d      	bne.n	80027e0 <HAL_RCC_GetSysClockFreq+0xb0>
 8002744:	6813      	ldr	r3, [r2, #0]
 8002746:	0699      	lsls	r1, r3, #26
 8002748:	d54c      	bpl.n	80027e4 <HAL_RCC_GetSysClockFreq+0xb4>
 800274a:	6813      	ldr	r3, [r2, #0]
 800274c:	4839      	ldr	r0, [pc, #228]	@ (8002834 <HAL_RCC_GetSysClockFreq+0x104>)
 800274e:	f3c3 03c1 	ubfx	r3, r3, #3, #2
 8002752:	40d8      	lsrs	r0, r3
 8002754:	4770      	bx	lr
 8002756:	6a91      	ldr	r1, [r2, #40]	@ 0x28
 8002758:	b430      	push	{r4, r5}
 800275a:	6a94      	ldr	r4, [r2, #40]	@ 0x28
 800275c:	6ad5      	ldr	r5, [r2, #44]	@ 0x2c
 800275e:	f414 7f7c 	tst.w	r4, #1008	@ 0x3f0
 8002762:	6b53      	ldr	r3, [r2, #52]	@ 0x34
 8002764:	f3c4 1005 	ubfx	r0, r4, #4, #6
 8002768:	d036      	beq.n	80027d8 <HAL_RCC_GetSysClockFreq+0xa8>
 800276a:	f3c3 03cc 	ubfx	r3, r3, #3, #13
 800276e:	f005 0501 	and.w	r5, r5, #1
 8002772:	f001 0103 	and.w	r1, r1, #3
 8002776:	ee07 0a90 	vmov	s15, r0
 800277a:	fb05 f303 	mul.w	r3, r5, r3
 800277e:	2901      	cmp	r1, #1
 8002780:	eef8 7ae7 	vcvt.f32.s32	s15, s15
 8002784:	ee06 3a90 	vmov	s13, r3
 8002788:	eefa 6ae9 	vcvt.f32.s32	s13, s13, #13
 800278c:	d002      	beq.n	8002794 <HAL_RCC_GetSysClockFreq+0x64>
 800278e:	2902      	cmp	r1, #2
 8002790:	d048      	beq.n	8002824 <HAL_RCC_GetSysClockFreq+0xf4>
 8002792:	b349      	cbz	r1, 80027e8 <HAL_RCC_GetSysClockFreq+0xb8>
 8002794:	ed9f 7a28 	vldr	s14, [pc, #160]	@ 8002838 <HAL_RCC_GetSysClockFreq+0x108>
 8002798:	ee87 6a27 	vdiv.f32	s12, s14, s15
 800279c:	6b13      	ldr	r3, [r2, #48]	@ 0x30
 800279e:	f3c3 0308 	ubfx	r3, r3, #0, #9
 80027a2:	ee07 3a10 	vmov	s14, r3
 80027a6:	eef7 5a00 	vmov.f32	s11, #112	@ 0x3f800000  1.0
 80027aa:	eeb8 7ac7 	vcvt.f32.s32	s14, s14
 80027ae:	ee37 7a25 	vadd.f32	s14, s14, s11
 80027b2:	ee37 7a26 	vadd.f32	s14, s14, s13
 80027b6:	ee27 7a06 	vmul.f32	s14, s14, s12
 80027ba:	4b1d      	ldr	r3, [pc, #116]	@ (8002830 <HAL_RCC_GetSysClockFreq+0x100>)
 80027bc:	6b1b      	ldr	r3, [r3, #48]	@ 0x30
 80027be:	f3c3 2346 	ubfx	r3, r3, #9, #7
 80027c2:	3301      	adds	r3, #1
 80027c4:	ee07 3a90 	vmov	s15, r3
 80027c8:	eef8 6ae7 	vcvt.f32.s32	s13, s15
 80027cc:	eec7 7a26 	vdiv.f32	s15, s14, s13
 80027d0:	eefc 7ae7 	vcvt.u32.f32	s15, s15
 80027d4:	ee17 0a90 	vmov	r0, s15
 80027d8:	bc30      	pop	{r4, r5}
 80027da:	4770      	bx	lr
 80027dc:	4817      	ldr	r0, [pc, #92]	@ (800283c <HAL_RCC_GetSysClockFreq+0x10c>)
 80027de:	4770      	bx	lr
 80027e0:	4817      	ldr	r0, [pc, #92]	@ (8002840 <HAL_RCC_GetSysClockFreq+0x110>)
 80027e2:	4770      	bx	lr
 80027e4:	4813      	ldr	r0, [pc, #76]	@ (8002834 <HAL_RCC_GetSysClockFreq+0x104>)
 80027e6:	4770      	bx	lr
 80027e8:	6813      	ldr	r3, [r2, #0]
 80027ea:	069b      	lsls	r3, r3, #26
 80027ec:	d51d      	bpl.n	800282a <HAL_RCC_GetSysClockFreq+0xfa>
 80027ee:	6810      	ldr	r0, [r2, #0]
 80027f0:	eeb7 7a00 	vmov.f32	s14, #112	@ 0x3f800000  1.0
 80027f4:	6b13      	ldr	r3, [r2, #48]	@ 0x30
 80027f6:	490f      	ldr	r1, [pc, #60]	@ (8002834 <HAL_RCC_GetSysClockFreq+0x104>)
 80027f8:	f3c0 02c1 	ubfx	r2, r0, #3, #2
 80027fc:	f3c3 0308 	ubfx	r3, r3, #0, #9
 8002800:	40d1      	lsrs	r1, r2
 8002802:	ee06 3a10 	vmov	s12, r3
 8002806:	ee05 1a90 	vmov	s11, r1
 800280a:	eeb8 6ac6 	vcvt.f32.s32	s12, s12
 800280e:	eef8 5ae5 	vcvt.f32.s32	s11, s11
 8002812:	ee36 6a07 	vadd.f32	s12, s12, s14
 8002816:	ee85 7aa7 	vdiv.f32	s14, s11, s15
 800281a:	ee76 7a26 	vadd.f32	s15, s12, s13
 800281e:	ee27 7a27 	vmul.f32	s14, s14, s15
 8002822:	e7ca      	b.n	80027ba <HAL_RCC_GetSysClockFreq+0x8a>
 8002824:	ed9f 7a07 	vldr	s14, [pc, #28]	@ 8002844 <HAL_RCC_GetSysClockFreq+0x114>
 8002828:	e7b6      	b.n	8002798 <HAL_RCC_GetSysClockFreq+0x68>
 800282a:	ed9f 7a07 	vldr	s14, [pc, #28]	@ 8002848 <HAL_RCC_GetSysClockFreq+0x118>
 800282e:	e7b3      	b.n	8002798 <HAL_RCC_GetSysClockFreq+0x68>
 8002830:	58024400 	.word	0x58024400
 8002834:	03d09000 	.word	0x03d09000
 8002838:	4a742400 	.word	0x4a742400
 800283c:	017d7840 	.word	0x017d7840
 8002840:	003d0900 	.word	0x003d0900
 8002844:	4bbebc20 	.word	0x4bbebc20
 8002848:	4c742400 	.word	0x4c742400

0800284c <HAL_RCC_ClockConfig>:
 800284c:	2800      	cmp	r0, #0
 800284e:	f000 810e 	beq.w	8002a6e <HAL_RCC_ClockConfig+0x222>
 8002852:	4a8d      	ldr	r2, [pc, #564]	@ (8002a88 <HAL_RCC_ClockConfig+0x23c>)
 8002854:	6813      	ldr	r3, [r2, #0]
 8002856:	f003 030f 	and.w	r3, r3, #15
 800285a:	428b      	cmp	r3, r1
 800285c:	e92d 41f0 	stmdb	sp!, {r4, r5, r6, r7, r8, lr}
 8002860:	4604      	mov	r4, r0
 8002862:	460d      	mov	r5, r1
 8002864:	d20c      	bcs.n	8002880 <HAL_RCC_ClockConfig+0x34>
 8002866:	6813      	ldr	r3, [r2, #0]
 8002868:	f023 030f 	bic.w	r3, r3, #15
 800286c:	430b      	orrs	r3, r1
 800286e:	6013      	str	r3, [r2, #0]
 8002870:	6813      	ldr	r3, [r2, #0]
 8002872:	f003 030f 	and.w	r3, r3, #15
 8002876:	428b      	cmp	r3, r1
 8002878:	d002      	beq.n	8002880 <HAL_RCC_ClockConfig+0x34>
 800287a:	2001      	movs	r0, #1
 800287c:	e8bd 81f0 	ldmia.w	sp!, {r4, r5, r6, r7, r8, pc}
 8002880:	6823      	ldr	r3, [r4, #0]
 8002882:	0758      	lsls	r0, r3, #29
 8002884:	d50b      	bpl.n	800289e <HAL_RCC_ClockConfig+0x52>
 8002886:	4981      	ldr	r1, [pc, #516]	@ (8002a8c <HAL_RCC_ClockConfig+0x240>)
 8002888:	6920      	ldr	r0, [r4, #16]
 800288a:	698a      	ldr	r2, [r1, #24]
 800288c:	f002 0270 	and.w	r2, r2, #112	@ 0x70
 8002890:	4290      	cmp	r0, r2
 8002892:	d904      	bls.n	800289e <HAL_RCC_ClockConfig+0x52>
 8002894:	698a      	ldr	r2, [r1, #24]
 8002896:	f022 0270 	bic.w	r2, r2, #112	@ 0x70
 800289a:	4302      	orrs	r2, r0
 800289c:	618a      	str	r2, [r1, #24]
 800289e:	0719      	lsls	r1, r3, #28
 80028a0:	d50b      	bpl.n	80028ba <HAL_RCC_ClockConfig+0x6e>
 80028a2:	497a      	ldr	r1, [pc, #488]	@ (8002a8c <HAL_RCC_ClockConfig+0x240>)
 80028a4:	6960      	ldr	r0, [r4, #20]
 80028a6:	69ca      	ldr	r2, [r1, #28]
 80028a8:	f002 0270 	and.w	r2, r2, #112	@ 0x70
 80028ac:	4290      	cmp	r0, r2
 80028ae:	d904      	bls.n	80028ba <HAL_RCC_ClockConfig+0x6e>
 80028b0:	69ca      	ldr	r2, [r1, #28]
 80028b2:	f022 0270 	bic.w	r2, r2, #112	@ 0x70
 80028b6:	4302      	orrs	r2, r0
 80028b8:	61ca      	str	r2, [r1, #28]
 80028ba:	06da      	lsls	r2, r3, #27
 80028bc:	d50b      	bpl.n	80028d6 <HAL_RCC_ClockConfig+0x8a>
 80028be:	4973      	ldr	r1, [pc, #460]	@ (8002a8c <HAL_RCC_ClockConfig+0x240>)
 80028c0:	69a0      	ldr	r0, [r4, #24]
 80028c2:	69ca      	ldr	r2, [r1, #28]
 80028c4:	f402 62e0 	and.w	r2, r2, #1792	@ 0x700
 80028c8:	4290      	cmp	r0, r2
 80028ca:	d904      	bls.n	80028d6 <HAL_RCC_ClockConfig+0x8a>
 80028cc:	69ca      	ldr	r2, [r1, #28]
 80028ce:	f422 62e0 	bic.w	r2, r2, #1792	@ 0x700
 80028d2:	4302      	orrs	r2, r0
 80028d4:	61ca      	str	r2, [r1, #28]
 80028d6:	069f      	lsls	r7, r3, #26
 80028d8:	d50b      	bpl.n	80028f2 <HAL_RCC_ClockConfig+0xa6>
 80028da:	496c      	ldr	r1, [pc, #432]	@ (8002a8c <HAL_RCC_ClockConfig+0x240>)
 80028dc:	69e0      	ldr	r0, [r4, #28]
 80028de:	6a0a      	ldr	r2, [r1, #32]
 80028e0:	f002 0270 	and.w	r2, r2, #112	@ 0x70
 80028e4:	4290      	cmp	r0, r2
 80028e6:	d904      	bls.n	80028f2 <HAL_RCC_ClockConfig+0xa6>
 80028e8:	6a0a      	ldr	r2, [r1, #32]
 80028ea:	f022 0270 	bic.w	r2, r2, #112	@ 0x70
 80028ee:	4302      	orrs	r2, r0
 80028f0:	620a      	str	r2, [r1, #32]
 80028f2:	079e      	lsls	r6, r3, #30
 80028f4:	f003 0201 	and.w	r2, r3, #1
 80028f8:	f140 80ab 	bpl.w	8002a52 <HAL_RCC_ClockConfig+0x206>
 80028fc:	4e63      	ldr	r6, [pc, #396]	@ (8002a8c <HAL_RCC_ClockConfig+0x240>)
 80028fe:	68e0      	ldr	r0, [r4, #12]
 8002900:	69b1      	ldr	r1, [r6, #24]
 8002902:	f001 010f 	and.w	r1, r1, #15
 8002906:	4288      	cmp	r0, r1
 8002908:	d904      	bls.n	8002914 <HAL_RCC_ClockConfig+0xc8>
 800290a:	69b1      	ldr	r1, [r6, #24]
 800290c:	f021 010f 	bic.w	r1, r1, #15
 8002910:	4301      	orrs	r1, r0
 8002912:	61b1      	str	r1, [r6, #24]
 8002914:	2a00      	cmp	r2, #0
 8002916:	d030      	beq.n	800297a <HAL_RCC_ClockConfig+0x12e>
 8002918:	4a5c      	ldr	r2, [pc, #368]	@ (8002a8c <HAL_RCC_ClockConfig+0x240>)
 800291a:	68a1      	ldr	r1, [r4, #8]
 800291c:	6993      	ldr	r3, [r2, #24]
 800291e:	f423 6370 	bic.w	r3, r3, #3840	@ 0xf00
 8002922:	430b      	orrs	r3, r1
 8002924:	6193      	str	r3, [r2, #24]
 8002926:	6861      	ldr	r1, [r4, #4]
 8002928:	6813      	ldr	r3, [r2, #0]
 800292a:	2902      	cmp	r1, #2
 800292c:	f000 80a1 	beq.w	8002a72 <HAL_RCC_ClockConfig+0x226>
 8002930:	2903      	cmp	r1, #3
 8002932:	f000 8098 	beq.w	8002a66 <HAL_RCC_ClockConfig+0x21a>
 8002936:	2901      	cmp	r1, #1
 8002938:	f000 80a1 	beq.w	8002a7e <HAL_RCC_ClockConfig+0x232>
 800293c:	075f      	lsls	r7, r3, #29
 800293e:	d59c      	bpl.n	800287a <HAL_RCC_ClockConfig+0x2e>
 8002940:	4e52      	ldr	r6, [pc, #328]	@ (8002a8c <HAL_RCC_ClockConfig+0x240>)
 8002942:	f241 3888 	movw	r8, #5000	@ 0x1388
 8002946:	6933      	ldr	r3, [r6, #16]
 8002948:	f023 0307 	bic.w	r3, r3, #7
 800294c:	430b      	orrs	r3, r1
 800294e:	6133      	str	r3, [r6, #16]
 8002950:	f7ff f940 	bl	8001bd4 <HAL_GetTick>
 8002954:	4607      	mov	r7, r0
 8002956:	e005      	b.n	8002964 <HAL_RCC_ClockConfig+0x118>
 8002958:	f7ff f93c 	bl	8001bd4 <HAL_GetTick>
 800295c:	1bc0      	subs	r0, r0, r7
 800295e:	4540      	cmp	r0, r8
 8002960:	f200 808b 	bhi.w	8002a7a <HAL_RCC_ClockConfig+0x22e>
 8002964:	6933      	ldr	r3, [r6, #16]
 8002966:	6862      	ldr	r2, [r4, #4]
 8002968:	f003 0338 	and.w	r3, r3, #56	@ 0x38
 800296c:	ebb3 0fc2 	cmp.w	r3, r2, lsl #3
 8002970:	d1f2      	bne.n	8002958 <HAL_RCC_ClockConfig+0x10c>
 8002972:	6823      	ldr	r3, [r4, #0]
 8002974:	079e      	lsls	r6, r3, #30
 8002976:	d506      	bpl.n	8002986 <HAL_RCC_ClockConfig+0x13a>
 8002978:	68e0      	ldr	r0, [r4, #12]
 800297a:	4944      	ldr	r1, [pc, #272]	@ (8002a8c <HAL_RCC_ClockConfig+0x240>)
 800297c:	698a      	ldr	r2, [r1, #24]
 800297e:	f002 020f 	and.w	r2, r2, #15
 8002982:	4282      	cmp	r2, r0
 8002984:	d869      	bhi.n	8002a5a <HAL_RCC_ClockConfig+0x20e>
 8002986:	4940      	ldr	r1, [pc, #256]	@ (8002a88 <HAL_RCC_ClockConfig+0x23c>)
 8002988:	680a      	ldr	r2, [r1, #0]
 800298a:	f002 020f 	and.w	r2, r2, #15
 800298e:	42aa      	cmp	r2, r5
 8002990:	d90a      	bls.n	80029a8 <HAL_RCC_ClockConfig+0x15c>
 8002992:	680a      	ldr	r2, [r1, #0]
 8002994:	f022 020f 	bic.w	r2, r2, #15
 8002998:	432a      	orrs	r2, r5
 800299a:	600a      	str	r2, [r1, #0]
 800299c:	680a      	ldr	r2, [r1, #0]
 800299e:	f002 020f 	and.w	r2, r2, #15
 80029a2:	42aa      	cmp	r2, r5
 80029a4:	f47f af69 	bne.w	800287a <HAL_RCC_ClockConfig+0x2e>
 80029a8:	0758      	lsls	r0, r3, #29
 80029aa:	d50b      	bpl.n	80029c4 <HAL_RCC_ClockConfig+0x178>
 80029ac:	4937      	ldr	r1, [pc, #220]	@ (8002a8c <HAL_RCC_ClockConfig+0x240>)
 80029ae:	6920      	ldr	r0, [r4, #16]
 80029b0:	698a      	ldr	r2, [r1, #24]
 80029b2:	f002 0270 	and.w	r2, r2, #112	@ 0x70
 80029b6:	4290      	cmp	r0, r2
 80029b8:	d204      	bcs.n	80029c4 <HAL_RCC_ClockConfig+0x178>
 80029ba:	698a      	ldr	r2, [r1, #24]
 80029bc:	f022 0270 	bic.w	r2, r2, #112	@ 0x70
 80029c0:	4302      	orrs	r2, r0
 80029c2:	618a      	str	r2, [r1, #24]
 80029c4:	0719      	lsls	r1, r3, #28
 80029c6:	d50b      	bpl.n	80029e0 <HAL_RCC_ClockConfig+0x194>
 80029c8:	4930      	ldr	r1, [pc, #192]	@ (8002a8c <HAL_RCC_ClockConfig+0x240>)
 80029ca:	6960      	ldr	r0, [r4, #20]
 80029cc:	69ca      	ldr	r2, [r1, #28]
 80029ce:	f002 0270 	and.w	r2, r2, #112	@ 0x70
 80029d2:	4290      	cmp	r0, r2
 80029d4:	d204      	bcs.n	80029e0 <HAL_RCC_ClockConfig+0x194>
 80029d6:	69ca      	ldr	r2, [r1, #28]
 80029d8:	f022 0270 	bic.w	r2, r2, #112	@ 0x70
 80029dc:	4302      	orrs	r2, r0
 80029de:	61ca      	str	r2, [r1, #28]
 80029e0:	06da      	lsls	r2, r3, #27
 80029e2:	d50b      	bpl.n	80029fc <HAL_RCC_ClockConfig+0x1b0>
 80029e4:	4929      	ldr	r1, [pc, #164]	@ (8002a8c <HAL_RCC_ClockConfig+0x240>)
 80029e6:	69a0      	ldr	r0, [r4, #24]
 80029e8:	69ca      	ldr	r2, [r1, #28]
 80029ea:	f402 62e0 	and.w	r2, r2, #1792	@ 0x700
 80029ee:	4290      	cmp	r0, r2
 80029f0:	d204      	bcs.n	80029fc <HAL_RCC_ClockConfig+0x1b0>
 80029f2:	69ca      	ldr	r2, [r1, #28]
 80029f4:	f422 62e0 	bic.w	r2, r2, #1792	@ 0x700
 80029f8:	4302      	orrs	r2, r0
 80029fa:	61ca      	str	r2, [r1, #28]
 80029fc:	069b      	lsls	r3, r3, #26
 80029fe:	d50b      	bpl.n	8002a18 <HAL_RCC_ClockConfig+0x1cc>
 8002a00:	4a22      	ldr	r2, [pc, #136]	@ (8002a8c <HAL_RCC_ClockConfig+0x240>)
 8002a02:	69e1      	ldr	r1, [r4, #28]
 8002a04:	6a13      	ldr	r3, [r2, #32]
 8002a06:	f003 0370 	and.w	r3, r3, #112	@ 0x70
 8002a0a:	4299      	cmp	r1, r3
 8002a0c:	d204      	bcs.n	8002a18 <HAL_RCC_ClockConfig+0x1cc>
 8002a0e:	6a13      	ldr	r3, [r2, #32]
 8002a10:	f023 0370 	bic.w	r3, r3, #112	@ 0x70
 8002a14:	430b      	orrs	r3, r1
 8002a16:	6213      	str	r3, [r2, #32]
 8002a18:	f7ff fe8a 	bl	8002730 <HAL_RCC_GetSysClockFreq>
 8002a1c:	4a1b      	ldr	r2, [pc, #108]	@ (8002a8c <HAL_RCC_ClockConfig+0x240>)
 8002a1e:	4603      	mov	r3, r0
 8002a20:	481b      	ldr	r0, [pc, #108]	@ (8002a90 <HAL_RCC_ClockConfig+0x244>)
 8002a22:	6991      	ldr	r1, [r2, #24]
 8002a24:	6992      	ldr	r2, [r2, #24]
 8002a26:	f3c1 2103 	ubfx	r1, r1, #8, #4
 8002a2a:	4d1a      	ldr	r5, [pc, #104]	@ (8002a94 <HAL_RCC_ClockConfig+0x248>)
 8002a2c:	f002 020f 	and.w	r2, r2, #15
 8002a30:	4c19      	ldr	r4, [pc, #100]	@ (8002a98 <HAL_RCC_ClockConfig+0x24c>)
 8002a32:	5c41      	ldrb	r1, [r0, r1]
 8002a34:	5c82      	ldrb	r2, [r0, r2]
 8002a36:	f001 011f 	and.w	r1, r1, #31
 8002a3a:	4818      	ldr	r0, [pc, #96]	@ (8002a9c <HAL_RCC_ClockConfig+0x250>)
 8002a3c:	f002 021f 	and.w	r2, r2, #31
 8002a40:	40cb      	lsrs	r3, r1
 8002a42:	6800      	ldr	r0, [r0, #0]
 8002a44:	602b      	str	r3, [r5, #0]
 8002a46:	40d3      	lsrs	r3, r2
 8002a48:	6023      	str	r3, [r4, #0]
 8002a4a:	e8bd 41f0 	ldmia.w	sp!, {r4, r5, r6, r7, r8, lr}
 8002a4e:	f7ff b85f 	b.w	8001b10 <HAL_InitTick>
 8002a52:	2a00      	cmp	r2, #0
 8002a54:	f47f af60 	bne.w	8002918 <HAL_RCC_ClockConfig+0xcc>
 8002a58:	e795      	b.n	8002986 <HAL_RCC_ClockConfig+0x13a>
 8002a5a:	698a      	ldr	r2, [r1, #24]
 8002a5c:	f022 020f 	bic.w	r2, r2, #15
 8002a60:	4302      	orrs	r2, r0
 8002a62:	618a      	str	r2, [r1, #24]
 8002a64:	e78f      	b.n	8002986 <HAL_RCC_ClockConfig+0x13a>
 8002a66:	019a      	lsls	r2, r3, #6
 8002a68:	f53f af6a 	bmi.w	8002940 <HAL_RCC_ClockConfig+0xf4>
 8002a6c:	e705      	b.n	800287a <HAL_RCC_ClockConfig+0x2e>
 8002a6e:	2001      	movs	r0, #1
 8002a70:	4770      	bx	lr
 8002a72:	0398      	lsls	r0, r3, #14
 8002a74:	f53f af64 	bmi.w	8002940 <HAL_RCC_ClockConfig+0xf4>
 8002a78:	e6ff      	b.n	800287a <HAL_RCC_ClockConfig+0x2e>
 8002a7a:	2003      	movs	r0, #3
 8002a7c:	e6fe      	b.n	800287c <HAL_RCC_ClockConfig+0x30>
 8002a7e:	05db      	lsls	r3, r3, #23
 8002a80:	f53f af5e 	bmi.w	8002940 <HAL_RCC_ClockConfig+0xf4>
 8002a84:	e6f9      	b.n	800287a <HAL_RCC_ClockConfig+0x2e>
 8002a86:	bf00      	nop
 8002a88:	52002000 	.word	0x52002000
 8002a8c:	58024400 	.word	0x58024400
 8002a90:	080084e4 	.word	0x080084e4
 8002a94:	2000000c 	.word	0x2000000c
 8002a98:	20000008 	.word	0x20000008
 8002a9c:	20000004 	.word	0x20000004

08002aa0 <RCCEx_PLL2_Config.part.0>:
 8002aa0:	b5f8      	push	{r3, r4, r5, r6, r7, lr}
 8002aa2:	4c36      	ldr	r4, [pc, #216]	@ (8002b7c <RCCEx_PLL2_Config.part.0+0xdc>)
 8002aa4:	4606      	mov	r6, r0
 8002aa6:	460f      	mov	r7, r1
 8002aa8:	6823      	ldr	r3, [r4, #0]
 8002aaa:	f023 6380 	bic.w	r3, r3, #67108864	@ 0x4000000
 8002aae:	6023      	str	r3, [r4, #0]
 8002ab0:	f7ff f890 	bl	8001bd4 <HAL_GetTick>
 8002ab4:	4605      	mov	r5, r0
 8002ab6:	e004      	b.n	8002ac2 <RCCEx_PLL2_Config.part.0+0x22>
 8002ab8:	f7ff f88c 	bl	8001bd4 <HAL_GetTick>
 8002abc:	1b40      	subs	r0, r0, r5
 8002abe:	2802      	cmp	r0, #2
 8002ac0:	d856      	bhi.n	8002b70 <RCCEx_PLL2_Config.part.0+0xd0>
 8002ac2:	6823      	ldr	r3, [r4, #0]
 8002ac4:	011a      	lsls	r2, r3, #4
 8002ac6:	d4f7      	bmi.n	8002ab8 <RCCEx_PLL2_Config.part.0+0x18>
 8002ac8:	6aa3      	ldr	r3, [r4, #40]	@ 0x28
 8002aca:	6832      	ldr	r2, [r6, #0]
 8002acc:	f423 337c 	bic.w	r3, r3, #258048	@ 0x3f000
 8002ad0:	ea43 3302 	orr.w	r3, r3, r2, lsl #12
 8002ad4:	62a3      	str	r3, [r4, #40]	@ 0x28
 8002ad6:	e9d6 3202 	ldrd	r3, r2, [r6, #8]
 8002ada:	3b01      	subs	r3, #1
 8002adc:	3a01      	subs	r2, #1
 8002ade:	025b      	lsls	r3, r3, #9
 8002ae0:	0412      	lsls	r2, r2, #16
 8002ae2:	b29b      	uxth	r3, r3
 8002ae4:	f402 02fe 	and.w	r2, r2, #8323072	@ 0x7f0000
 8002ae8:	4313      	orrs	r3, r2
 8002aea:	6872      	ldr	r2, [r6, #4]
 8002aec:	3a01      	subs	r2, #1
 8002aee:	f3c2 0208 	ubfx	r2, r2, #0, #9
 8002af2:	4313      	orrs	r3, r2
 8002af4:	6932      	ldr	r2, [r6, #16]
 8002af6:	3a01      	subs	r2, #1
 8002af8:	0612      	lsls	r2, r2, #24
 8002afa:	f002 42fe 	and.w	r2, r2, #2130706432	@ 0x7f000000
 8002afe:	4313      	orrs	r3, r2
 8002b00:	63a3      	str	r3, [r4, #56]	@ 0x38
 8002b02:	6ae3      	ldr	r3, [r4, #44]	@ 0x2c
 8002b04:	6972      	ldr	r2, [r6, #20]
 8002b06:	f023 03c0 	bic.w	r3, r3, #192	@ 0xc0
 8002b0a:	4313      	orrs	r3, r2
 8002b0c:	62e3      	str	r3, [r4, #44]	@ 0x2c
 8002b0e:	6ae3      	ldr	r3, [r4, #44]	@ 0x2c
 8002b10:	69b2      	ldr	r2, [r6, #24]
 8002b12:	f023 0320 	bic.w	r3, r3, #32
 8002b16:	4313      	orrs	r3, r2
 8002b18:	62e3      	str	r3, [r4, #44]	@ 0x2c
 8002b1a:	6ae3      	ldr	r3, [r4, #44]	@ 0x2c
 8002b1c:	f023 0310 	bic.w	r3, r3, #16
 8002b20:	62e3      	str	r3, [r4, #44]	@ 0x2c
 8002b22:	6be3      	ldr	r3, [r4, #60]	@ 0x3c
 8002b24:	69f2      	ldr	r2, [r6, #28]
 8002b26:	f36f 03cf 	bfc	r3, #3, #13
 8002b2a:	ea43 03c2 	orr.w	r3, r3, r2, lsl #3
 8002b2e:	63e3      	str	r3, [r4, #60]	@ 0x3c
 8002b30:	6ae3      	ldr	r3, [r4, #44]	@ 0x2c
 8002b32:	f043 0310 	orr.w	r3, r3, #16
 8002b36:	62e3      	str	r3, [r4, #44]	@ 0x2c
 8002b38:	6ae3      	ldr	r3, [r4, #44]	@ 0x2c
 8002b3a:	b1df      	cbz	r7, 8002b74 <RCCEx_PLL2_Config.part.0+0xd4>
 8002b3c:	2f01      	cmp	r7, #1
 8002b3e:	bf0c      	ite	eq
 8002b40:	f443 1380 	orreq.w	r3, r3, #1048576	@ 0x100000
 8002b44:	f443 1300 	orrne.w	r3, r3, #2097152	@ 0x200000
 8002b48:	62e3      	str	r3, [r4, #44]	@ 0x2c
 8002b4a:	4c0c      	ldr	r4, [pc, #48]	@ (8002b7c <RCCEx_PLL2_Config.part.0+0xdc>)
 8002b4c:	6823      	ldr	r3, [r4, #0]
 8002b4e:	f043 6380 	orr.w	r3, r3, #67108864	@ 0x4000000
 8002b52:	6023      	str	r3, [r4, #0]
 8002b54:	f7ff f83e 	bl	8001bd4 <HAL_GetTick>
 8002b58:	4605      	mov	r5, r0
 8002b5a:	e004      	b.n	8002b66 <RCCEx_PLL2_Config.part.0+0xc6>
 8002b5c:	f7ff f83a 	bl	8001bd4 <HAL_GetTick>
 8002b60:	1b40      	subs	r0, r0, r5
 8002b62:	2802      	cmp	r0, #2
 8002b64:	d804      	bhi.n	8002b70 <RCCEx_PLL2_Config.part.0+0xd0>
 8002b66:	6823      	ldr	r3, [r4, #0]
 8002b68:	011b      	lsls	r3, r3, #4
 8002b6a:	d5f7      	bpl.n	8002b5c <RCCEx_PLL2_Config.part.0+0xbc>
 8002b6c:	2000      	movs	r0, #0
 8002b6e:	bdf8      	pop	{r3, r4, r5, r6, r7, pc}
 8002b70:	2003      	movs	r0, #3
 8002b72:	bdf8      	pop	{r3, r4, r5, r6, r7, pc}
 8002b74:	f443 2300 	orr.w	r3, r3, #524288	@ 0x80000
 8002b78:	62e3      	str	r3, [r4, #44]	@ 0x2c
 8002b7a:	e7e6      	b.n	8002b4a <RCCEx_PLL2_Config.part.0+0xaa>
 8002b7c:	58024400 	.word	0x58024400

08002b80 <RCCEx_PLL3_Config.part.0>:
 8002b80:	b5f8      	push	{r3, r4, r5, r6, r7, lr}
 8002b82:	4c36      	ldr	r4, [pc, #216]	@ (8002c5c <RCCEx_PLL3_Config.part.0+0xdc>)
 8002b84:	4606      	mov	r6, r0
 8002b86:	460f      	mov	r7, r1
 8002b88:	6823      	ldr	r3, [r4, #0]
 8002b8a:	f023 5380 	bic.w	r3, r3, #268435456	@ 0x10000000
 8002b8e:	6023      	str	r3, [r4, #0]
 8002b90:	f7ff f820 	bl	8001bd4 <HAL_GetTick>
 8002b94:	4605      	mov	r5, r0
 8002b96:	e004      	b.n	8002ba2 <RCCEx_PLL3_Config.part.0+0x22>
 8002b98:	f7ff f81c 	bl	8001bd4 <HAL_GetTick>
 8002b9c:	1b40      	subs	r0, r0, r5
 8002b9e:	2802      	cmp	r0, #2
 8002ba0:	d856      	bhi.n	8002c50 <RCCEx_PLL3_Config.part.0+0xd0>
 8002ba2:	6823      	ldr	r3, [r4, #0]
 8002ba4:	009a      	lsls	r2, r3, #2
 8002ba6:	d4f7      	bmi.n	8002b98 <RCCEx_PLL3_Config.part.0+0x18>
 8002ba8:	6aa3      	ldr	r3, [r4, #40]	@ 0x28
 8002baa:	6832      	ldr	r2, [r6, #0]
 8002bac:	f023 737c 	bic.w	r3, r3, #66060288	@ 0x3f00000
 8002bb0:	ea43 5302 	orr.w	r3, r3, r2, lsl #20
 8002bb4:	62a3      	str	r3, [r4, #40]	@ 0x28
 8002bb6:	e9d6 3202 	ldrd	r3, r2, [r6, #8]
 8002bba:	3b01      	subs	r3, #1
 8002bbc:	3a01      	subs	r2, #1
 8002bbe:	025b      	lsls	r3, r3, #9
 8002bc0:	0412      	lsls	r2, r2, #16
 8002bc2:	b29b      	uxth	r3, r3
 8002bc4:	f402 02fe 	and.w	r2, r2, #8323072	@ 0x7f0000
 8002bc8:	4313      	orrs	r3, r2
 8002bca:	6872      	ldr	r2, [r6, #4]
 8002bcc:	3a01      	subs	r2, #1
 8002bce:	f3c2 0208 	ubfx	r2, r2, #0, #9
 8002bd2:	4313      	orrs	r3, r2
 8002bd4:	6932      	ldr	r2, [r6, #16]
 8002bd6:	3a01      	subs	r2, #1
 8002bd8:	0612      	lsls	r2, r2, #24
 8002bda:	f002 42fe 	and.w	r2, r2, #2130706432	@ 0x7f000000
 8002bde:	4313      	orrs	r3, r2
 8002be0:	6423      	str	r3, [r4, #64]	@ 0x40
 8002be2:	6ae3      	ldr	r3, [r4, #44]	@ 0x2c
 8002be4:	6972      	ldr	r2, [r6, #20]
 8002be6:	f423 6340 	bic.w	r3, r3, #3072	@ 0xc00
 8002bea:	4313      	orrs	r3, r2
 8002bec:	62e3      	str	r3, [r4, #44]	@ 0x2c
 8002bee:	6ae3      	ldr	r3, [r4, #44]	@ 0x2c
 8002bf0:	69b2      	ldr	r2, [r6, #24]
 8002bf2:	f423 7300 	bic.w	r3, r3, #512	@ 0x200
 8002bf6:	4313      	orrs	r3, r2
 8002bf8:	62e3      	str	r3, [r4, #44]	@ 0x2c
 8002bfa:	6ae3      	ldr	r3, [r4, #44]	@ 0x2c
 8002bfc:	f423 7380 	bic.w	r3, r3, #256	@ 0x100
 8002c00:	62e3      	str	r3, [r4, #44]	@ 0x2c
 8002c02:	6c63      	ldr	r3, [r4, #68]	@ 0x44
 8002c04:	69f2      	ldr	r2, [r6, #28]
 8002c06:	f36f 03cf 	bfc	r3, #3, #13
 8002c0a:	ea43 03c2 	orr.w	r3, r3, r2, lsl #3
 8002c0e:	6463      	str	r3, [r4, #68]	@ 0x44
 8002c10:	6ae3      	ldr	r3, [r4, #44]	@ 0x2c
 8002c12:	f443 7380 	orr.w	r3, r3, #256	@ 0x100
 8002c16:	62e3      	str	r3, [r4, #44]	@ 0x2c
 8002c18:	6ae3      	ldr	r3, [r4, #44]	@ 0x2c
 8002c1a:	b1df      	cbz	r7, 8002c54 <RCCEx_PLL3_Config.part.0+0xd4>
 8002c1c:	2f01      	cmp	r7, #1
 8002c1e:	bf0c      	ite	eq
 8002c20:	f443 0300 	orreq.w	r3, r3, #8388608	@ 0x800000
 8002c24:	f043 7380 	orrne.w	r3, r3, #16777216	@ 0x1000000
 8002c28:	62e3      	str	r3, [r4, #44]	@ 0x2c
 8002c2a:	4c0c      	ldr	r4, [pc, #48]	@ (8002c5c <RCCEx_PLL3_Config.part.0+0xdc>)
 8002c2c:	6823      	ldr	r3, [r4, #0]
 8002c2e:	f043 5380 	orr.w	r3, r3, #268435456	@ 0x10000000
 8002c32:	6023      	str	r3, [r4, #0]
 8002c34:	f7fe ffce 	bl	8001bd4 <HAL_GetTick>
 8002c38:	4605      	mov	r5, r0
 8002c3a:	e004      	b.n	8002c46 <RCCEx_PLL3_Config.part.0+0xc6>
 8002c3c:	f7fe ffca 	bl	8001bd4 <HAL_GetTick>
 8002c40:	1b40      	subs	r0, r0, r5
 8002c42:	2802      	cmp	r0, #2
 8002c44:	d804      	bhi.n	8002c50 <RCCEx_PLL3_Config.part.0+0xd0>
 8002c46:	6823      	ldr	r3, [r4, #0]
 8002c48:	009b      	lsls	r3, r3, #2
 8002c4a:	d5f7      	bpl.n	8002c3c <RCCEx_PLL3_Config.part.0+0xbc>
 8002c4c:	2000      	movs	r0, #0
 8002c4e:	bdf8      	pop	{r3, r4, r5, r6, r7, pc}
 8002c50:	2003      	movs	r0, #3
 8002c52:	bdf8      	pop	{r3, r4, r5, r6, r7, pc}
 8002c54:	f443 0380 	orr.w	r3, r3, #4194304	@ 0x400000
 8002c58:	62e3      	str	r3, [r4, #44]	@ 0x2c
 8002c5a:	e7e6      	b.n	8002c2a <RCCEx_PLL3_Config.part.0+0xaa>
 8002c5c:	58024400 	.word	0x58024400

08002c60 <HAL_RCCEx_PeriphCLKConfig>:
 8002c60:	e92d 43f8 	stmdb	sp!, {r3, r4, r5, r6, r7, r8, r9, lr}
 8002c64:	6803      	ldr	r3, [r0, #0]
 8002c66:	4604      	mov	r4, r0
 8002c68:	f013 6600 	ands.w	r6, r3, #134217728	@ 0x8000000
 8002c6c:	d024      	beq.n	8002cb8 <HAL_RCCEx_PeriphCLKConfig+0x58>
 8002c6e:	6e42      	ldr	r2, [r0, #100]	@ 0x64
 8002c70:	f5b2 1f00 	cmp.w	r2, #2097152	@ 0x200000
 8002c74:	f000 8557 	beq.w	8003726 <HAL_RCCEx_PeriphCLKConfig+0xac6>
 8002c78:	f200 860c 	bhi.w	8003894 <HAL_RCCEx_PeriphCLKConfig+0xc34>
 8002c7c:	2a00      	cmp	r2, #0
 8002c7e:	f000 8529 	beq.w	80036d4 <HAL_RCCEx_PeriphCLKConfig+0xa74>
 8002c82:	f5b2 1f80 	cmp.w	r2, #1048576	@ 0x100000
 8002c86:	f040 8609 	bne.w	800389c <HAL_RCCEx_PeriphCLKConfig+0xc3c>
 8002c8a:	4aa3      	ldr	r2, [pc, #652]	@ (8002f18 <HAL_RCCEx_PeriphCLKConfig+0x2b8>)
 8002c8c:	6a92      	ldr	r2, [r2, #40]	@ 0x28
 8002c8e:	f002 0203 	and.w	r2, r2, #3
 8002c92:	2a03      	cmp	r2, #3
 8002c94:	f000 8602 	beq.w	800389c <HAL_RCCEx_PeriphCLKConfig+0xc3c>
 8002c98:	2102      	movs	r1, #2
 8002c9a:	3004      	adds	r0, #4
 8002c9c:	f7ff ff00 	bl	8002aa0 <RCCEx_PLL2_Config.part.0>
 8002ca0:	6823      	ldr	r3, [r4, #0]
 8002ca2:	2800      	cmp	r0, #0
 8002ca4:	f040 8622 	bne.w	80038ec <HAL_RCCEx_PeriphCLKConfig+0xc8c>
 8002ca8:	6e62      	ldr	r2, [r4, #100]	@ 0x64
 8002caa:	489b      	ldr	r0, [pc, #620]	@ (8002f18 <HAL_RCCEx_PeriphCLKConfig+0x2b8>)
 8002cac:	2600      	movs	r6, #0
 8002cae:	6d01      	ldr	r1, [r0, #80]	@ 0x50
 8002cb0:	f421 1140 	bic.w	r1, r1, #3145728	@ 0x300000
 8002cb4:	430a      	orrs	r2, r1
 8002cb6:	6502      	str	r2, [r0, #80]	@ 0x50
 8002cb8:	05dd      	lsls	r5, r3, #23
 8002cba:	d50a      	bpl.n	8002cd2 <HAL_RCCEx_PeriphCLKConfig+0x72>
 8002cbc:	6d62      	ldr	r2, [r4, #84]	@ 0x54
 8002cbe:	2a04      	cmp	r2, #4
 8002cc0:	d806      	bhi.n	8002cd0 <HAL_RCCEx_PeriphCLKConfig+0x70>
 8002cc2:	e8df f012 	tbh	[pc, r2, lsl #1]
 8002cc6:	0376      	.short	0x0376
 8002cc8:	049b04e9 	.word	0x049b04e9
 8002ccc:	037b037b 	.word	0x037b037b
 8002cd0:	2601      	movs	r6, #1
 8002cd2:	4635      	mov	r5, r6
 8002cd4:	0598      	lsls	r0, r3, #22
 8002cd6:	d522      	bpl.n	8002d1e <HAL_RCCEx_PeriphCLKConfig+0xbe>
 8002cd8:	6da2      	ldr	r2, [r4, #88]	@ 0x58
 8002cda:	2a80      	cmp	r2, #128	@ 0x80
 8002cdc:	f000 84ad 	beq.w	800363a <HAL_RCCEx_PeriphCLKConfig+0x9da>
 8002ce0:	f200 85bf 	bhi.w	8003862 <HAL_RCCEx_PeriphCLKConfig+0xc02>
 8002ce4:	2a00      	cmp	r2, #0
 8002ce6:	f000 84bc 	beq.w	8003662 <HAL_RCCEx_PeriphCLKConfig+0xa02>
 8002cea:	2a40      	cmp	r2, #64	@ 0x40
 8002cec:	f040 85c0 	bne.w	8003870 <HAL_RCCEx_PeriphCLKConfig+0xc10>
 8002cf0:	4a89      	ldr	r2, [pc, #548]	@ (8002f18 <HAL_RCCEx_PeriphCLKConfig+0x2b8>)
 8002cf2:	6a92      	ldr	r2, [r2, #40]	@ 0x28
 8002cf4:	f002 0203 	and.w	r2, r2, #3
 8002cf8:	2a03      	cmp	r2, #3
 8002cfa:	f000 85b9 	beq.w	8003870 <HAL_RCCEx_PeriphCLKConfig+0xc10>
 8002cfe:	2100      	movs	r1, #0
 8002d00:	1d20      	adds	r0, r4, #4
 8002d02:	f7ff fecd 	bl	8002aa0 <RCCEx_PLL2_Config.part.0>
 8002d06:	6823      	ldr	r3, [r4, #0]
 8002d08:	4605      	mov	r5, r0
 8002d0a:	2d00      	cmp	r5, #0
 8002d0c:	f040 84a6 	bne.w	800365c <HAL_RCCEx_PeriphCLKConfig+0x9fc>
 8002d10:	4981      	ldr	r1, [pc, #516]	@ (8002f18 <HAL_RCCEx_PeriphCLKConfig+0x2b8>)
 8002d12:	6da0      	ldr	r0, [r4, #88]	@ 0x58
 8002d14:	6d0a      	ldr	r2, [r1, #80]	@ 0x50
 8002d16:	f422 72e0 	bic.w	r2, r2, #448	@ 0x1c0
 8002d1a:	4302      	orrs	r2, r0
 8002d1c:	650a      	str	r2, [r1, #80]	@ 0x50
 8002d1e:	0559      	lsls	r1, r3, #21
 8002d20:	d526      	bpl.n	8002d70 <HAL_RCCEx_PeriphCLKConfig+0x110>
 8002d22:	f8d4 20a4 	ldr.w	r2, [r4, #164]	@ 0xa4
 8002d26:	f5b2 0f80 	cmp.w	r2, #4194304	@ 0x400000
 8002d2a:	f000 84e5 	beq.w	80036f8 <HAL_RCCEx_PeriphCLKConfig+0xa98>
 8002d2e:	f200 85a5 	bhi.w	800387c <HAL_RCCEx_PeriphCLKConfig+0xc1c>
 8002d32:	2a00      	cmp	r2, #0
 8002d34:	f000 84d5 	beq.w	80036e2 <HAL_RCCEx_PeriphCLKConfig+0xa82>
 8002d38:	f5b2 1f00 	cmp.w	r2, #2097152	@ 0x200000
 8002d3c:	f040 85a6 	bne.w	800388c <HAL_RCCEx_PeriphCLKConfig+0xc2c>
 8002d40:	4a75      	ldr	r2, [pc, #468]	@ (8002f18 <HAL_RCCEx_PeriphCLKConfig+0x2b8>)
 8002d42:	6a92      	ldr	r2, [r2, #40]	@ 0x28
 8002d44:	f002 0203 	and.w	r2, r2, #3
 8002d48:	2a03      	cmp	r2, #3
 8002d4a:	f000 859f 	beq.w	800388c <HAL_RCCEx_PeriphCLKConfig+0xc2c>
 8002d4e:	2100      	movs	r1, #0
 8002d50:	1d20      	adds	r0, r4, #4
 8002d52:	f7ff fea5 	bl	8002aa0 <RCCEx_PLL2_Config.part.0>
 8002d56:	6823      	ldr	r3, [r4, #0]
 8002d58:	4605      	mov	r5, r0
 8002d5a:	2d00      	cmp	r5, #0
 8002d5c:	f040 84c9 	bne.w	80036f2 <HAL_RCCEx_PeriphCLKConfig+0xa92>
 8002d60:	496d      	ldr	r1, [pc, #436]	@ (8002f18 <HAL_RCCEx_PeriphCLKConfig+0x2b8>)
 8002d62:	f8d4 00a4 	ldr.w	r0, [r4, #164]	@ 0xa4
 8002d66:	6d8a      	ldr	r2, [r1, #88]	@ 0x58
 8002d68:	f422 0260 	bic.w	r2, r2, #14680064	@ 0xe00000
 8002d6c:	4302      	orrs	r2, r0
 8002d6e:	658a      	str	r2, [r1, #88]	@ 0x58
 8002d70:	051a      	lsls	r2, r3, #20
 8002d72:	d526      	bpl.n	8002dc2 <HAL_RCCEx_PeriphCLKConfig+0x162>
 8002d74:	f8d4 20a8 	ldr.w	r2, [r4, #168]	@ 0xa8
 8002d78:	f1b2 7f00 	cmp.w	r2, #33554432	@ 0x2000000
 8002d7c:	f000 849a 	beq.w	80036b4 <HAL_RCCEx_PeriphCLKConfig+0xa54>
 8002d80:	f200 8563 	bhi.w	800384a <HAL_RCCEx_PeriphCLKConfig+0xbea>
 8002d84:	2a00      	cmp	r2, #0
 8002d86:	f000 844d 	beq.w	8003624 <HAL_RCCEx_PeriphCLKConfig+0x9c4>
 8002d8a:	f1b2 7f80 	cmp.w	r2, #16777216	@ 0x1000000
 8002d8e:	f040 8564 	bne.w	800385a <HAL_RCCEx_PeriphCLKConfig+0xbfa>
 8002d92:	4a61      	ldr	r2, [pc, #388]	@ (8002f18 <HAL_RCCEx_PeriphCLKConfig+0x2b8>)
 8002d94:	6a92      	ldr	r2, [r2, #40]	@ 0x28
 8002d96:	f002 0203 	and.w	r2, r2, #3
 8002d9a:	2a03      	cmp	r2, #3
 8002d9c:	f000 855d 	beq.w	800385a <HAL_RCCEx_PeriphCLKConfig+0xbfa>
 8002da0:	2100      	movs	r1, #0
 8002da2:	1d20      	adds	r0, r4, #4
 8002da4:	f7ff fe7c 	bl	8002aa0 <RCCEx_PLL2_Config.part.0>
 8002da8:	6823      	ldr	r3, [r4, #0]
 8002daa:	4605      	mov	r5, r0
 8002dac:	2d00      	cmp	r5, #0
 8002dae:	f040 8441 	bne.w	8003634 <HAL_RCCEx_PeriphCLKConfig+0x9d4>
 8002db2:	4959      	ldr	r1, [pc, #356]	@ (8002f18 <HAL_RCCEx_PeriphCLKConfig+0x2b8>)
 8002db4:	f8d4 00a8 	ldr.w	r0, [r4, #168]	@ 0xa8
 8002db8:	6d8a      	ldr	r2, [r1, #88]	@ 0x58
 8002dba:	f022 62e0 	bic.w	r2, r2, #117440512	@ 0x7000000
 8002dbe:	4302      	orrs	r2, r0
 8002dc0:	658a      	str	r2, [r1, #88]	@ 0x58
 8002dc2:	019f      	lsls	r7, r3, #6
 8002dc4:	d518      	bpl.n	8002df8 <HAL_RCCEx_PeriphCLKConfig+0x198>
 8002dc6:	6ca2      	ldr	r2, [r4, #72]	@ 0x48
 8002dc8:	2a20      	cmp	r2, #32
 8002dca:	f000 83f4 	beq.w	80035b6 <HAL_RCCEx_PeriphCLKConfig+0x956>
 8002dce:	f200 8568 	bhi.w	80038a2 <HAL_RCCEx_PeriphCLKConfig+0xc42>
 8002dd2:	b13a      	cbz	r2, 8002de4 <HAL_RCCEx_PeriphCLKConfig+0x184>
 8002dd4:	2a10      	cmp	r2, #16
 8002dd6:	f040 8567 	bne.w	80038a8 <HAL_RCCEx_PeriphCLKConfig+0xc48>
 8002dda:	494f      	ldr	r1, [pc, #316]	@ (8002f18 <HAL_RCCEx_PeriphCLKConfig+0x2b8>)
 8002ddc:	6aca      	ldr	r2, [r1, #44]	@ 0x2c
 8002dde:	f442 3200 	orr.w	r2, r2, #131072	@ 0x20000
 8002de2:	62ca      	str	r2, [r1, #44]	@ 0x2c
 8002de4:	2d00      	cmp	r5, #0
 8002de6:	f040 8343 	bne.w	8003470 <HAL_RCCEx_PeriphCLKConfig+0x810>
 8002dea:	494b      	ldr	r1, [pc, #300]	@ (8002f18 <HAL_RCCEx_PeriphCLKConfig+0x2b8>)
 8002dec:	6ca0      	ldr	r0, [r4, #72]	@ 0x48
 8002dee:	6cca      	ldr	r2, [r1, #76]	@ 0x4c
 8002df0:	f022 0230 	bic.w	r2, r2, #48	@ 0x30
 8002df4:	4302      	orrs	r2, r0
 8002df6:	64ca      	str	r2, [r1, #76]	@ 0x4c
 8002df8:	04d8      	lsls	r0, r3, #19
 8002dfa:	d524      	bpl.n	8002e46 <HAL_RCCEx_PeriphCLKConfig+0x1e6>
 8002dfc:	6de2      	ldr	r2, [r4, #92]	@ 0x5c
 8002dfe:	f5b2 5f00 	cmp.w	r2, #8192	@ 0x2000
 8002e02:	f000 8435 	beq.w	8003670 <HAL_RCCEx_PeriphCLKConfig+0xa10>
 8002e06:	f200 8514 	bhi.w	8003832 <HAL_RCCEx_PeriphCLKConfig+0xbd2>
 8002e0a:	2a00      	cmp	r2, #0
 8002e0c:	f000 8484 	beq.w	8003718 <HAL_RCCEx_PeriphCLKConfig+0xab8>
 8002e10:	f5b2 5f80 	cmp.w	r2, #4096	@ 0x1000
 8002e14:	f040 8515 	bne.w	8003842 <HAL_RCCEx_PeriphCLKConfig+0xbe2>
 8002e18:	4a3f      	ldr	r2, [pc, #252]	@ (8002f18 <HAL_RCCEx_PeriphCLKConfig+0x2b8>)
 8002e1a:	6a92      	ldr	r2, [r2, #40]	@ 0x28
 8002e1c:	f002 0203 	and.w	r2, r2, #3
 8002e20:	2a03      	cmp	r2, #3
 8002e22:	f000 850e 	beq.w	8003842 <HAL_RCCEx_PeriphCLKConfig+0xbe2>
 8002e26:	2100      	movs	r1, #0
 8002e28:	1d20      	adds	r0, r4, #4
 8002e2a:	f7ff fe39 	bl	8002aa0 <RCCEx_PLL2_Config.part.0>
 8002e2e:	6823      	ldr	r3, [r4, #0]
 8002e30:	4605      	mov	r5, r0
 8002e32:	2d00      	cmp	r5, #0
 8002e34:	f040 842d 	bne.w	8003692 <HAL_RCCEx_PeriphCLKConfig+0xa32>
 8002e38:	4937      	ldr	r1, [pc, #220]	@ (8002f18 <HAL_RCCEx_PeriphCLKConfig+0x2b8>)
 8002e3a:	6de0      	ldr	r0, [r4, #92]	@ 0x5c
 8002e3c:	6d0a      	ldr	r2, [r1, #80]	@ 0x50
 8002e3e:	f422 42e0 	bic.w	r2, r2, #28672	@ 0x7000
 8002e42:	4302      	orrs	r2, r0
 8002e44:	650a      	str	r2, [r1, #80]	@ 0x50
 8002e46:	0499      	lsls	r1, r3, #18
 8002e48:	d522      	bpl.n	8002e90 <HAL_RCCEx_PeriphCLKConfig+0x230>
 8002e4a:	6e22      	ldr	r2, [r4, #96]	@ 0x60
 8002e4c:	f5b2 3f00 	cmp.w	r2, #131072	@ 0x20000
 8002e50:	f000 8357 	beq.w	8003502 <HAL_RCCEx_PeriphCLKConfig+0x8a2>
 8002e54:	f200 84b8 	bhi.w	80037c8 <HAL_RCCEx_PeriphCLKConfig+0xb68>
 8002e58:	b182      	cbz	r2, 8002e7c <HAL_RCCEx_PeriphCLKConfig+0x21c>
 8002e5a:	f5b2 3f80 	cmp.w	r2, #65536	@ 0x10000
 8002e5e:	f040 84bd 	bne.w	80037dc <HAL_RCCEx_PeriphCLKConfig+0xb7c>
 8002e62:	4a2d      	ldr	r2, [pc, #180]	@ (8002f18 <HAL_RCCEx_PeriphCLKConfig+0x2b8>)
 8002e64:	6a92      	ldr	r2, [r2, #40]	@ 0x28
 8002e66:	f002 0203 	and.w	r2, r2, #3
 8002e6a:	2a03      	cmp	r2, #3
 8002e6c:	f000 84b6 	beq.w	80037dc <HAL_RCCEx_PeriphCLKConfig+0xb7c>
 8002e70:	2101      	movs	r1, #1
 8002e72:	1d20      	adds	r0, r4, #4
 8002e74:	f7ff fe14 	bl	8002aa0 <RCCEx_PLL2_Config.part.0>
 8002e78:	6823      	ldr	r3, [r4, #0]
 8002e7a:	4605      	mov	r5, r0
 8002e7c:	2d00      	cmp	r5, #0
 8002e7e:	f040 8310 	bne.w	80034a2 <HAL_RCCEx_PeriphCLKConfig+0x842>
 8002e82:	4925      	ldr	r1, [pc, #148]	@ (8002f18 <HAL_RCCEx_PeriphCLKConfig+0x2b8>)
 8002e84:	6e20      	ldr	r0, [r4, #96]	@ 0x60
 8002e86:	6d0a      	ldr	r2, [r1, #80]	@ 0x50
 8002e88:	f422 22e0 	bic.w	r2, r2, #458752	@ 0x70000
 8002e8c:	4302      	orrs	r2, r0
 8002e8e:	650a      	str	r2, [r1, #80]	@ 0x50
 8002e90:	045a      	lsls	r2, r3, #17
 8002e92:	d524      	bpl.n	8002ede <HAL_RCCEx_PeriphCLKConfig+0x27e>
 8002e94:	f8d4 20ac 	ldr.w	r2, [r4, #172]	@ 0xac
 8002e98:	f1b2 5f00 	cmp.w	r2, #536870912	@ 0x20000000
 8002e9c:	f000 839c 	beq.w	80035d8 <HAL_RCCEx_PeriphCLKConfig+0x978>
 8002ea0:	f200 8484 	bhi.w	80037ac <HAL_RCCEx_PeriphCLKConfig+0xb4c>
 8002ea4:	b182      	cbz	r2, 8002ec8 <HAL_RCCEx_PeriphCLKConfig+0x268>
 8002ea6:	f1b2 5f80 	cmp.w	r2, #268435456	@ 0x10000000
 8002eaa:	f040 8489 	bne.w	80037c0 <HAL_RCCEx_PeriphCLKConfig+0xb60>
 8002eae:	4a1a      	ldr	r2, [pc, #104]	@ (8002f18 <HAL_RCCEx_PeriphCLKConfig+0x2b8>)
 8002eb0:	6a92      	ldr	r2, [r2, #40]	@ 0x28
 8002eb2:	f002 0203 	and.w	r2, r2, #3
 8002eb6:	2a03      	cmp	r2, #3
 8002eb8:	f000 8482 	beq.w	80037c0 <HAL_RCCEx_PeriphCLKConfig+0xb60>
 8002ebc:	2101      	movs	r1, #1
 8002ebe:	1d20      	adds	r0, r4, #4
 8002ec0:	f7ff fdee 	bl	8002aa0 <RCCEx_PLL2_Config.part.0>
 8002ec4:	6823      	ldr	r3, [r4, #0]
 8002ec6:	4605      	mov	r5, r0
 8002ec8:	2d00      	cmp	r5, #0
 8002eca:	f040 82f0 	bne.w	80034ae <HAL_RCCEx_PeriphCLKConfig+0x84e>
 8002ece:	4912      	ldr	r1, [pc, #72]	@ (8002f18 <HAL_RCCEx_PeriphCLKConfig+0x2b8>)
 8002ed0:	f8d4 00ac 	ldr.w	r0, [r4, #172]	@ 0xac
 8002ed4:	6d8a      	ldr	r2, [r1, #88]	@ 0x58
 8002ed6:	f022 42e0 	bic.w	r2, r2, #1879048192	@ 0x70000000
 8002eda:	4302      	orrs	r2, r0
 8002edc:	658a      	str	r2, [r1, #88]	@ 0x58
 8002ede:	041f      	lsls	r7, r3, #16
 8002ee0:	d50d      	bpl.n	8002efe <HAL_RCCEx_PeriphCLKConfig+0x29e>
 8002ee2:	6ee2      	ldr	r2, [r4, #108]	@ 0x6c
 8002ee4:	f1b2 5f80 	cmp.w	r2, #268435456	@ 0x10000000
 8002ee8:	f000 81e6 	beq.w	80032b8 <HAL_RCCEx_PeriphCLKConfig+0x658>
 8002eec:	f1b2 5f00 	cmp.w	r2, #536870912	@ 0x20000000
 8002ef0:	f000 84e3 	beq.w	80038ba <HAL_RCCEx_PeriphCLKConfig+0xc5a>
 8002ef4:	2a00      	cmp	r2, #0
 8002ef6:	f000 81e4 	beq.w	80032c2 <HAL_RCCEx_PeriphCLKConfig+0x662>
 8002efa:	2601      	movs	r6, #1
 8002efc:	4635      	mov	r5, r6
 8002efe:	01d8      	lsls	r0, r3, #7
 8002f00:	d515      	bpl.n	8002f2e <HAL_RCCEx_PeriphCLKConfig+0x2ce>
 8002f02:	6c62      	ldr	r2, [r4, #68]	@ 0x44
 8002f04:	2a03      	cmp	r2, #3
 8002f06:	f200 84f8 	bhi.w	80038fa <HAL_RCCEx_PeriphCLKConfig+0xc9a>
 8002f0a:	e8df f012 	tbh	[pc, r2, lsl #1]
 8002f0e:	000c      	.short	0x000c
 8002f10:	03430007 	.word	0x03430007
 8002f14:	000c      	.short	0x000c
 8002f16:	bf00      	nop
 8002f18:	58024400 	.word	0x58024400
 8002f1c:	4935      	ldr	r1, [pc, #212]	@ (8002ff4 <HAL_RCCEx_PeriphCLKConfig+0x394>)
 8002f1e:	6aca      	ldr	r2, [r1, #44]	@ 0x2c
 8002f20:	f442 3200 	orr.w	r2, r2, #131072	@ 0x20000
 8002f24:	62ca      	str	r2, [r1, #44]	@ 0x2c
 8002f26:	2d00      	cmp	r5, #0
 8002f28:	f000 8298 	beq.w	800345c <HAL_RCCEx_PeriphCLKConfig+0x7fc>
 8002f2c:	462e      	mov	r6, r5
 8002f2e:	0259      	lsls	r1, r3, #9
 8002f30:	f100 81fe 	bmi.w	8003330 <HAL_RCCEx_PeriphCLKConfig+0x6d0>
 8002f34:	07df      	lsls	r7, r3, #31
 8002f36:	d52f      	bpl.n	8002f98 <HAL_RCCEx_PeriphCLKConfig+0x338>
 8002f38:	6fa2      	ldr	r2, [r4, #120]	@ 0x78
 8002f3a:	2a28      	cmp	r2, #40	@ 0x28
 8002f3c:	d82a      	bhi.n	8002f94 <HAL_RCCEx_PeriphCLKConfig+0x334>
 8002f3e:	e8df f012 	tbh	[pc, r2, lsl #1]
 8002f42:	01db      	.short	0x01db
 8002f44:	00290029 	.word	0x00290029
 8002f48:	00290029 	.word	0x00290029
 8002f4c:	00290029 	.word	0x00290029
 8002f50:	01ce0029 	.word	0x01ce0029
 8002f54:	00290029 	.word	0x00290029
 8002f58:	00290029 	.word	0x00290029
 8002f5c:	00290029 	.word	0x00290029
 8002f60:	04230029 	.word	0x04230029
 8002f64:	00290029 	.word	0x00290029
 8002f68:	00290029 	.word	0x00290029
 8002f6c:	00290029 	.word	0x00290029
 8002f70:	01db0029 	.word	0x01db0029
 8002f74:	00290029 	.word	0x00290029
 8002f78:	00290029 	.word	0x00290029
 8002f7c:	00290029 	.word	0x00290029
 8002f80:	01db0029 	.word	0x01db0029
 8002f84:	00290029 	.word	0x00290029
 8002f88:	00290029 	.word	0x00290029
 8002f8c:	00290029 	.word	0x00290029
 8002f90:	01db0029 	.word	0x01db0029
 8002f94:	2601      	movs	r6, #1
 8002f96:	4635      	mov	r5, r6
 8002f98:	0798      	lsls	r0, r3, #30
 8002f9a:	d51c      	bpl.n	8002fd6 <HAL_RCCEx_PeriphCLKConfig+0x376>
 8002f9c:	6f62      	ldr	r2, [r4, #116]	@ 0x74
 8002f9e:	2a05      	cmp	r2, #5
 8002fa0:	f200 84a0 	bhi.w	80038e4 <HAL_RCCEx_PeriphCLKConfig+0xc84>
 8002fa4:	e8df f012 	tbh	[pc, r2, lsl #1]
 8002fa8:	00060013 	.word	0x00060013
 8002fac:	001303cc 	.word	0x001303cc
 8002fb0:	00130013 	.word	0x00130013
 8002fb4:	4a0f      	ldr	r2, [pc, #60]	@ (8002ff4 <HAL_RCCEx_PeriphCLKConfig+0x394>)
 8002fb6:	6a92      	ldr	r2, [r2, #40]	@ 0x28
 8002fb8:	f002 0203 	and.w	r2, r2, #3
 8002fbc:	2a03      	cmp	r2, #3
 8002fbe:	f000 8491 	beq.w	80038e4 <HAL_RCCEx_PeriphCLKConfig+0xc84>
 8002fc2:	2101      	movs	r1, #1
 8002fc4:	1d20      	adds	r0, r4, #4
 8002fc6:	f7ff fd6b 	bl	8002aa0 <RCCEx_PLL2_Config.part.0>
 8002fca:	6823      	ldr	r3, [r4, #0]
 8002fcc:	4605      	mov	r5, r0
 8002fce:	2d00      	cmp	r5, #0
 8002fd0:	f000 8254 	beq.w	800347c <HAL_RCCEx_PeriphCLKConfig+0x81c>
 8002fd4:	462e      	mov	r6, r5
 8002fd6:	0759      	lsls	r1, r3, #29
 8002fd8:	d51f      	bpl.n	800301a <HAL_RCCEx_PeriphCLKConfig+0x3ba>
 8002fda:	f8d4 2090 	ldr.w	r2, [r4, #144]	@ 0x90
 8002fde:	2a05      	cmp	r2, #5
 8002fe0:	f200 847c 	bhi.w	80038dc <HAL_RCCEx_PeriphCLKConfig+0xc7c>
 8002fe4:	e8df f012 	tbh	[pc, r2, lsl #1]
 8002fe8:	00080015 	.word	0x00080015
 8002fec:	001503be 	.word	0x001503be
 8002ff0:	00150015 	.word	0x00150015
 8002ff4:	58024400 	.word	0x58024400
 8002ff8:	4aa5      	ldr	r2, [pc, #660]	@ (8003290 <HAL_RCCEx_PeriphCLKConfig+0x630>)
 8002ffa:	6a92      	ldr	r2, [r2, #40]	@ 0x28
 8002ffc:	f002 0203 	and.w	r2, r2, #3
 8003000:	2a03      	cmp	r2, #3
 8003002:	f000 846b 	beq.w	80038dc <HAL_RCCEx_PeriphCLKConfig+0xc7c>
 8003006:	2101      	movs	r1, #1
 8003008:	1d20      	adds	r0, r4, #4
 800300a:	f7ff fd49 	bl	8002aa0 <RCCEx_PLL2_Config.part.0>
 800300e:	6823      	ldr	r3, [r4, #0]
 8003010:	4605      	mov	r5, r0
 8003012:	2d00      	cmp	r5, #0
 8003014:	f000 823a 	beq.w	800348c <HAL_RCCEx_PeriphCLKConfig+0x82c>
 8003018:	462e      	mov	r6, r5
 800301a:	069a      	lsls	r2, r3, #26
 800301c:	d524      	bpl.n	8003068 <HAL_RCCEx_PeriphCLKConfig+0x408>
 800301e:	f8d4 208c 	ldr.w	r2, [r4, #140]	@ 0x8c
 8003022:	f1b2 5f00 	cmp.w	r2, #536870912	@ 0x20000000
 8003026:	f000 824a 	beq.w	80034be <HAL_RCCEx_PeriphCLKConfig+0x85e>
 800302a:	f200 83db 	bhi.w	80037e4 <HAL_RCCEx_PeriphCLKConfig+0xb84>
 800302e:	b182      	cbz	r2, 8003052 <HAL_RCCEx_PeriphCLKConfig+0x3f2>
 8003030:	f1b2 5f80 	cmp.w	r2, #268435456	@ 0x10000000
 8003034:	f040 83e0 	bne.w	80037f8 <HAL_RCCEx_PeriphCLKConfig+0xb98>
 8003038:	4a95      	ldr	r2, [pc, #596]	@ (8003290 <HAL_RCCEx_PeriphCLKConfig+0x630>)
 800303a:	6a92      	ldr	r2, [r2, #40]	@ 0x28
 800303c:	f002 0203 	and.w	r2, r2, #3
 8003040:	2a03      	cmp	r2, #3
 8003042:	f000 83d9 	beq.w	80037f8 <HAL_RCCEx_PeriphCLKConfig+0xb98>
 8003046:	2100      	movs	r1, #0
 8003048:	1d20      	adds	r0, r4, #4
 800304a:	f7ff fd29 	bl	8002aa0 <RCCEx_PLL2_Config.part.0>
 800304e:	6823      	ldr	r3, [r4, #0]
 8003050:	4605      	mov	r5, r0
 8003052:	2d00      	cmp	r5, #0
 8003054:	f040 8229 	bne.w	80034aa <HAL_RCCEx_PeriphCLKConfig+0x84a>
 8003058:	498d      	ldr	r1, [pc, #564]	@ (8003290 <HAL_RCCEx_PeriphCLKConfig+0x630>)
 800305a:	f8d4 008c 	ldr.w	r0, [r4, #140]	@ 0x8c
 800305e:	6d4a      	ldr	r2, [r1, #84]	@ 0x54
 8003060:	f022 42e0 	bic.w	r2, r2, #1879048192	@ 0x70000000
 8003064:	4302      	orrs	r2, r0
 8003066:	654a      	str	r2, [r1, #84]	@ 0x54
 8003068:	065f      	lsls	r7, r3, #25
 800306a:	d524      	bpl.n	80030b6 <HAL_RCCEx_PeriphCLKConfig+0x456>
 800306c:	f8d4 2098 	ldr.w	r2, [r4, #152]	@ 0x98
 8003070:	f5b2 6f00 	cmp.w	r2, #2048	@ 0x800
 8003074:	f000 8234 	beq.w	80034e0 <HAL_RCCEx_PeriphCLKConfig+0x880>
 8003078:	f200 83c1 	bhi.w	80037fe <HAL_RCCEx_PeriphCLKConfig+0xb9e>
 800307c:	b182      	cbz	r2, 80030a0 <HAL_RCCEx_PeriphCLKConfig+0x440>
 800307e:	f5b2 6f80 	cmp.w	r2, #1024	@ 0x400
 8003082:	f040 83c6 	bne.w	8003812 <HAL_RCCEx_PeriphCLKConfig+0xbb2>
 8003086:	4a82      	ldr	r2, [pc, #520]	@ (8003290 <HAL_RCCEx_PeriphCLKConfig+0x630>)
 8003088:	6a92      	ldr	r2, [r2, #40]	@ 0x28
 800308a:	f002 0203 	and.w	r2, r2, #3
 800308e:	2a03      	cmp	r2, #3
 8003090:	f000 83bf 	beq.w	8003812 <HAL_RCCEx_PeriphCLKConfig+0xbb2>
 8003094:	2100      	movs	r1, #0
 8003096:	1d20      	adds	r0, r4, #4
 8003098:	f7ff fd02 	bl	8002aa0 <RCCEx_PLL2_Config.part.0>
 800309c:	6823      	ldr	r3, [r4, #0]
 800309e:	4605      	mov	r5, r0
 80030a0:	2d00      	cmp	r5, #0
 80030a2:	f040 8200 	bne.w	80034a6 <HAL_RCCEx_PeriphCLKConfig+0x846>
 80030a6:	497a      	ldr	r1, [pc, #488]	@ (8003290 <HAL_RCCEx_PeriphCLKConfig+0x630>)
 80030a8:	f8d4 0098 	ldr.w	r0, [r4, #152]	@ 0x98
 80030ac:	6d8a      	ldr	r2, [r1, #88]	@ 0x58
 80030ae:	f422 52e0 	bic.w	r2, r2, #7168	@ 0x1c00
 80030b2:	4302      	orrs	r2, r0
 80030b4:	658a      	str	r2, [r1, #88]	@ 0x58
 80030b6:	0618      	lsls	r0, r3, #24
 80030b8:	d524      	bpl.n	8003104 <HAL_RCCEx_PeriphCLKConfig+0x4a4>
 80030ba:	f8d4 209c 	ldr.w	r2, [r4, #156]	@ 0x9c
 80030be:	f5b2 4f80 	cmp.w	r2, #16384	@ 0x4000
 80030c2:	f000 822f 	beq.w	8003524 <HAL_RCCEx_PeriphCLKConfig+0x8c4>
 80030c6:	f200 83a7 	bhi.w	8003818 <HAL_RCCEx_PeriphCLKConfig+0xbb8>
 80030ca:	b182      	cbz	r2, 80030ee <HAL_RCCEx_PeriphCLKConfig+0x48e>
 80030cc:	f5b2 5f00 	cmp.w	r2, #8192	@ 0x2000
 80030d0:	f040 83ac 	bne.w	800382c <HAL_RCCEx_PeriphCLKConfig+0xbcc>
 80030d4:	4a6e      	ldr	r2, [pc, #440]	@ (8003290 <HAL_RCCEx_PeriphCLKConfig+0x630>)
 80030d6:	6a92      	ldr	r2, [r2, #40]	@ 0x28
 80030d8:	f002 0203 	and.w	r2, r2, #3
 80030dc:	2a03      	cmp	r2, #3
 80030de:	f000 83a5 	beq.w	800382c <HAL_RCCEx_PeriphCLKConfig+0xbcc>
 80030e2:	2100      	movs	r1, #0
 80030e4:	1d20      	adds	r0, r4, #4
 80030e6:	f7ff fcdb 	bl	8002aa0 <RCCEx_PLL2_Config.part.0>
 80030ea:	6823      	ldr	r3, [r4, #0]
 80030ec:	4605      	mov	r5, r0
 80030ee:	2d00      	cmp	r5, #0
 80030f0:	f040 81c2 	bne.w	8003478 <HAL_RCCEx_PeriphCLKConfig+0x818>
 80030f4:	4966      	ldr	r1, [pc, #408]	@ (8003290 <HAL_RCCEx_PeriphCLKConfig+0x630>)
 80030f6:	f8d4 009c 	ldr.w	r0, [r4, #156]	@ 0x9c
 80030fa:	6d8a      	ldr	r2, [r1, #88]	@ 0x58
 80030fc:	f422 4260 	bic.w	r2, r2, #57344	@ 0xe000
 8003100:	4302      	orrs	r2, r0
 8003102:	658a      	str	r2, [r1, #88]	@ 0x58
 8003104:	0719      	lsls	r1, r3, #28
 8003106:	d50b      	bpl.n	8003120 <HAL_RCCEx_PeriphCLKConfig+0x4c0>
 8003108:	f8d4 1080 	ldr.w	r1, [r4, #128]	@ 0x80
 800310c:	f5b1 5f80 	cmp.w	r1, #4096	@ 0x1000
 8003110:	f000 8162 	beq.w	80033d8 <HAL_RCCEx_PeriphCLKConfig+0x778>
 8003114:	485e      	ldr	r0, [pc, #376]	@ (8003290 <HAL_RCCEx_PeriphCLKConfig+0x630>)
 8003116:	6d42      	ldr	r2, [r0, #84]	@ 0x54
 8003118:	f422 5240 	bic.w	r2, r2, #12288	@ 0x3000
 800311c:	430a      	orrs	r2, r1
 800311e:	6542      	str	r2, [r0, #84]	@ 0x54
 8003120:	06da      	lsls	r2, r3, #27
 8003122:	d50b      	bpl.n	800313c <HAL_RCCEx_PeriphCLKConfig+0x4dc>
 8003124:	f8d4 1094 	ldr.w	r1, [r4, #148]	@ 0x94
 8003128:	f5b1 7f80 	cmp.w	r1, #256	@ 0x100
 800312c:	f000 8167 	beq.w	80033fe <HAL_RCCEx_PeriphCLKConfig+0x79e>
 8003130:	4857      	ldr	r0, [pc, #348]	@ (8003290 <HAL_RCCEx_PeriphCLKConfig+0x630>)
 8003132:	6d82      	ldr	r2, [r0, #88]	@ 0x58
 8003134:	f422 7240 	bic.w	r2, r2, #768	@ 0x300
 8003138:	430a      	orrs	r2, r1
 800313a:	6582      	str	r2, [r0, #88]	@ 0x58
 800313c:	031f      	lsls	r7, r3, #12
 800313e:	d522      	bpl.n	8003186 <HAL_RCCEx_PeriphCLKConfig+0x526>
 8003140:	f8d4 10a0 	ldr.w	r1, [r4, #160]	@ 0xa0
 8003144:	f5b1 3f80 	cmp.w	r1, #65536	@ 0x10000
 8003148:	f000 81fd 	beq.w	8003546 <HAL_RCCEx_PeriphCLKConfig+0x8e6>
 800314c:	f5b1 3f00 	cmp.w	r1, #131072	@ 0x20000
 8003150:	d00e      	beq.n	8003170 <HAL_RCCEx_PeriphCLKConfig+0x510>
 8003152:	2900      	cmp	r1, #0
 8003154:	f040 80c0 	bne.w	80032d8 <HAL_RCCEx_PeriphCLKConfig+0x678>
 8003158:	4a4d      	ldr	r2, [pc, #308]	@ (8003290 <HAL_RCCEx_PeriphCLKConfig+0x630>)
 800315a:	6a92      	ldr	r2, [r2, #40]	@ 0x28
 800315c:	f002 0203 	and.w	r2, r2, #3
 8003160:	2a03      	cmp	r2, #3
 8003162:	f000 80b9 	beq.w	80032d8 <HAL_RCCEx_PeriphCLKConfig+0x678>
 8003166:	1d20      	adds	r0, r4, #4
 8003168:	f7ff fc9a 	bl	8002aa0 <RCCEx_PLL2_Config.part.0>
 800316c:	6823      	ldr	r3, [r4, #0]
 800316e:	4605      	mov	r5, r0
 8003170:	2d00      	cmp	r5, #0
 8003172:	f040 819e 	bne.w	80034b2 <HAL_RCCEx_PeriphCLKConfig+0x852>
 8003176:	4946      	ldr	r1, [pc, #280]	@ (8003290 <HAL_RCCEx_PeriphCLKConfig+0x630>)
 8003178:	f8d4 00a0 	ldr.w	r0, [r4, #160]	@ 0xa0
 800317c:	6d8a      	ldr	r2, [r1, #88]	@ 0x58
 800317e:	f422 3240 	bic.w	r2, r2, #196608	@ 0x30000
 8003182:	4302      	orrs	r2, r0
 8003184:	658a      	str	r2, [r1, #88]	@ 0x58
 8003186:	0358      	lsls	r0, r3, #13
 8003188:	d50f      	bpl.n	80031aa <HAL_RCCEx_PeriphCLKConfig+0x54a>
 800318a:	f8d4 2084 	ldr.w	r2, [r4, #132]	@ 0x84
 800318e:	f5b2 1f00 	cmp.w	r2, #2097152	@ 0x200000
 8003192:	f000 81ed 	beq.w	8003570 <HAL_RCCEx_PeriphCLKConfig+0x910>
 8003196:	f5b2 1f40 	cmp.w	r2, #3145728	@ 0x300000
 800319a:	f000 80bd 	beq.w	8003318 <HAL_RCCEx_PeriphCLKConfig+0x6b8>
 800319e:	f5b2 1f80 	cmp.w	r2, #1048576	@ 0x100000
 80031a2:	f000 80b4 	beq.w	800330e <HAL_RCCEx_PeriphCLKConfig+0x6ae>
 80031a6:	2601      	movs	r6, #1
 80031a8:	4635      	mov	r5, r6
 80031aa:	03d9      	lsls	r1, r3, #15
 80031ac:	d51c      	bpl.n	80031e8 <HAL_RCCEx_PeriphCLKConfig+0x588>
 80031ae:	6ce2      	ldr	r2, [r4, #76]	@ 0x4c
 80031b0:	2a00      	cmp	r2, #0
 80031b2:	f000 8137 	beq.w	8003424 <HAL_RCCEx_PeriphCLKConfig+0x7c4>
 80031b6:	f5b2 3f80 	cmp.w	r2, #65536	@ 0x10000
 80031ba:	d17a      	bne.n	80032b2 <HAL_RCCEx_PeriphCLKConfig+0x652>
 80031bc:	4a34      	ldr	r2, [pc, #208]	@ (8003290 <HAL_RCCEx_PeriphCLKConfig+0x630>)
 80031be:	6a92      	ldr	r2, [r2, #40]	@ 0x28
 80031c0:	f002 0203 	and.w	r2, r2, #3
 80031c4:	2a03      	cmp	r2, #3
 80031c6:	d074      	beq.n	80032b2 <HAL_RCCEx_PeriphCLKConfig+0x652>
 80031c8:	2102      	movs	r1, #2
 80031ca:	1d20      	adds	r0, r4, #4
 80031cc:	f7ff fc68 	bl	8002aa0 <RCCEx_PLL2_Config.part.0>
 80031d0:	4605      	mov	r5, r0
 80031d2:	6823      	ldr	r3, [r4, #0]
 80031d4:	2d00      	cmp	r5, #0
 80031d6:	f040 812d 	bne.w	8003434 <HAL_RCCEx_PeriphCLKConfig+0x7d4>
 80031da:	492d      	ldr	r1, [pc, #180]	@ (8003290 <HAL_RCCEx_PeriphCLKConfig+0x630>)
 80031dc:	6ce0      	ldr	r0, [r4, #76]	@ 0x4c
 80031de:	6cca      	ldr	r2, [r1, #76]	@ 0x4c
 80031e0:	f422 3280 	bic.w	r2, r2, #65536	@ 0x10000
 80031e4:	4302      	orrs	r2, r0
 80031e6:	64ca      	str	r2, [r1, #76]	@ 0x4c
 80031e8:	009a      	lsls	r2, r3, #2
 80031ea:	d50f      	bpl.n	800320c <HAL_RCCEx_PeriphCLKConfig+0x5ac>
 80031ec:	4a28      	ldr	r2, [pc, #160]	@ (8003290 <HAL_RCCEx_PeriphCLKConfig+0x630>)
 80031ee:	6a92      	ldr	r2, [r2, #40]	@ 0x28
 80031f0:	f002 0203 	and.w	r2, r2, #3
 80031f4:	2a03      	cmp	r2, #3
 80031f6:	f000 80ed 	beq.w	80033d4 <HAL_RCCEx_PeriphCLKConfig+0x774>
 80031fa:	2102      	movs	r1, #2
 80031fc:	f104 0024 	add.w	r0, r4, #36	@ 0x24
 8003200:	f7ff fcbe 	bl	8002b80 <RCCEx_PLL3_Config.part.0>
 8003204:	2800      	cmp	r0, #0
 8003206:	6823      	ldr	r3, [r4, #0]
 8003208:	bf18      	it	ne
 800320a:	2601      	movne	r6, #1
 800320c:	039f      	lsls	r7, r3, #14
 800320e:	d441      	bmi.n	8003294 <HAL_RCCEx_PeriphCLKConfig+0x634>
 8003210:	1e30      	subs	r0, r6, #0
 8003212:	bf18      	it	ne
 8003214:	2001      	movne	r0, #1
 8003216:	02de      	lsls	r6, r3, #11
 8003218:	d506      	bpl.n	8003228 <HAL_RCCEx_PeriphCLKConfig+0x5c8>
 800321a:	491d      	ldr	r1, [pc, #116]	@ (8003290 <HAL_RCCEx_PeriphCLKConfig+0x630>)
 800321c:	6f25      	ldr	r5, [r4, #112]	@ 0x70
 800321e:	6d0a      	ldr	r2, [r1, #80]	@ 0x50
 8003220:	f022 4200 	bic.w	r2, r2, #2147483648	@ 0x80000000
 8003224:	432a      	orrs	r2, r5
 8003226:	650a      	str	r2, [r1, #80]	@ 0x50
 8003228:	00dd      	lsls	r5, r3, #3
 800322a:	d507      	bpl.n	800323c <HAL_RCCEx_PeriphCLKConfig+0x5dc>
 800322c:	4918      	ldr	r1, [pc, #96]	@ (8003290 <HAL_RCCEx_PeriphCLKConfig+0x630>)
 800322e:	f8d4 50b4 	ldr.w	r5, [r4, #180]	@ 0xb4
 8003232:	690a      	ldr	r2, [r1, #16]
 8003234:	f422 4280 	bic.w	r2, r2, #16384	@ 0x4000
 8003238:	432a      	orrs	r2, r5
 800323a:	610a      	str	r2, [r1, #16]
 800323c:	0299      	lsls	r1, r3, #10
 800323e:	d506      	bpl.n	800324e <HAL_RCCEx_PeriphCLKConfig+0x5ee>
 8003240:	4913      	ldr	r1, [pc, #76]	@ (8003290 <HAL_RCCEx_PeriphCLKConfig+0x630>)
 8003242:	6ea5      	ldr	r5, [r4, #104]	@ 0x68
 8003244:	6d0a      	ldr	r2, [r1, #80]	@ 0x50
 8003246:	f022 7280 	bic.w	r2, r2, #16777216	@ 0x1000000
 800324a:	432a      	orrs	r2, r5
 800324c:	650a      	str	r2, [r1, #80]	@ 0x50
 800324e:	005a      	lsls	r2, r3, #1
 8003250:	d509      	bpl.n	8003266 <HAL_RCCEx_PeriphCLKConfig+0x606>
 8003252:	4a0f      	ldr	r2, [pc, #60]	@ (8003290 <HAL_RCCEx_PeriphCLKConfig+0x630>)
 8003254:	6911      	ldr	r1, [r2, #16]
 8003256:	f421 4100 	bic.w	r1, r1, #32768	@ 0x8000
 800325a:	6111      	str	r1, [r2, #16]
 800325c:	6911      	ldr	r1, [r2, #16]
 800325e:	f8d4 50b8 	ldr.w	r5, [r4, #184]	@ 0xb8
 8003262:	4329      	orrs	r1, r5
 8003264:	6111      	str	r1, [r2, #16]
 8003266:	2b00      	cmp	r3, #0
 8003268:	da06      	bge.n	8003278 <HAL_RCCEx_PeriphCLKConfig+0x618>
 800326a:	4909      	ldr	r1, [pc, #36]	@ (8003290 <HAL_RCCEx_PeriphCLKConfig+0x630>)
 800326c:	6d25      	ldr	r5, [r4, #80]	@ 0x50
 800326e:	6cca      	ldr	r2, [r1, #76]	@ 0x4c
 8003270:	f022 5240 	bic.w	r2, r2, #805306368	@ 0x30000000
 8003274:	432a      	orrs	r2, r5
 8003276:	64ca      	str	r2, [r1, #76]	@ 0x4c
 8003278:	021b      	lsls	r3, r3, #8
 800327a:	d507      	bpl.n	800328c <HAL_RCCEx_PeriphCLKConfig+0x62c>
 800327c:	4a04      	ldr	r2, [pc, #16]	@ (8003290 <HAL_RCCEx_PeriphCLKConfig+0x630>)
 800327e:	f8d4 1088 	ldr.w	r1, [r4, #136]	@ 0x88
 8003282:	6d53      	ldr	r3, [r2, #84]	@ 0x54
 8003284:	f423 0340 	bic.w	r3, r3, #12582912	@ 0xc00000
 8003288:	430b      	orrs	r3, r1
 800328a:	6553      	str	r3, [r2, #84]	@ 0x54
 800328c:	e8bd 83f8 	ldmia.w	sp!, {r3, r4, r5, r6, r7, r8, r9, pc}
 8003290:	58024400 	.word	0x58024400
 8003294:	6fe2      	ldr	r2, [r4, #124]	@ 0x7c
 8003296:	f5b2 7f80 	cmp.w	r2, #256	@ 0x100
 800329a:	f000 80cd 	beq.w	8003438 <HAL_RCCEx_PeriphCLKConfig+0x7d8>
 800329e:	f240 810a 	bls.w	80034b6 <HAL_RCCEx_PeriphCLKConfig+0x856>
 80032a2:	f422 7180 	bic.w	r1, r2, #256	@ 0x100
 80032a6:	f5b1 7f00 	cmp.w	r1, #512	@ 0x200
 80032aa:	f000 80ca 	beq.w	8003442 <HAL_RCCEx_PeriphCLKConfig+0x7e2>
 80032ae:	2001      	movs	r0, #1
 80032b0:	e7b1      	b.n	8003216 <HAL_RCCEx_PeriphCLKConfig+0x5b6>
 80032b2:	2601      	movs	r6, #1
 80032b4:	4635      	mov	r5, r6
 80032b6:	e797      	b.n	80031e8 <HAL_RCCEx_PeriphCLKConfig+0x588>
 80032b8:	49ab      	ldr	r1, [pc, #684]	@ (8003568 <HAL_RCCEx_PeriphCLKConfig+0x908>)
 80032ba:	6aca      	ldr	r2, [r1, #44]	@ 0x2c
 80032bc:	f442 3200 	orr.w	r2, r2, #131072	@ 0x20000
 80032c0:	62ca      	str	r2, [r1, #44]	@ 0x2c
 80032c2:	2d00      	cmp	r5, #0
 80032c4:	f040 80d6 	bne.w	8003474 <HAL_RCCEx_PeriphCLKConfig+0x814>
 80032c8:	49a7      	ldr	r1, [pc, #668]	@ (8003568 <HAL_RCCEx_PeriphCLKConfig+0x908>)
 80032ca:	6ee0      	ldr	r0, [r4, #108]	@ 0x6c
 80032cc:	6d0a      	ldr	r2, [r1, #80]	@ 0x50
 80032ce:	f022 5240 	bic.w	r2, r2, #805306368	@ 0x30000000
 80032d2:	4302      	orrs	r2, r0
 80032d4:	650a      	str	r2, [r1, #80]	@ 0x50
 80032d6:	e612      	b.n	8002efe <HAL_RCCEx_PeriphCLKConfig+0x29e>
 80032d8:	2601      	movs	r6, #1
 80032da:	4635      	mov	r5, r6
 80032dc:	e753      	b.n	8003186 <HAL_RCCEx_PeriphCLKConfig+0x526>
 80032de:	4aa2      	ldr	r2, [pc, #648]	@ (8003568 <HAL_RCCEx_PeriphCLKConfig+0x908>)
 80032e0:	6a92      	ldr	r2, [r2, #40]	@ 0x28
 80032e2:	f002 0203 	and.w	r2, r2, #3
 80032e6:	2a03      	cmp	r2, #3
 80032e8:	f43f ae54 	beq.w	8002f94 <HAL_RCCEx_PeriphCLKConfig+0x334>
 80032ec:	2101      	movs	r1, #1
 80032ee:	1d20      	adds	r0, r4, #4
 80032f0:	f7ff fbd6 	bl	8002aa0 <RCCEx_PLL2_Config.part.0>
 80032f4:	6823      	ldr	r3, [r4, #0]
 80032f6:	4605      	mov	r5, r0
 80032f8:	2d00      	cmp	r5, #0
 80032fa:	f040 80d0 	bne.w	800349e <HAL_RCCEx_PeriphCLKConfig+0x83e>
 80032fe:	499a      	ldr	r1, [pc, #616]	@ (8003568 <HAL_RCCEx_PeriphCLKConfig+0x908>)
 8003300:	6fa0      	ldr	r0, [r4, #120]	@ 0x78
 8003302:	6d4a      	ldr	r2, [r1, #84]	@ 0x54
 8003304:	f022 0238 	bic.w	r2, r2, #56	@ 0x38
 8003308:	4302      	orrs	r2, r0
 800330a:	654a      	str	r2, [r1, #84]	@ 0x54
 800330c:	e644      	b.n	8002f98 <HAL_RCCEx_PeriphCLKConfig+0x338>
 800330e:	4996      	ldr	r1, [pc, #600]	@ (8003568 <HAL_RCCEx_PeriphCLKConfig+0x908>)
 8003310:	6aca      	ldr	r2, [r1, #44]	@ 0x2c
 8003312:	f442 3200 	orr.w	r2, r2, #131072	@ 0x20000
 8003316:	62ca      	str	r2, [r1, #44]	@ 0x2c
 8003318:	2d00      	cmp	r5, #0
 800331a:	f040 80a7 	bne.w	800346c <HAL_RCCEx_PeriphCLKConfig+0x80c>
 800331e:	4992      	ldr	r1, [pc, #584]	@ (8003568 <HAL_RCCEx_PeriphCLKConfig+0x908>)
 8003320:	f8d4 0084 	ldr.w	r0, [r4, #132]	@ 0x84
 8003324:	6d4a      	ldr	r2, [r1, #84]	@ 0x54
 8003326:	f422 1240 	bic.w	r2, r2, #3145728	@ 0x300000
 800332a:	4302      	orrs	r2, r0
 800332c:	654a      	str	r2, [r1, #84]	@ 0x54
 800332e:	e73c      	b.n	80031aa <HAL_RCCEx_PeriphCLKConfig+0x54a>
 8003330:	4f8e      	ldr	r7, [pc, #568]	@ (800356c <HAL_RCCEx_PeriphCLKConfig+0x90c>)
 8003332:	683b      	ldr	r3, [r7, #0]
 8003334:	f443 7380 	orr.w	r3, r3, #256	@ 0x100
 8003338:	603b      	str	r3, [r7, #0]
 800333a:	f7fe fc4b 	bl	8001bd4 <HAL_GetTick>
 800333e:	4680      	mov	r8, r0
 8003340:	e006      	b.n	8003350 <HAL_RCCEx_PeriphCLKConfig+0x6f0>
 8003342:	f7fe fc47 	bl	8001bd4 <HAL_GetTick>
 8003346:	eba0 0008 	sub.w	r0, r0, r8
 800334a:	2864      	cmp	r0, #100	@ 0x64
 800334c:	f200 82b0 	bhi.w	80038b0 <HAL_RCCEx_PeriphCLKConfig+0xc50>
 8003350:	683b      	ldr	r3, [r7, #0]
 8003352:	05da      	lsls	r2, r3, #23
 8003354:	d5f5      	bpl.n	8003342 <HAL_RCCEx_PeriphCLKConfig+0x6e2>
 8003356:	2d00      	cmp	r5, #0
 8003358:	f040 82ab 	bne.w	80038b2 <HAL_RCCEx_PeriphCLKConfig+0xc52>
 800335c:	4a82      	ldr	r2, [pc, #520]	@ (8003568 <HAL_RCCEx_PeriphCLKConfig+0x908>)
 800335e:	f8d4 30b0 	ldr.w	r3, [r4, #176]	@ 0xb0
 8003362:	6f11      	ldr	r1, [r2, #112]	@ 0x70
 8003364:	4059      	eors	r1, r3
 8003366:	f411 7f40 	tst.w	r1, #768	@ 0x300
 800336a:	d00b      	beq.n	8003384 <HAL_RCCEx_PeriphCLKConfig+0x724>
 800336c:	6f11      	ldr	r1, [r2, #112]	@ 0x70
 800336e:	6f10      	ldr	r0, [r2, #112]	@ 0x70
 8003370:	f421 7140 	bic.w	r1, r1, #768	@ 0x300
 8003374:	f440 3080 	orr.w	r0, r0, #65536	@ 0x10000
 8003378:	6710      	str	r0, [r2, #112]	@ 0x70
 800337a:	6f10      	ldr	r0, [r2, #112]	@ 0x70
 800337c:	f420 3080 	bic.w	r0, r0, #65536	@ 0x10000
 8003380:	6710      	str	r0, [r2, #112]	@ 0x70
 8003382:	6711      	str	r1, [r2, #112]	@ 0x70
 8003384:	f5b3 7f80 	cmp.w	r3, #256	@ 0x100
 8003388:	f000 82bb 	beq.w	8003902 <HAL_RCCEx_PeriphCLKConfig+0xca2>
 800338c:	f403 7240 	and.w	r2, r3, #768	@ 0x300
 8003390:	f5b2 7f40 	cmp.w	r2, #768	@ 0x300
 8003394:	f000 82c9 	beq.w	800392a <HAL_RCCEx_PeriphCLKConfig+0xcca>
 8003398:	4973      	ldr	r1, [pc, #460]	@ (8003568 <HAL_RCCEx_PeriphCLKConfig+0x908>)
 800339a:	690a      	ldr	r2, [r1, #16]
 800339c:	f422 527c 	bic.w	r2, r2, #16128	@ 0x3f00
 80033a0:	610a      	str	r2, [r1, #16]
 80033a2:	4a71      	ldr	r2, [pc, #452]	@ (8003568 <HAL_RCCEx_PeriphCLKConfig+0x908>)
 80033a4:	f3c3 030b 	ubfx	r3, r3, #0, #12
 80033a8:	6f11      	ldr	r1, [r2, #112]	@ 0x70
 80033aa:	430b      	orrs	r3, r1
 80033ac:	6713      	str	r3, [r2, #112]	@ 0x70
 80033ae:	6823      	ldr	r3, [r4, #0]
 80033b0:	e5c0      	b.n	8002f34 <HAL_RCCEx_PeriphCLKConfig+0x2d4>
 80033b2:	496d      	ldr	r1, [pc, #436]	@ (8003568 <HAL_RCCEx_PeriphCLKConfig+0x908>)
 80033b4:	6aca      	ldr	r2, [r1, #44]	@ 0x2c
 80033b6:	f442 3200 	orr.w	r2, r2, #131072	@ 0x20000
 80033ba:	62ca      	str	r2, [r1, #44]	@ 0x2c
 80033bc:	4635      	mov	r5, r6
 80033be:	2d00      	cmp	r5, #0
 80033c0:	f040 812d 	bne.w	800361e <HAL_RCCEx_PeriphCLKConfig+0x9be>
 80033c4:	4968      	ldr	r1, [pc, #416]	@ (8003568 <HAL_RCCEx_PeriphCLKConfig+0x908>)
 80033c6:	6d60      	ldr	r0, [r4, #84]	@ 0x54
 80033c8:	6d0a      	ldr	r2, [r1, #80]	@ 0x50
 80033ca:	f022 0207 	bic.w	r2, r2, #7
 80033ce:	4302      	orrs	r2, r0
 80033d0:	650a      	str	r2, [r1, #80]	@ 0x50
 80033d2:	e47f      	b.n	8002cd4 <HAL_RCCEx_PeriphCLKConfig+0x74>
 80033d4:	2601      	movs	r6, #1
 80033d6:	e719      	b.n	800320c <HAL_RCCEx_PeriphCLKConfig+0x5ac>
 80033d8:	4a63      	ldr	r2, [pc, #396]	@ (8003568 <HAL_RCCEx_PeriphCLKConfig+0x908>)
 80033da:	6a92      	ldr	r2, [r2, #40]	@ 0x28
 80033dc:	f002 0203 	and.w	r2, r2, #3
 80033e0:	2a03      	cmp	r2, #3
 80033e2:	f000 8286 	beq.w	80038f2 <HAL_RCCEx_PeriphCLKConfig+0xc92>
 80033e6:	2102      	movs	r1, #2
 80033e8:	f104 0024 	add.w	r0, r4, #36	@ 0x24
 80033ec:	f7ff fbc8 	bl	8002b80 <RCCEx_PLL3_Config.part.0>
 80033f0:	2800      	cmp	r0, #0
 80033f2:	f8d4 1080 	ldr.w	r1, [r4, #128]	@ 0x80
 80033f6:	6823      	ldr	r3, [r4, #0]
 80033f8:	bf18      	it	ne
 80033fa:	2601      	movne	r6, #1
 80033fc:	e68a      	b.n	8003114 <HAL_RCCEx_PeriphCLKConfig+0x4b4>
 80033fe:	4a5a      	ldr	r2, [pc, #360]	@ (8003568 <HAL_RCCEx_PeriphCLKConfig+0x908>)
 8003400:	6a92      	ldr	r2, [r2, #40]	@ 0x28
 8003402:	f002 0203 	and.w	r2, r2, #3
 8003406:	2a03      	cmp	r2, #3
 8003408:	f000 8275 	beq.w	80038f6 <HAL_RCCEx_PeriphCLKConfig+0xc96>
 800340c:	2102      	movs	r1, #2
 800340e:	f104 0024 	add.w	r0, r4, #36	@ 0x24
 8003412:	f7ff fbb5 	bl	8002b80 <RCCEx_PLL3_Config.part.0>
 8003416:	2800      	cmp	r0, #0
 8003418:	f8d4 1094 	ldr.w	r1, [r4, #148]	@ 0x94
 800341c:	6823      	ldr	r3, [r4, #0]
 800341e:	bf18      	it	ne
 8003420:	2601      	movne	r6, #1
 8003422:	e685      	b.n	8003130 <HAL_RCCEx_PeriphCLKConfig+0x4d0>
 8003424:	4950      	ldr	r1, [pc, #320]	@ (8003568 <HAL_RCCEx_PeriphCLKConfig+0x908>)
 8003426:	6aca      	ldr	r2, [r1, #44]	@ 0x2c
 8003428:	f442 3200 	orr.w	r2, r2, #131072	@ 0x20000
 800342c:	62ca      	str	r2, [r1, #44]	@ 0x2c
 800342e:	2d00      	cmp	r5, #0
 8003430:	f43f aed3 	beq.w	80031da <HAL_RCCEx_PeriphCLKConfig+0x57a>
 8003434:	462e      	mov	r6, r5
 8003436:	e6d7      	b.n	80031e8 <HAL_RCCEx_PeriphCLKConfig+0x588>
 8003438:	484b      	ldr	r0, [pc, #300]	@ (8003568 <HAL_RCCEx_PeriphCLKConfig+0x908>)
 800343a:	6ac1      	ldr	r1, [r0, #44]	@ 0x2c
 800343c:	f441 3100 	orr.w	r1, r1, #131072	@ 0x20000
 8003440:	62c1      	str	r1, [r0, #44]	@ 0x2c
 8003442:	2d00      	cmp	r5, #0
 8003444:	f47f af33 	bne.w	80032ae <HAL_RCCEx_PeriphCLKConfig+0x64e>
 8003448:	4d47      	ldr	r5, [pc, #284]	@ (8003568 <HAL_RCCEx_PeriphCLKConfig+0x908>)
 800344a:	1e30      	subs	r0, r6, #0
 800344c:	6d69      	ldr	r1, [r5, #84]	@ 0x54
 800344e:	bf18      	it	ne
 8003450:	2001      	movne	r0, #1
 8003452:	f421 7140 	bic.w	r1, r1, #768	@ 0x300
 8003456:	430a      	orrs	r2, r1
 8003458:	656a      	str	r2, [r5, #84]	@ 0x54
 800345a:	e6dc      	b.n	8003216 <HAL_RCCEx_PeriphCLKConfig+0x5b6>
 800345c:	4942      	ldr	r1, [pc, #264]	@ (8003568 <HAL_RCCEx_PeriphCLKConfig+0x908>)
 800345e:	6c60      	ldr	r0, [r4, #68]	@ 0x44
 8003460:	6cca      	ldr	r2, [r1, #76]	@ 0x4c
 8003462:	f022 0203 	bic.w	r2, r2, #3
 8003466:	4302      	orrs	r2, r0
 8003468:	64ca      	str	r2, [r1, #76]	@ 0x4c
 800346a:	e560      	b.n	8002f2e <HAL_RCCEx_PeriphCLKConfig+0x2ce>
 800346c:	462e      	mov	r6, r5
 800346e:	e69c      	b.n	80031aa <HAL_RCCEx_PeriphCLKConfig+0x54a>
 8003470:	462e      	mov	r6, r5
 8003472:	e4c1      	b.n	8002df8 <HAL_RCCEx_PeriphCLKConfig+0x198>
 8003474:	462e      	mov	r6, r5
 8003476:	e542      	b.n	8002efe <HAL_RCCEx_PeriphCLKConfig+0x29e>
 8003478:	462e      	mov	r6, r5
 800347a:	e643      	b.n	8003104 <HAL_RCCEx_PeriphCLKConfig+0x4a4>
 800347c:	493a      	ldr	r1, [pc, #232]	@ (8003568 <HAL_RCCEx_PeriphCLKConfig+0x908>)
 800347e:	6f60      	ldr	r0, [r4, #116]	@ 0x74
 8003480:	6d4a      	ldr	r2, [r1, #84]	@ 0x54
 8003482:	f022 0207 	bic.w	r2, r2, #7
 8003486:	4302      	orrs	r2, r0
 8003488:	654a      	str	r2, [r1, #84]	@ 0x54
 800348a:	e5a4      	b.n	8002fd6 <HAL_RCCEx_PeriphCLKConfig+0x376>
 800348c:	4936      	ldr	r1, [pc, #216]	@ (8003568 <HAL_RCCEx_PeriphCLKConfig+0x908>)
 800348e:	f8d4 0090 	ldr.w	r0, [r4, #144]	@ 0x90
 8003492:	6d8a      	ldr	r2, [r1, #88]	@ 0x58
 8003494:	f022 0207 	bic.w	r2, r2, #7
 8003498:	4302      	orrs	r2, r0
 800349a:	658a      	str	r2, [r1, #88]	@ 0x58
 800349c:	e5bd      	b.n	800301a <HAL_RCCEx_PeriphCLKConfig+0x3ba>
 800349e:	462e      	mov	r6, r5
 80034a0:	e57a      	b.n	8002f98 <HAL_RCCEx_PeriphCLKConfig+0x338>
 80034a2:	462e      	mov	r6, r5
 80034a4:	e4f4      	b.n	8002e90 <HAL_RCCEx_PeriphCLKConfig+0x230>
 80034a6:	462e      	mov	r6, r5
 80034a8:	e605      	b.n	80030b6 <HAL_RCCEx_PeriphCLKConfig+0x456>
 80034aa:	462e      	mov	r6, r5
 80034ac:	e5dc      	b.n	8003068 <HAL_RCCEx_PeriphCLKConfig+0x408>
 80034ae:	462e      	mov	r6, r5
 80034b0:	e515      	b.n	8002ede <HAL_RCCEx_PeriphCLKConfig+0x27e>
 80034b2:	462e      	mov	r6, r5
 80034b4:	e667      	b.n	8003186 <HAL_RCCEx_PeriphCLKConfig+0x526>
 80034b6:	2a00      	cmp	r2, #0
 80034b8:	f47f aef9 	bne.w	80032ae <HAL_RCCEx_PeriphCLKConfig+0x64e>
 80034bc:	e7c1      	b.n	8003442 <HAL_RCCEx_PeriphCLKConfig+0x7e2>
 80034be:	4a2a      	ldr	r2, [pc, #168]	@ (8003568 <HAL_RCCEx_PeriphCLKConfig+0x908>)
 80034c0:	6a92      	ldr	r2, [r2, #40]	@ 0x28
 80034c2:	f002 0203 	and.w	r2, r2, #3
 80034c6:	2a03      	cmp	r2, #3
 80034c8:	f000 8196 	beq.w	80037f8 <HAL_RCCEx_PeriphCLKConfig+0xb98>
 80034cc:	2102      	movs	r1, #2
 80034ce:	f104 0024 	add.w	r0, r4, #36	@ 0x24
 80034d2:	f7ff fb55 	bl	8002b80 <RCCEx_PLL3_Config.part.0>
 80034d6:	4605      	mov	r5, r0
 80034d8:	6823      	ldr	r3, [r4, #0]
 80034da:	2d00      	cmp	r5, #0
 80034dc:	d1e5      	bne.n	80034aa <HAL_RCCEx_PeriphCLKConfig+0x84a>
 80034de:	e5bb      	b.n	8003058 <HAL_RCCEx_PeriphCLKConfig+0x3f8>
 80034e0:	4a21      	ldr	r2, [pc, #132]	@ (8003568 <HAL_RCCEx_PeriphCLKConfig+0x908>)
 80034e2:	6a92      	ldr	r2, [r2, #40]	@ 0x28
 80034e4:	f002 0203 	and.w	r2, r2, #3
 80034e8:	2a03      	cmp	r2, #3
 80034ea:	f000 8192 	beq.w	8003812 <HAL_RCCEx_PeriphCLKConfig+0xbb2>
 80034ee:	2102      	movs	r1, #2
 80034f0:	f104 0024 	add.w	r0, r4, #36	@ 0x24
 80034f4:	f7ff fb44 	bl	8002b80 <RCCEx_PLL3_Config.part.0>
 80034f8:	4605      	mov	r5, r0
 80034fa:	6823      	ldr	r3, [r4, #0]
 80034fc:	2d00      	cmp	r5, #0
 80034fe:	d1d2      	bne.n	80034a6 <HAL_RCCEx_PeriphCLKConfig+0x846>
 8003500:	e5d1      	b.n	80030a6 <HAL_RCCEx_PeriphCLKConfig+0x446>
 8003502:	4a19      	ldr	r2, [pc, #100]	@ (8003568 <HAL_RCCEx_PeriphCLKConfig+0x908>)
 8003504:	6a92      	ldr	r2, [r2, #40]	@ 0x28
 8003506:	f002 0203 	and.w	r2, r2, #3
 800350a:	2a03      	cmp	r2, #3
 800350c:	f000 8166 	beq.w	80037dc <HAL_RCCEx_PeriphCLKConfig+0xb7c>
 8003510:	2101      	movs	r1, #1
 8003512:	f104 0024 	add.w	r0, r4, #36	@ 0x24
 8003516:	f7ff fb33 	bl	8002b80 <RCCEx_PLL3_Config.part.0>
 800351a:	4605      	mov	r5, r0
 800351c:	6823      	ldr	r3, [r4, #0]
 800351e:	2d00      	cmp	r5, #0
 8003520:	d1bf      	bne.n	80034a2 <HAL_RCCEx_PeriphCLKConfig+0x842>
 8003522:	e4ae      	b.n	8002e82 <HAL_RCCEx_PeriphCLKConfig+0x222>
 8003524:	4a10      	ldr	r2, [pc, #64]	@ (8003568 <HAL_RCCEx_PeriphCLKConfig+0x908>)
 8003526:	6a92      	ldr	r2, [r2, #40]	@ 0x28
 8003528:	f002 0203 	and.w	r2, r2, #3
 800352c:	2a03      	cmp	r2, #3
 800352e:	f000 817d 	beq.w	800382c <HAL_RCCEx_PeriphCLKConfig+0xbcc>
 8003532:	2102      	movs	r1, #2
 8003534:	f104 0024 	add.w	r0, r4, #36	@ 0x24
 8003538:	f7ff fb22 	bl	8002b80 <RCCEx_PLL3_Config.part.0>
 800353c:	4605      	mov	r5, r0
 800353e:	6823      	ldr	r3, [r4, #0]
 8003540:	2d00      	cmp	r5, #0
 8003542:	d199      	bne.n	8003478 <HAL_RCCEx_PeriphCLKConfig+0x818>
 8003544:	e5d6      	b.n	80030f4 <HAL_RCCEx_PeriphCLKConfig+0x494>
 8003546:	4a08      	ldr	r2, [pc, #32]	@ (8003568 <HAL_RCCEx_PeriphCLKConfig+0x908>)
 8003548:	6a92      	ldr	r2, [r2, #40]	@ 0x28
 800354a:	f002 0203 	and.w	r2, r2, #3
 800354e:	2a03      	cmp	r2, #3
 8003550:	f43f aec2 	beq.w	80032d8 <HAL_RCCEx_PeriphCLKConfig+0x678>
 8003554:	2102      	movs	r1, #2
 8003556:	f104 0024 	add.w	r0, r4, #36	@ 0x24
 800355a:	f7ff fb11 	bl	8002b80 <RCCEx_PLL3_Config.part.0>
 800355e:	4605      	mov	r5, r0
 8003560:	6823      	ldr	r3, [r4, #0]
 8003562:	2d00      	cmp	r5, #0
 8003564:	d1a5      	bne.n	80034b2 <HAL_RCCEx_PeriphCLKConfig+0x852>
 8003566:	e606      	b.n	8003176 <HAL_RCCEx_PeriphCLKConfig+0x516>
 8003568:	58024400 	.word	0x58024400
 800356c:	58024800 	.word	0x58024800
 8003570:	4ac1      	ldr	r2, [pc, #772]	@ (8003878 <HAL_RCCEx_PeriphCLKConfig+0xc18>)
 8003572:	6a92      	ldr	r2, [r2, #40]	@ 0x28
 8003574:	f002 0203 	and.w	r2, r2, #3
 8003578:	2a03      	cmp	r2, #3
 800357a:	f43f ae14 	beq.w	80031a6 <HAL_RCCEx_PeriphCLKConfig+0x546>
 800357e:	2101      	movs	r1, #1
 8003580:	f104 0024 	add.w	r0, r4, #36	@ 0x24
 8003584:	f7ff fafc 	bl	8002b80 <RCCEx_PLL3_Config.part.0>
 8003588:	4605      	mov	r5, r0
 800358a:	6823      	ldr	r3, [r4, #0]
 800358c:	2d00      	cmp	r5, #0
 800358e:	f47f af6d 	bne.w	800346c <HAL_RCCEx_PeriphCLKConfig+0x80c>
 8003592:	e6c4      	b.n	800331e <HAL_RCCEx_PeriphCLKConfig+0x6be>
 8003594:	4ab8      	ldr	r2, [pc, #736]	@ (8003878 <HAL_RCCEx_PeriphCLKConfig+0xc18>)
 8003596:	6a92      	ldr	r2, [r2, #40]	@ 0x28
 8003598:	f002 0203 	and.w	r2, r2, #3
 800359c:	2a03      	cmp	r2, #3
 800359e:	f000 81ac 	beq.w	80038fa <HAL_RCCEx_PeriphCLKConfig+0xc9a>
 80035a2:	2102      	movs	r1, #2
 80035a4:	1d20      	adds	r0, r4, #4
 80035a6:	f7ff fa7b 	bl	8002aa0 <RCCEx_PLL2_Config.part.0>
 80035aa:	4605      	mov	r5, r0
 80035ac:	6823      	ldr	r3, [r4, #0]
 80035ae:	2d00      	cmp	r5, #0
 80035b0:	f47f acbc 	bne.w	8002f2c <HAL_RCCEx_PeriphCLKConfig+0x2cc>
 80035b4:	e752      	b.n	800345c <HAL_RCCEx_PeriphCLKConfig+0x7fc>
 80035b6:	4ab0      	ldr	r2, [pc, #704]	@ (8003878 <HAL_RCCEx_PeriphCLKConfig+0xc18>)
 80035b8:	6a92      	ldr	r2, [r2, #40]	@ 0x28
 80035ba:	f002 0203 	and.w	r2, r2, #3
 80035be:	2a03      	cmp	r2, #3
 80035c0:	f000 8172 	beq.w	80038a8 <HAL_RCCEx_PeriphCLKConfig+0xc48>
 80035c4:	2102      	movs	r1, #2
 80035c6:	1d20      	adds	r0, r4, #4
 80035c8:	f7ff fa6a 	bl	8002aa0 <RCCEx_PLL2_Config.part.0>
 80035cc:	4605      	mov	r5, r0
 80035ce:	6823      	ldr	r3, [r4, #0]
 80035d0:	2d00      	cmp	r5, #0
 80035d2:	f47f af4d 	bne.w	8003470 <HAL_RCCEx_PeriphCLKConfig+0x810>
 80035d6:	e408      	b.n	8002dea <HAL_RCCEx_PeriphCLKConfig+0x18a>
 80035d8:	4aa7      	ldr	r2, [pc, #668]	@ (8003878 <HAL_RCCEx_PeriphCLKConfig+0xc18>)
 80035da:	6a92      	ldr	r2, [r2, #40]	@ 0x28
 80035dc:	f002 0203 	and.w	r2, r2, #3
 80035e0:	2a03      	cmp	r2, #3
 80035e2:	f000 80ed 	beq.w	80037c0 <HAL_RCCEx_PeriphCLKConfig+0xb60>
 80035e6:	2101      	movs	r1, #1
 80035e8:	f104 0024 	add.w	r0, r4, #36	@ 0x24
 80035ec:	f7ff fac8 	bl	8002b80 <RCCEx_PLL3_Config.part.0>
 80035f0:	4605      	mov	r5, r0
 80035f2:	6823      	ldr	r3, [r4, #0]
 80035f4:	2d00      	cmp	r5, #0
 80035f6:	f47f af5a 	bne.w	80034ae <HAL_RCCEx_PeriphCLKConfig+0x84e>
 80035fa:	e468      	b.n	8002ece <HAL_RCCEx_PeriphCLKConfig+0x26e>
 80035fc:	4a9e      	ldr	r2, [pc, #632]	@ (8003878 <HAL_RCCEx_PeriphCLKConfig+0xc18>)
 80035fe:	6a92      	ldr	r2, [r2, #40]	@ 0x28
 8003600:	f002 0203 	and.w	r2, r2, #3
 8003604:	2a03      	cmp	r2, #3
 8003606:	f43f ab63 	beq.w	8002cd0 <HAL_RCCEx_PeriphCLKConfig+0x70>
 800360a:	2100      	movs	r1, #0
 800360c:	f104 0024 	add.w	r0, r4, #36	@ 0x24
 8003610:	f7ff fab6 	bl	8002b80 <RCCEx_PLL3_Config.part.0>
 8003614:	4605      	mov	r5, r0
 8003616:	6823      	ldr	r3, [r4, #0]
 8003618:	2d00      	cmp	r5, #0
 800361a:	f43f aed3 	beq.w	80033c4 <HAL_RCCEx_PeriphCLKConfig+0x764>
 800361e:	462e      	mov	r6, r5
 8003620:	f7ff bb58 	b.w	8002cd4 <HAL_RCCEx_PeriphCLKConfig+0x74>
 8003624:	4994      	ldr	r1, [pc, #592]	@ (8003878 <HAL_RCCEx_PeriphCLKConfig+0xc18>)
 8003626:	6aca      	ldr	r2, [r1, #44]	@ 0x2c
 8003628:	f442 3200 	orr.w	r2, r2, #131072	@ 0x20000
 800362c:	62ca      	str	r2, [r1, #44]	@ 0x2c
 800362e:	2d00      	cmp	r5, #0
 8003630:	f43f abbf 	beq.w	8002db2 <HAL_RCCEx_PeriphCLKConfig+0x152>
 8003634:	462e      	mov	r6, r5
 8003636:	f7ff bbc4 	b.w	8002dc2 <HAL_RCCEx_PeriphCLKConfig+0x162>
 800363a:	4a8f      	ldr	r2, [pc, #572]	@ (8003878 <HAL_RCCEx_PeriphCLKConfig+0xc18>)
 800363c:	6a92      	ldr	r2, [r2, #40]	@ 0x28
 800363e:	f002 0203 	and.w	r2, r2, #3
 8003642:	2a03      	cmp	r2, #3
 8003644:	f000 8114 	beq.w	8003870 <HAL_RCCEx_PeriphCLKConfig+0xc10>
 8003648:	2100      	movs	r1, #0
 800364a:	f104 0024 	add.w	r0, r4, #36	@ 0x24
 800364e:	f7ff fa97 	bl	8002b80 <RCCEx_PLL3_Config.part.0>
 8003652:	4605      	mov	r5, r0
 8003654:	6823      	ldr	r3, [r4, #0]
 8003656:	2d00      	cmp	r5, #0
 8003658:	f43f ab5a 	beq.w	8002d10 <HAL_RCCEx_PeriphCLKConfig+0xb0>
 800365c:	462e      	mov	r6, r5
 800365e:	f7ff bb5e 	b.w	8002d1e <HAL_RCCEx_PeriphCLKConfig+0xbe>
 8003662:	4985      	ldr	r1, [pc, #532]	@ (8003878 <HAL_RCCEx_PeriphCLKConfig+0xc18>)
 8003664:	6aca      	ldr	r2, [r1, #44]	@ 0x2c
 8003666:	f442 3200 	orr.w	r2, r2, #131072	@ 0x20000
 800366a:	62ca      	str	r2, [r1, #44]	@ 0x2c
 800366c:	f7ff bb4d 	b.w	8002d0a <HAL_RCCEx_PeriphCLKConfig+0xaa>
 8003670:	4a81      	ldr	r2, [pc, #516]	@ (8003878 <HAL_RCCEx_PeriphCLKConfig+0xc18>)
 8003672:	6a92      	ldr	r2, [r2, #40]	@ 0x28
 8003674:	f002 0203 	and.w	r2, r2, #3
 8003678:	2a03      	cmp	r2, #3
 800367a:	f000 80e2 	beq.w	8003842 <HAL_RCCEx_PeriphCLKConfig+0xbe2>
 800367e:	2100      	movs	r1, #0
 8003680:	f104 0024 	add.w	r0, r4, #36	@ 0x24
 8003684:	f7ff fa7c 	bl	8002b80 <RCCEx_PLL3_Config.part.0>
 8003688:	4605      	mov	r5, r0
 800368a:	6823      	ldr	r3, [r4, #0]
 800368c:	2d00      	cmp	r5, #0
 800368e:	f43f abd3 	beq.w	8002e38 <HAL_RCCEx_PeriphCLKConfig+0x1d8>
 8003692:	462e      	mov	r6, r5
 8003694:	f7ff bbd7 	b.w	8002e46 <HAL_RCCEx_PeriphCLKConfig+0x1e6>
 8003698:	4a77      	ldr	r2, [pc, #476]	@ (8003878 <HAL_RCCEx_PeriphCLKConfig+0xc18>)
 800369a:	6a92      	ldr	r2, [r2, #40]	@ 0x28
 800369c:	f002 0203 	and.w	r2, r2, #3
 80036a0:	2a03      	cmp	r2, #3
 80036a2:	f43f ab15 	beq.w	8002cd0 <HAL_RCCEx_PeriphCLKConfig+0x70>
 80036a6:	2100      	movs	r1, #0
 80036a8:	1d20      	adds	r0, r4, #4
 80036aa:	f7ff f9f9 	bl	8002aa0 <RCCEx_PLL2_Config.part.0>
 80036ae:	6823      	ldr	r3, [r4, #0]
 80036b0:	4605      	mov	r5, r0
 80036b2:	e684      	b.n	80033be <HAL_RCCEx_PeriphCLKConfig+0x75e>
 80036b4:	4a70      	ldr	r2, [pc, #448]	@ (8003878 <HAL_RCCEx_PeriphCLKConfig+0xc18>)
 80036b6:	6a92      	ldr	r2, [r2, #40]	@ 0x28
 80036b8:	f002 0203 	and.w	r2, r2, #3
 80036bc:	2a03      	cmp	r2, #3
 80036be:	f000 80cc 	beq.w	800385a <HAL_RCCEx_PeriphCLKConfig+0xbfa>
 80036c2:	2100      	movs	r1, #0
 80036c4:	f104 0024 	add.w	r0, r4, #36	@ 0x24
 80036c8:	f7ff fa5a 	bl	8002b80 <RCCEx_PLL3_Config.part.0>
 80036cc:	6823      	ldr	r3, [r4, #0]
 80036ce:	4605      	mov	r5, r0
 80036d0:	f7ff bb6c 	b.w	8002dac <HAL_RCCEx_PeriphCLKConfig+0x14c>
 80036d4:	4868      	ldr	r0, [pc, #416]	@ (8003878 <HAL_RCCEx_PeriphCLKConfig+0xc18>)
 80036d6:	6ac1      	ldr	r1, [r0, #44]	@ 0x2c
 80036d8:	f441 3100 	orr.w	r1, r1, #131072	@ 0x20000
 80036dc:	62c1      	str	r1, [r0, #44]	@ 0x2c
 80036de:	f7ff bae4 	b.w	8002caa <HAL_RCCEx_PeriphCLKConfig+0x4a>
 80036e2:	4965      	ldr	r1, [pc, #404]	@ (8003878 <HAL_RCCEx_PeriphCLKConfig+0xc18>)
 80036e4:	6aca      	ldr	r2, [r1, #44]	@ 0x2c
 80036e6:	f442 3200 	orr.w	r2, r2, #131072	@ 0x20000
 80036ea:	62ca      	str	r2, [r1, #44]	@ 0x2c
 80036ec:	2d00      	cmp	r5, #0
 80036ee:	f43f ab37 	beq.w	8002d60 <HAL_RCCEx_PeriphCLKConfig+0x100>
 80036f2:	462e      	mov	r6, r5
 80036f4:	f7ff bb3c 	b.w	8002d70 <HAL_RCCEx_PeriphCLKConfig+0x110>
 80036f8:	4a5f      	ldr	r2, [pc, #380]	@ (8003878 <HAL_RCCEx_PeriphCLKConfig+0xc18>)
 80036fa:	6a92      	ldr	r2, [r2, #40]	@ 0x28
 80036fc:	f002 0203 	and.w	r2, r2, #3
 8003700:	2a03      	cmp	r2, #3
 8003702:	f000 80c3 	beq.w	800388c <HAL_RCCEx_PeriphCLKConfig+0xc2c>
 8003706:	2100      	movs	r1, #0
 8003708:	f104 0024 	add.w	r0, r4, #36	@ 0x24
 800370c:	f7ff fa38 	bl	8002b80 <RCCEx_PLL3_Config.part.0>
 8003710:	6823      	ldr	r3, [r4, #0]
 8003712:	4605      	mov	r5, r0
 8003714:	f7ff bb21 	b.w	8002d5a <HAL_RCCEx_PeriphCLKConfig+0xfa>
 8003718:	4957      	ldr	r1, [pc, #348]	@ (8003878 <HAL_RCCEx_PeriphCLKConfig+0xc18>)
 800371a:	6aca      	ldr	r2, [r1, #44]	@ 0x2c
 800371c:	f442 3200 	orr.w	r2, r2, #131072	@ 0x20000
 8003720:	62ca      	str	r2, [r1, #44]	@ 0x2c
 8003722:	f7ff bb86 	b.w	8002e32 <HAL_RCCEx_PeriphCLKConfig+0x1d2>
 8003726:	4a54      	ldr	r2, [pc, #336]	@ (8003878 <HAL_RCCEx_PeriphCLKConfig+0xc18>)
 8003728:	6a92      	ldr	r2, [r2, #40]	@ 0x28
 800372a:	f002 0203 	and.w	r2, r2, #3
 800372e:	2a03      	cmp	r2, #3
 8003730:	f000 80b4 	beq.w	800389c <HAL_RCCEx_PeriphCLKConfig+0xc3c>
 8003734:	2102      	movs	r1, #2
 8003736:	3024      	adds	r0, #36	@ 0x24
 8003738:	f7ff fa22 	bl	8002b80 <RCCEx_PLL3_Config.part.0>
 800373c:	f7ff bab0 	b.w	8002ca0 <HAL_RCCEx_PeriphCLKConfig+0x40>
 8003740:	4a4d      	ldr	r2, [pc, #308]	@ (8003878 <HAL_RCCEx_PeriphCLKConfig+0xc18>)
 8003742:	6a92      	ldr	r2, [r2, #40]	@ 0x28
 8003744:	f002 0203 	and.w	r2, r2, #3
 8003748:	2a03      	cmp	r2, #3
 800374a:	f000 80cb 	beq.w	80038e4 <HAL_RCCEx_PeriphCLKConfig+0xc84>
 800374e:	2101      	movs	r1, #1
 8003750:	f104 0024 	add.w	r0, r4, #36	@ 0x24
 8003754:	f7ff fa14 	bl	8002b80 <RCCEx_PLL3_Config.part.0>
 8003758:	4605      	mov	r5, r0
 800375a:	6823      	ldr	r3, [r4, #0]
 800375c:	2d00      	cmp	r5, #0
 800375e:	f47f ac39 	bne.w	8002fd4 <HAL_RCCEx_PeriphCLKConfig+0x374>
 8003762:	e68b      	b.n	800347c <HAL_RCCEx_PeriphCLKConfig+0x81c>
 8003764:	4a44      	ldr	r2, [pc, #272]	@ (8003878 <HAL_RCCEx_PeriphCLKConfig+0xc18>)
 8003766:	6a92      	ldr	r2, [r2, #40]	@ 0x28
 8003768:	f002 0203 	and.w	r2, r2, #3
 800376c:	2a03      	cmp	r2, #3
 800376e:	f000 80b5 	beq.w	80038dc <HAL_RCCEx_PeriphCLKConfig+0xc7c>
 8003772:	2101      	movs	r1, #1
 8003774:	f104 0024 	add.w	r0, r4, #36	@ 0x24
 8003778:	f7ff fa02 	bl	8002b80 <RCCEx_PLL3_Config.part.0>
 800377c:	4605      	mov	r5, r0
 800377e:	6823      	ldr	r3, [r4, #0]
 8003780:	2d00      	cmp	r5, #0
 8003782:	f47f ac49 	bne.w	8003018 <HAL_RCCEx_PeriphCLKConfig+0x3b8>
 8003786:	e681      	b.n	800348c <HAL_RCCEx_PeriphCLKConfig+0x82c>
 8003788:	4a3b      	ldr	r2, [pc, #236]	@ (8003878 <HAL_RCCEx_PeriphCLKConfig+0xc18>)
 800378a:	6a92      	ldr	r2, [r2, #40]	@ 0x28
 800378c:	f002 0203 	and.w	r2, r2, #3
 8003790:	2a03      	cmp	r2, #3
 8003792:	f43f abff 	beq.w	8002f94 <HAL_RCCEx_PeriphCLKConfig+0x334>
 8003796:	2101      	movs	r1, #1
 8003798:	f104 0024 	add.w	r0, r4, #36	@ 0x24
 800379c:	f7ff f9f0 	bl	8002b80 <RCCEx_PLL3_Config.part.0>
 80037a0:	4605      	mov	r5, r0
 80037a2:	6823      	ldr	r3, [r4, #0]
 80037a4:	2d00      	cmp	r5, #0
 80037a6:	f47f ae7a 	bne.w	800349e <HAL_RCCEx_PeriphCLKConfig+0x83e>
 80037aa:	e5a8      	b.n	80032fe <HAL_RCCEx_PeriphCLKConfig+0x69e>
 80037ac:	f022 5180 	bic.w	r1, r2, #268435456	@ 0x10000000
 80037b0:	f1b1 4f80 	cmp.w	r1, #1073741824	@ 0x40000000
 80037b4:	f43f ab88 	beq.w	8002ec8 <HAL_RCCEx_PeriphCLKConfig+0x268>
 80037b8:	f1b2 5f40 	cmp.w	r2, #805306368	@ 0x30000000
 80037bc:	f43f ab84 	beq.w	8002ec8 <HAL_RCCEx_PeriphCLKConfig+0x268>
 80037c0:	2601      	movs	r6, #1
 80037c2:	4635      	mov	r5, r6
 80037c4:	f7ff bb8b 	b.w	8002ede <HAL_RCCEx_PeriphCLKConfig+0x27e>
 80037c8:	f422 3180 	bic.w	r1, r2, #65536	@ 0x10000
 80037cc:	f5b1 2f80 	cmp.w	r1, #262144	@ 0x40000
 80037d0:	f43f ab54 	beq.w	8002e7c <HAL_RCCEx_PeriphCLKConfig+0x21c>
 80037d4:	f5b2 3f40 	cmp.w	r2, #196608	@ 0x30000
 80037d8:	f43f ab50 	beq.w	8002e7c <HAL_RCCEx_PeriphCLKConfig+0x21c>
 80037dc:	2601      	movs	r6, #1
 80037de:	4635      	mov	r5, r6
 80037e0:	f7ff bb56 	b.w	8002e90 <HAL_RCCEx_PeriphCLKConfig+0x230>
 80037e4:	f022 5180 	bic.w	r1, r2, #268435456	@ 0x10000000
 80037e8:	f1b1 4f80 	cmp.w	r1, #1073741824	@ 0x40000000
 80037ec:	f43f ac31 	beq.w	8003052 <HAL_RCCEx_PeriphCLKConfig+0x3f2>
 80037f0:	f1b2 5f40 	cmp.w	r2, #805306368	@ 0x30000000
 80037f4:	f43f ac2d 	beq.w	8003052 <HAL_RCCEx_PeriphCLKConfig+0x3f2>
 80037f8:	2601      	movs	r6, #1
 80037fa:	4635      	mov	r5, r6
 80037fc:	e434      	b.n	8003068 <HAL_RCCEx_PeriphCLKConfig+0x408>
 80037fe:	f422 6180 	bic.w	r1, r2, #1024	@ 0x400
 8003802:	f5b1 5f80 	cmp.w	r1, #4096	@ 0x1000
 8003806:	f43f ac4b 	beq.w	80030a0 <HAL_RCCEx_PeriphCLKConfig+0x440>
 800380a:	f5b2 6f40 	cmp.w	r2, #3072	@ 0xc00
 800380e:	f43f ac47 	beq.w	80030a0 <HAL_RCCEx_PeriphCLKConfig+0x440>
 8003812:	2601      	movs	r6, #1
 8003814:	4635      	mov	r5, r6
 8003816:	e44e      	b.n	80030b6 <HAL_RCCEx_PeriphCLKConfig+0x456>
 8003818:	f422 5100 	bic.w	r1, r2, #8192	@ 0x2000
 800381c:	f5b1 4f00 	cmp.w	r1, #32768	@ 0x8000
 8003820:	f43f ac65 	beq.w	80030ee <HAL_RCCEx_PeriphCLKConfig+0x48e>
 8003824:	f5b2 4fc0 	cmp.w	r2, #24576	@ 0x6000
 8003828:	f43f ac61 	beq.w	80030ee <HAL_RCCEx_PeriphCLKConfig+0x48e>
 800382c:	2601      	movs	r6, #1
 800382e:	4635      	mov	r5, r6
 8003830:	e468      	b.n	8003104 <HAL_RCCEx_PeriphCLKConfig+0x4a4>
 8003832:	f5b2 5f40 	cmp.w	r2, #12288	@ 0x3000
 8003836:	f43f aafc 	beq.w	8002e32 <HAL_RCCEx_PeriphCLKConfig+0x1d2>
 800383a:	f5b2 4f80 	cmp.w	r2, #16384	@ 0x4000
 800383e:	f43f aaf8 	beq.w	8002e32 <HAL_RCCEx_PeriphCLKConfig+0x1d2>
 8003842:	2601      	movs	r6, #1
 8003844:	4635      	mov	r5, r6
 8003846:	f7ff bafe 	b.w	8002e46 <HAL_RCCEx_PeriphCLKConfig+0x1e6>
 800384a:	f1b2 7f40 	cmp.w	r2, #50331648	@ 0x3000000
 800384e:	f43f aaad 	beq.w	8002dac <HAL_RCCEx_PeriphCLKConfig+0x14c>
 8003852:	f1b2 6f80 	cmp.w	r2, #67108864	@ 0x4000000
 8003856:	f43f aaa9 	beq.w	8002dac <HAL_RCCEx_PeriphCLKConfig+0x14c>
 800385a:	2601      	movs	r6, #1
 800385c:	4635      	mov	r5, r6
 800385e:	f7ff bab0 	b.w	8002dc2 <HAL_RCCEx_PeriphCLKConfig+0x162>
 8003862:	2ac0      	cmp	r2, #192	@ 0xc0
 8003864:	f43f aa51 	beq.w	8002d0a <HAL_RCCEx_PeriphCLKConfig+0xaa>
 8003868:	f5b2 7f80 	cmp.w	r2, #256	@ 0x100
 800386c:	f43f aa4d 	beq.w	8002d0a <HAL_RCCEx_PeriphCLKConfig+0xaa>
 8003870:	2601      	movs	r6, #1
 8003872:	4635      	mov	r5, r6
 8003874:	f7ff ba53 	b.w	8002d1e <HAL_RCCEx_PeriphCLKConfig+0xbe>
 8003878:	58024400 	.word	0x58024400
 800387c:	f5b2 0fc0 	cmp.w	r2, #6291456	@ 0x600000
 8003880:	f43f aa6b 	beq.w	8002d5a <HAL_RCCEx_PeriphCLKConfig+0xfa>
 8003884:	f5b2 0f00 	cmp.w	r2, #8388608	@ 0x800000
 8003888:	f43f aa67 	beq.w	8002d5a <HAL_RCCEx_PeriphCLKConfig+0xfa>
 800388c:	2601      	movs	r6, #1
 800388e:	4635      	mov	r5, r6
 8003890:	f7ff ba6e 	b.w	8002d70 <HAL_RCCEx_PeriphCLKConfig+0x110>
 8003894:	f5b2 1f40 	cmp.w	r2, #3145728	@ 0x300000
 8003898:	f43f aa07 	beq.w	8002caa <HAL_RCCEx_PeriphCLKConfig+0x4a>
 800389c:	2601      	movs	r6, #1
 800389e:	f7ff ba0b 	b.w	8002cb8 <HAL_RCCEx_PeriphCLKConfig+0x58>
 80038a2:	2a30      	cmp	r2, #48	@ 0x30
 80038a4:	f43f aa9e 	beq.w	8002de4 <HAL_RCCEx_PeriphCLKConfig+0x184>
 80038a8:	2601      	movs	r6, #1
 80038aa:	4635      	mov	r5, r6
 80038ac:	f7ff baa4 	b.w	8002df8 <HAL_RCCEx_PeriphCLKConfig+0x198>
 80038b0:	2503      	movs	r5, #3
 80038b2:	6823      	ldr	r3, [r4, #0]
 80038b4:	462e      	mov	r6, r5
 80038b6:	f7ff bb3d 	b.w	8002f34 <HAL_RCCEx_PeriphCLKConfig+0x2d4>
 80038ba:	4a23      	ldr	r2, [pc, #140]	@ (8003948 <HAL_RCCEx_PeriphCLKConfig+0xce8>)
 80038bc:	6a92      	ldr	r2, [r2, #40]	@ 0x28
 80038be:	f002 0203 	and.w	r2, r2, #3
 80038c2:	2a03      	cmp	r2, #3
 80038c4:	f43f ab19 	beq.w	8002efa <HAL_RCCEx_PeriphCLKConfig+0x29a>
 80038c8:	2101      	movs	r1, #1
 80038ca:	1d20      	adds	r0, r4, #4
 80038cc:	f7ff f8e8 	bl	8002aa0 <RCCEx_PLL2_Config.part.0>
 80038d0:	4605      	mov	r5, r0
 80038d2:	6823      	ldr	r3, [r4, #0]
 80038d4:	2d00      	cmp	r5, #0
 80038d6:	f47f adcd 	bne.w	8003474 <HAL_RCCEx_PeriphCLKConfig+0x814>
 80038da:	e4f5      	b.n	80032c8 <HAL_RCCEx_PeriphCLKConfig+0x668>
 80038dc:	2601      	movs	r6, #1
 80038de:	4635      	mov	r5, r6
 80038e0:	f7ff bb9b 	b.w	800301a <HAL_RCCEx_PeriphCLKConfig+0x3ba>
 80038e4:	2601      	movs	r6, #1
 80038e6:	4635      	mov	r5, r6
 80038e8:	f7ff bb75 	b.w	8002fd6 <HAL_RCCEx_PeriphCLKConfig+0x376>
 80038ec:	2603      	movs	r6, #3
 80038ee:	f7ff b9e3 	b.w	8002cb8 <HAL_RCCEx_PeriphCLKConfig+0x58>
 80038f2:	2601      	movs	r6, #1
 80038f4:	e40e      	b.n	8003114 <HAL_RCCEx_PeriphCLKConfig+0x4b4>
 80038f6:	2601      	movs	r6, #1
 80038f8:	e41a      	b.n	8003130 <HAL_RCCEx_PeriphCLKConfig+0x4d0>
 80038fa:	2601      	movs	r6, #1
 80038fc:	4635      	mov	r5, r6
 80038fe:	f7ff bb16 	b.w	8002f2e <HAL_RCCEx_PeriphCLKConfig+0x2ce>
 8003902:	f7fe f967 	bl	8001bd4 <HAL_GetTick>
 8003906:	f8df 8040 	ldr.w	r8, [pc, #64]	@ 8003948 <HAL_RCCEx_PeriphCLKConfig+0xce8>
 800390a:	4607      	mov	r7, r0
 800390c:	f241 3988 	movw	r9, #5000	@ 0x1388
 8003910:	e004      	b.n	800391c <HAL_RCCEx_PeriphCLKConfig+0xcbc>
 8003912:	f7fe f95f 	bl	8001bd4 <HAL_GetTick>
 8003916:	1bc0      	subs	r0, r0, r7
 8003918:	4548      	cmp	r0, r9
 800391a:	d810      	bhi.n	800393e <HAL_RCCEx_PeriphCLKConfig+0xcde>
 800391c:	f8d8 3070 	ldr.w	r3, [r8, #112]	@ 0x70
 8003920:	079b      	lsls	r3, r3, #30
 8003922:	d5f6      	bpl.n	8003912 <HAL_RCCEx_PeriphCLKConfig+0xcb2>
 8003924:	f8d4 30b0 	ldr.w	r3, [r4, #176]	@ 0xb0
 8003928:	e530      	b.n	800338c <HAL_RCCEx_PeriphCLKConfig+0x72c>
 800392a:	4807      	ldr	r0, [pc, #28]	@ (8003948 <HAL_RCCEx_PeriphCLKConfig+0xce8>)
 800392c:	4a07      	ldr	r2, [pc, #28]	@ (800394c <HAL_RCCEx_PeriphCLKConfig+0xcec>)
 800392e:	6901      	ldr	r1, [r0, #16]
 8003930:	ea02 1213 	and.w	r2, r2, r3, lsr #4
 8003934:	f421 517c 	bic.w	r1, r1, #16128	@ 0x3f00
 8003938:	430a      	orrs	r2, r1
 800393a:	6102      	str	r2, [r0, #16]
 800393c:	e531      	b.n	80033a2 <HAL_RCCEx_PeriphCLKConfig+0x742>
 800393e:	2603      	movs	r6, #3
 8003940:	6823      	ldr	r3, [r4, #0]
 8003942:	4635      	mov	r5, r6
 8003944:	f7ff baf6 	b.w	8002f34 <HAL_RCCEx_PeriphCLKConfig+0x2d4>
 8003948:	58024400 	.word	0x58024400
 800394c:	00ffffcf 	.word	0x00ffffcf

08003950 <NMI_Handler>:
 8003950:	e7fe      	b.n	8003950 <NMI_Handler>
 8003952:	bf00      	nop

08003954 <HardFault_Handler>:
 8003954:	e7fe      	b.n	8003954 <HardFault_Handler>
 8003956:	bf00      	nop

08003958 <MemManage_Handler>:
 8003958:	e7fe      	b.n	8003958 <MemManage_Handler>
 800395a:	bf00      	nop

0800395c <BusFault_Handler>:
 800395c:	e7fe      	b.n	800395c <BusFault_Handler>
 800395e:	bf00      	nop

08003960 <UsageFault_Handler>:
 8003960:	e7fe      	b.n	8003960 <UsageFault_Handler>
 8003962:	bf00      	nop

08003964 <SVC_Handler>:
 8003964:	4770      	bx	lr
 8003966:	bf00      	nop

08003968 <DebugMon_Handler>:
 8003968:	4770      	bx	lr
 800396a:	bf00      	nop

0800396c <PendSV_Handler>:
 800396c:	4770      	bx	lr
 800396e:	bf00      	nop

08003970 <SysTick_Handler>:
 8003970:	f7fe b924 	b.w	8001bbc <HAL_IncTick>

08003974 <_getpid>:
 8003974:	2001      	movs	r0, #1
 8003976:	4770      	bx	lr

08003978 <_kill>:
 8003978:	b508      	push	{r3, lr}
 800397a:	f001 fa23 	bl	8004dc4 <__errno>
 800397e:	2216      	movs	r2, #22
 8003980:	4603      	mov	r3, r0
 8003982:	f04f 30ff 	mov.w	r0, #4294967295
 8003986:	601a      	str	r2, [r3, #0]
 8003988:	bd08      	pop	{r3, pc}
 800398a:	bf00      	nop

0800398c <_exit>:
 800398c:	b508      	push	{r3, lr}
 800398e:	f001 fa19 	bl	8004dc4 <__errno>
 8003992:	2316      	movs	r3, #22
 8003994:	6003      	str	r3, [r0, #0]
 8003996:	e7fe      	b.n	8003996 <_exit+0xa>

08003998 <_read>:
 8003998:	b570      	push	{r4, r5, r6, lr}
 800399a:	1e16      	subs	r6, r2, #0
 800399c:	dd07      	ble.n	80039ae <_read+0x16>
 800399e:	460c      	mov	r4, r1
 80039a0:	198d      	adds	r5, r1, r6
 80039a2:	f3af 8000 	nop.w
 80039a6:	f804 0b01 	strb.w	r0, [r4], #1
 80039aa:	42a5      	cmp	r5, r4
 80039ac:	d1f9      	bne.n	80039a2 <_read+0xa>
 80039ae:	4630      	mov	r0, r6
 80039b0:	bd70      	pop	{r4, r5, r6, pc}
 80039b2:	bf00      	nop

080039b4 <_write>:
 80039b4:	b570      	push	{r4, r5, r6, lr}
 80039b6:	1e16      	subs	r6, r2, #0
 80039b8:	dd07      	ble.n	80039ca <_write+0x16>
 80039ba:	460c      	mov	r4, r1
 80039bc:	198d      	adds	r5, r1, r6
 80039be:	f814 0b01 	ldrb.w	r0, [r4], #1
 80039c2:	f000 f8ef 	bl	8003ba4 <__io_putchar>
 80039c6:	42a5      	cmp	r5, r4
 80039c8:	d1f9      	bne.n	80039be <_write+0xa>
 80039ca:	4630      	mov	r0, r6
 80039cc:	bd70      	pop	{r4, r5, r6, pc}
 80039ce:	bf00      	nop

080039d0 <_close>:
 80039d0:	f04f 30ff 	mov.w	r0, #4294967295
 80039d4:	4770      	bx	lr
 80039d6:	bf00      	nop

080039d8 <_fstat>:
 80039d8:	f44f 5300 	mov.w	r3, #8192	@ 0x2000
 80039dc:	2000      	movs	r0, #0
 80039de:	604b      	str	r3, [r1, #4]
 80039e0:	4770      	bx	lr
 80039e2:	bf00      	nop

080039e4 <_isatty>:
 80039e4:	2001      	movs	r0, #1
 80039e6:	4770      	bx	lr

080039e8 <_lseek>:
 80039e8:	2000      	movs	r0, #0
 80039ea:	4770      	bx	lr

080039ec <_sbrk>:
 80039ec:	490d      	ldr	r1, [pc, #52]	@ (8003a24 <_sbrk+0x38>)
 80039ee:	4603      	mov	r3, r0
 80039f0:	4a0d      	ldr	r2, [pc, #52]	@ (8003a28 <_sbrk+0x3c>)
 80039f2:	6808      	ldr	r0, [r1, #0]
 80039f4:	b510      	push	{r4, lr}
 80039f6:	4c0d      	ldr	r4, [pc, #52]	@ (8003a2c <_sbrk+0x40>)
 80039f8:	1b12      	subs	r2, r2, r4
 80039fa:	b120      	cbz	r0, 8003a06 <_sbrk+0x1a>
 80039fc:	4403      	add	r3, r0
 80039fe:	4293      	cmp	r3, r2
 8003a00:	d807      	bhi.n	8003a12 <_sbrk+0x26>
 8003a02:	600b      	str	r3, [r1, #0]
 8003a04:	bd10      	pop	{r4, pc}
 8003a06:	4c0a      	ldr	r4, [pc, #40]	@ (8003a30 <_sbrk+0x44>)
 8003a08:	4620      	mov	r0, r4
 8003a0a:	600c      	str	r4, [r1, #0]
 8003a0c:	4403      	add	r3, r0
 8003a0e:	4293      	cmp	r3, r2
 8003a10:	d9f7      	bls.n	8003a02 <_sbrk+0x16>
 8003a12:	f001 f9d7 	bl	8004dc4 <__errno>
 8003a16:	220c      	movs	r2, #12
 8003a18:	4603      	mov	r3, r0
 8003a1a:	f04f 30ff 	mov.w	r0, #4294967295
 8003a1e:	601a      	str	r2, [r3, #0]
 8003a20:	bd10      	pop	{r4, pc}
 8003a22:	bf00      	nop
 8003a24:	200001f8 	.word	0x200001f8
 8003a28:	20020000 	.word	0x20020000
 8003a2c:	00000400 	.word	0x00000400
 8003a30:	20000348 	.word	0x20000348

08003a34 <SystemInit>:
 8003a34:	4929      	ldr	r1, [pc, #164]	@ (8003adc <SystemInit+0xa8>)
 8003a36:	4a2a      	ldr	r2, [pc, #168]	@ (8003ae0 <SystemInit+0xac>)
 8003a38:	f8d1 3088 	ldr.w	r3, [r1, #136]	@ 0x88
 8003a3c:	f443 0370 	orr.w	r3, r3, #15728640	@ 0xf00000
 8003a40:	b410      	push	{r4}
 8003a42:	f8c1 3088 	str.w	r3, [r1, #136]	@ 0x88
 8003a46:	6813      	ldr	r3, [r2, #0]
 8003a48:	f003 030f 	and.w	r3, r3, #15
 8003a4c:	2b06      	cmp	r3, #6
 8003a4e:	d805      	bhi.n	8003a5c <SystemInit+0x28>
 8003a50:	6813      	ldr	r3, [r2, #0]
 8003a52:	f023 030f 	bic.w	r3, r3, #15
 8003a56:	f043 0307 	orr.w	r3, r3, #7
 8003a5a:	6013      	str	r3, [r2, #0]
 8003a5c:	4b21      	ldr	r3, [pc, #132]	@ (8003ae4 <SystemInit+0xb0>)
 8003a5e:	2400      	movs	r4, #0
 8003a60:	4a21      	ldr	r2, [pc, #132]	@ (8003ae8 <SystemInit+0xb4>)
 8003a62:	6819      	ldr	r1, [r3, #0]
 8003a64:	481e      	ldr	r0, [pc, #120]	@ (8003ae0 <SystemInit+0xac>)
 8003a66:	f041 0101 	orr.w	r1, r1, #1
 8003a6a:	6019      	str	r1, [r3, #0]
 8003a6c:	611c      	str	r4, [r3, #16]
 8003a6e:	6819      	ldr	r1, [r3, #0]
 8003a70:	400a      	ands	r2, r1
 8003a72:	601a      	str	r2, [r3, #0]
 8003a74:	6803      	ldr	r3, [r0, #0]
 8003a76:	071b      	lsls	r3, r3, #28
 8003a78:	d505      	bpl.n	8003a86 <SystemInit+0x52>
 8003a7a:	6803      	ldr	r3, [r0, #0]
 8003a7c:	f023 030f 	bic.w	r3, r3, #15
 8003a80:	f043 0307 	orr.w	r3, r3, #7
 8003a84:	6003      	str	r3, [r0, #0]
 8003a86:	4b17      	ldr	r3, [pc, #92]	@ (8003ae4 <SystemInit+0xb0>)
 8003a88:	2200      	movs	r2, #0
 8003a8a:	4918      	ldr	r1, [pc, #96]	@ (8003aec <SystemInit+0xb8>)
 8003a8c:	4818      	ldr	r0, [pc, #96]	@ (8003af0 <SystemInit+0xbc>)
 8003a8e:	4c19      	ldr	r4, [pc, #100]	@ (8003af4 <SystemInit+0xc0>)
 8003a90:	619a      	str	r2, [r3, #24]
 8003a92:	61da      	str	r2, [r3, #28]
 8003a94:	621a      	str	r2, [r3, #32]
 8003a96:	629c      	str	r4, [r3, #40]	@ 0x28
 8003a98:	62d8      	str	r0, [r3, #44]	@ 0x2c
 8003a9a:	6319      	str	r1, [r3, #48]	@ 0x30
 8003a9c:	635a      	str	r2, [r3, #52]	@ 0x34
 8003a9e:	6399      	str	r1, [r3, #56]	@ 0x38
 8003aa0:	63da      	str	r2, [r3, #60]	@ 0x3c
 8003aa2:	6419      	str	r1, [r3, #64]	@ 0x40
 8003aa4:	645a      	str	r2, [r3, #68]	@ 0x44
 8003aa6:	6819      	ldr	r1, [r3, #0]
 8003aa8:	4813      	ldr	r0, [pc, #76]	@ (8003af8 <SystemInit+0xc4>)
 8003aaa:	f421 2180 	bic.w	r1, r1, #262144	@ 0x40000
 8003aae:	6019      	str	r1, [r3, #0]
 8003ab0:	661a      	str	r2, [r3, #96]	@ 0x60
 8003ab2:	6803      	ldr	r3, [r0, #0]
 8003ab4:	f36f 030f 	bfc	r3, #0, #16
 8003ab8:	f1b3 5f00 	cmp.w	r3, #536870912	@ 0x20000000
 8003abc:	d203      	bcs.n	8003ac6 <SystemInit+0x92>
 8003abe:	4b0f      	ldr	r3, [pc, #60]	@ (8003afc <SystemInit+0xc8>)
 8003ac0:	2201      	movs	r2, #1
 8003ac2:	f8c3 2108 	str.w	r2, [r3, #264]	@ 0x108
 8003ac6:	490e      	ldr	r1, [pc, #56]	@ (8003b00 <SystemInit+0xcc>)
 8003ac8:	f243 00d2 	movw	r0, #12498	@ 0x30d2
 8003acc:	4b03      	ldr	r3, [pc, #12]	@ (8003adc <SystemInit+0xa8>)
 8003ace:	f04f 6200 	mov.w	r2, #134217728	@ 0x8000000
 8003ad2:	6008      	str	r0, [r1, #0]
 8003ad4:	f85d 4b04 	ldr.w	r4, [sp], #4
 8003ad8:	609a      	str	r2, [r3, #8]
 8003ada:	4770      	bx	lr
 8003adc:	e000ed00 	.word	0xe000ed00
 8003ae0:	52002000 	.word	0x52002000
 8003ae4:	58024400 	.word	0x58024400
 8003ae8:	eaf6ed7f 	.word	0xeaf6ed7f
 8003aec:	01010280 	.word	0x01010280
 8003af0:	01ff0000 	.word	0x01ff0000
 8003af4:	02020200 	.word	0x02020200
 8003af8:	5c001000 	.word	0x5c001000
 8003afc:	51008000 	.word	0x51008000
 8003b00:	52004000 	.word	0x52004000

08003b04 <USART1_Init>:
 8003b04:	4924      	ldr	r1, [pc, #144]	@ (8003b98 <USART1_Init+0x94>)
 8003b06:	2000      	movs	r0, #0
 8003b08:	4b24      	ldr	r3, [pc, #144]	@ (8003b9c <USART1_Init+0x98>)
 8003b0a:	4a25      	ldr	r2, [pc, #148]	@ (8003ba0 <USART1_Init+0x9c>)
 8003b0c:	b410      	push	{r4}
 8003b0e:	f8d1 40e0 	ldr.w	r4, [r1, #224]	@ 0xe0
 8003b12:	b083      	sub	sp, #12
 8003b14:	f044 0401 	orr.w	r4, r4, #1
 8003b18:	f8c1 40e0 	str.w	r4, [r1, #224]	@ 0xe0
 8003b1c:	f8d1 40e0 	ldr.w	r4, [r1, #224]	@ 0xe0
 8003b20:	f004 0401 	and.w	r4, r4, #1
 8003b24:	9401      	str	r4, [sp, #4]
 8003b26:	9c01      	ldr	r4, [sp, #4]
 8003b28:	f8d1 40f0 	ldr.w	r4, [r1, #240]	@ 0xf0
 8003b2c:	f044 0410 	orr.w	r4, r4, #16
 8003b30:	f8c1 40f0 	str.w	r4, [r1, #240]	@ 0xf0
 8003b34:	f240 441b 	movw	r4, #1051	@ 0x41b
 8003b38:	f8d1 10f0 	ldr.w	r1, [r1, #240]	@ 0xf0
 8003b3c:	6819      	ldr	r1, [r3, #0]
 8003b3e:	f421 2140 	bic.w	r1, r1, #786432	@ 0xc0000
 8003b42:	f441 2100 	orr.w	r1, r1, #524288	@ 0x80000
 8003b46:	6019      	str	r1, [r3, #0]
 8003b48:	6a59      	ldr	r1, [r3, #36]	@ 0x24
 8003b4a:	f021 01f0 	bic.w	r1, r1, #240	@ 0xf0
 8003b4e:	f041 0170 	orr.w	r1, r1, #112	@ 0x70
 8003b52:	6259      	str	r1, [r3, #36]	@ 0x24
 8003b54:	6899      	ldr	r1, [r3, #8]
 8003b56:	f441 2140 	orr.w	r1, r1, #786432	@ 0xc0000
 8003b5a:	6099      	str	r1, [r3, #8]
 8003b5c:	6819      	ldr	r1, [r3, #0]
 8003b5e:	f421 1140 	bic.w	r1, r1, #3145728	@ 0x300000
 8003b62:	f441 1100 	orr.w	r1, r1, #2097152	@ 0x200000
 8003b66:	6019      	str	r1, [r3, #0]
 8003b68:	6a59      	ldr	r1, [r3, #36]	@ 0x24
 8003b6a:	f421 6170 	bic.w	r1, r1, #3840	@ 0xf00
 8003b6e:	f441 61e0 	orr.w	r1, r1, #1792	@ 0x700
 8003b72:	6259      	str	r1, [r3, #36]	@ 0x24
 8003b74:	68d9      	ldr	r1, [r3, #12]
 8003b76:	f421 1140 	bic.w	r1, r1, #3145728	@ 0x300000
 8003b7a:	f441 1180 	orr.w	r1, r1, #1048576	@ 0x100000
 8003b7e:	60d9      	str	r1, [r3, #12]
 8003b80:	230d      	movs	r3, #13
 8003b82:	6010      	str	r0, [r2, #0]
 8003b84:	60d4      	str	r4, [r2, #12]
 8003b86:	6050      	str	r0, [r2, #4]
 8003b88:	6090      	str	r0, [r2, #8]
 8003b8a:	62d0      	str	r0, [r2, #44]	@ 0x2c
 8003b8c:	6013      	str	r3, [r2, #0]
 8003b8e:	b003      	add	sp, #12
 8003b90:	f85d 4b04 	ldr.w	r4, [sp], #4
 8003b94:	4770      	bx	lr
 8003b96:	bf00      	nop
 8003b98:	58024400 	.word	0x58024400
 8003b9c:	58020000 	.word	0x58020000
 8003ba0:	40011000 	.word	0x40011000

08003ba4 <__io_putchar>:
 8003ba4:	4a03      	ldr	r2, [pc, #12]	@ (8003bb4 <__io_putchar+0x10>)
 8003ba6:	69d3      	ldr	r3, [r2, #28]
 8003ba8:	061b      	lsls	r3, r3, #24
 8003baa:	d5fc      	bpl.n	8003ba6 <__io_putchar+0x2>
 8003bac:	b2c3      	uxtb	r3, r0
 8003bae:	6293      	str	r3, [r2, #40]	@ 0x28
 8003bb0:	4770      	bx	lr
 8003bb2:	bf00      	nop
 8003bb4:	40011000 	.word	0x40011000

08003bb8 <Reset_Handler>:
 8003bb8:	4817      	ldr	r0, [pc, #92]	@ (8003c18 <LoopForever+0x2>)
 8003bba:	4685      	mov	sp, r0
 8003bbc:	f7ff ff3a 	bl	8003a34 <SystemInit>
 8003bc0:	4816      	ldr	r0, [pc, #88]	@ (8003c1c <LoopForever+0x6>)
 8003bc2:	4917      	ldr	r1, [pc, #92]	@ (8003c20 <LoopForever+0xa>)
 8003bc4:	4a17      	ldr	r2, [pc, #92]	@ (8003c24 <LoopForever+0xe>)
 8003bc6:	2300      	movs	r3, #0
 8003bc8:	e002      	b.n	8003bd0 <LoopCopyDataInit>

08003bca <CopyDataInit>:
 8003bca:	58d4      	ldr	r4, [r2, r3]
 8003bcc:	50c4      	str	r4, [r0, r3]
 8003bce:	3304      	adds	r3, #4

08003bd0 <LoopCopyDataInit>:
 8003bd0:	18c4      	adds	r4, r0, r3
 8003bd2:	428c      	cmp	r4, r1
 8003bd4:	d3f9      	bcc.n	8003bca <CopyDataInit>
 8003bd6:	4a14      	ldr	r2, [pc, #80]	@ (8003c28 <LoopForever+0x12>)
 8003bd8:	4c14      	ldr	r4, [pc, #80]	@ (8003c2c <LoopForever+0x16>)
 8003bda:	2300      	movs	r3, #0
 8003bdc:	e001      	b.n	8003be2 <LoopFillZerobss>

08003bde <FillZerobss>:
 8003bde:	6013      	str	r3, [r2, #0]
 8003be0:	3204      	adds	r2, #4

08003be2 <LoopFillZerobss>:
 8003be2:	42a2      	cmp	r2, r4
 8003be4:	d3fb      	bcc.n	8003bde <FillZerobss>
 8003be6:	4812      	ldr	r0, [pc, #72]	@ (8003c30 <LoopForever+0x1a>)
 8003be8:	6801      	ldr	r1, [r0, #0]
 8003bea:	f441 0170 	orr.w	r1, r1, #15728640	@ 0xf00000
 8003bee:	6001      	str	r1, [r0, #0]
 8003bf0:	f3bf 8f4f 	dsb	sy
 8003bf4:	f3bf 8f6f 	isb	sy
 8003bf8:	480e      	ldr	r0, [pc, #56]	@ (8003c34 <LoopForever+0x1e>)
 8003bfa:	490f      	ldr	r1, [pc, #60]	@ (8003c38 <LoopForever+0x22>)
 8003bfc:	4a0f      	ldr	r2, [pc, #60]	@ (8003c3c <LoopForever+0x26>)
 8003bfe:	4288      	cmp	r0, r1
 8003c00:	d005      	beq.n	8003c0e <SkipItcmCopy>

08003c02 <CopyItcm>:
 8003c02:	f852 4b04 	ldr.w	r4, [r2], #4
 8003c06:	f840 4b04 	str.w	r4, [r0], #4
 8003c0a:	4288      	cmp	r0, r1
 8003c0c:	d1f9      	bne.n	8003c02 <CopyItcm>

08003c0e <SkipItcmCopy>:
 8003c0e:	f001 f8df 	bl	8004dd0 <__libc_init_array>
 8003c12:	f7fd fbe5 	bl	80013e0 <main>

08003c16 <LoopForever>:
 8003c16:	e7fe      	b.n	8003c16 <LoopForever>
 8003c18:	20020000 	.word	0x20020000
 8003c1c:	20000000 	.word	0x20000000
 8003c20:	200001d8 	.word	0x200001d8
 8003c24:	0800892c 	.word	0x0800892c
 8003c28:	200001d8 	.word	0x200001d8
 8003c2c:	20000348 	.word	0x20000348
 8003c30:	e000ed88 	.word	0xe000ed88
 8003c34:	00000000 	.word	0x00000000
 8003c38:	000007e0 	.word	0x000007e0
 8003c3c:	08000298 	.word	0x08000298

08003c40 <ADC1_2_IRQHandler>:
 8003c40:	e7fe      	b.n	8003c40 <ADC1_2_IRQHandler>

08003c42 <__cvt>:
 8003c42:	b5f0      	push	{r4, r5, r6, r7, lr}
 8003c44:	ed2d 8b02 	vpush	{d8}
 8003c48:	eeb0 8b40 	vmov.f64	d8, d0
 8003c4c:	b085      	sub	sp, #20
 8003c4e:	4617      	mov	r7, r2
 8003c50:	9d0d      	ldr	r5, [sp, #52]	@ 0x34
 8003c52:	9e0c      	ldr	r6, [sp, #48]	@ 0x30
 8003c54:	ee18 2a90 	vmov	r2, s17
 8003c58:	f025 0520 	bic.w	r5, r5, #32
 8003c5c:	2a00      	cmp	r2, #0
 8003c5e:	bfb6      	itet	lt
 8003c60:	222d      	movlt	r2, #45	@ 0x2d
 8003c62:	2200      	movge	r2, #0
 8003c64:	eeb1 8b40 	vneglt.f64	d8, d0
 8003c68:	2d46      	cmp	r5, #70	@ 0x46
 8003c6a:	460c      	mov	r4, r1
 8003c6c:	701a      	strb	r2, [r3, #0]
 8003c6e:	d004      	beq.n	8003c7a <__cvt+0x38>
 8003c70:	2d45      	cmp	r5, #69	@ 0x45
 8003c72:	d100      	bne.n	8003c76 <__cvt+0x34>
 8003c74:	3401      	adds	r4, #1
 8003c76:	2102      	movs	r1, #2
 8003c78:	e000      	b.n	8003c7c <__cvt+0x3a>
 8003c7a:	2103      	movs	r1, #3
 8003c7c:	ab03      	add	r3, sp, #12
 8003c7e:	9301      	str	r3, [sp, #4]
 8003c80:	ab02      	add	r3, sp, #8
 8003c82:	9300      	str	r3, [sp, #0]
 8003c84:	4622      	mov	r2, r4
 8003c86:	4633      	mov	r3, r6
 8003c88:	eeb0 0b48 	vmov.f64	d0, d8
 8003c8c:	f001 f964 	bl	8004f58 <_dtoa_r>
 8003c90:	2d47      	cmp	r5, #71	@ 0x47
 8003c92:	d114      	bne.n	8003cbe <__cvt+0x7c>
 8003c94:	07fb      	lsls	r3, r7, #31
 8003c96:	d50a      	bpl.n	8003cae <__cvt+0x6c>
 8003c98:	1902      	adds	r2, r0, r4
 8003c9a:	eeb5 8b40 	vcmp.f64	d8, #0.0
 8003c9e:	eef1 fa10 	vmrs	APSR_nzcv, fpscr
 8003ca2:	bf08      	it	eq
 8003ca4:	9203      	streq	r2, [sp, #12]
 8003ca6:	2130      	movs	r1, #48	@ 0x30
 8003ca8:	9b03      	ldr	r3, [sp, #12]
 8003caa:	4293      	cmp	r3, r2
 8003cac:	d319      	bcc.n	8003ce2 <__cvt+0xa0>
 8003cae:	9b03      	ldr	r3, [sp, #12]
 8003cb0:	9a0e      	ldr	r2, [sp, #56]	@ 0x38
 8003cb2:	1a1b      	subs	r3, r3, r0
 8003cb4:	6013      	str	r3, [r2, #0]
 8003cb6:	b005      	add	sp, #20
 8003cb8:	ecbd 8b02 	vpop	{d8}
 8003cbc:	bdf0      	pop	{r4, r5, r6, r7, pc}
 8003cbe:	2d46      	cmp	r5, #70	@ 0x46
 8003cc0:	eb00 0204 	add.w	r2, r0, r4
 8003cc4:	d1e9      	bne.n	8003c9a <__cvt+0x58>
 8003cc6:	7803      	ldrb	r3, [r0, #0]
 8003cc8:	2b30      	cmp	r3, #48	@ 0x30
 8003cca:	d107      	bne.n	8003cdc <__cvt+0x9a>
 8003ccc:	eeb5 8b40 	vcmp.f64	d8, #0.0
 8003cd0:	eef1 fa10 	vmrs	APSR_nzcv, fpscr
 8003cd4:	bf1c      	itt	ne
 8003cd6:	f1c4 0401 	rsbne	r4, r4, #1
 8003cda:	6034      	strne	r4, [r6, #0]
 8003cdc:	6833      	ldr	r3, [r6, #0]
 8003cde:	441a      	add	r2, r3
 8003ce0:	e7db      	b.n	8003c9a <__cvt+0x58>
 8003ce2:	1c5c      	adds	r4, r3, #1
 8003ce4:	9403      	str	r4, [sp, #12]
 8003ce6:	7019      	strb	r1, [r3, #0]
 8003ce8:	e7de      	b.n	8003ca8 <__cvt+0x66>

08003cea <__exponent>:
 8003cea:	b5f7      	push	{r0, r1, r2, r4, r5, r6, r7, lr}
 8003cec:	2900      	cmp	r1, #0
 8003cee:	bfba      	itte	lt
 8003cf0:	4249      	neglt	r1, r1
 8003cf2:	232d      	movlt	r3, #45	@ 0x2d
 8003cf4:	232b      	movge	r3, #43	@ 0x2b
 8003cf6:	2909      	cmp	r1, #9
 8003cf8:	7002      	strb	r2, [r0, #0]
 8003cfa:	7043      	strb	r3, [r0, #1]
 8003cfc:	dd29      	ble.n	8003d52 <__exponent+0x68>
 8003cfe:	f10d 0407 	add.w	r4, sp, #7
 8003d02:	4625      	mov	r5, r4
 8003d04:	270a      	movs	r7, #10
 8003d06:	4622      	mov	r2, r4
 8003d08:	fbb1 f6f7 	udiv	r6, r1, r7
 8003d0c:	fb07 1316 	mls	r3, r7, r6, r1
 8003d10:	3330      	adds	r3, #48	@ 0x30
 8003d12:	f802 3c01 	strb.w	r3, [r2, #-1]
 8003d16:	460b      	mov	r3, r1
 8003d18:	2b63      	cmp	r3, #99	@ 0x63
 8003d1a:	f104 34ff 	add.w	r4, r4, #4294967295
 8003d1e:	4631      	mov	r1, r6
 8003d20:	dcf1      	bgt.n	8003d06 <__exponent+0x1c>
 8003d22:	3130      	adds	r1, #48	@ 0x30
 8003d24:	1e93      	subs	r3, r2, #2
 8003d26:	f804 1c01 	strb.w	r1, [r4, #-1]
 8003d2a:	1c41      	adds	r1, r0, #1
 8003d2c:	461c      	mov	r4, r3
 8003d2e:	42ab      	cmp	r3, r5
 8003d30:	d30a      	bcc.n	8003d48 <__exponent+0x5e>
 8003d32:	f10d 0309 	add.w	r3, sp, #9
 8003d36:	1a9b      	subs	r3, r3, r2
 8003d38:	42a5      	cmp	r5, r4
 8003d3a:	bf38      	it	cc
 8003d3c:	2300      	movcc	r3, #0
 8003d3e:	1c82      	adds	r2, r0, #2
 8003d40:	4413      	add	r3, r2
 8003d42:	1a18      	subs	r0, r3, r0
 8003d44:	b003      	add	sp, #12
 8003d46:	bdf0      	pop	{r4, r5, r6, r7, pc}
 8003d48:	f813 6b01 	ldrb.w	r6, [r3], #1
 8003d4c:	f801 6f01 	strb.w	r6, [r1, #1]!
 8003d50:	e7ed      	b.n	8003d2e <__exponent+0x44>
 8003d52:	2330      	movs	r3, #48	@ 0x30
 8003d54:	3130      	adds	r1, #48	@ 0x30
 8003d56:	7083      	strb	r3, [r0, #2]
 8003d58:	70c1      	strb	r1, [r0, #3]
 8003d5a:	1d03      	adds	r3, r0, #4
 8003d5c:	e7f1      	b.n	8003d42 <__exponent+0x58>
	...

08003d60 <_printf_float>:
 8003d60:	e92d 4ff0 	stmdb	sp!, {r4, r5, r6, r7, r8, r9, sl, fp, lr}
 8003d64:	b08d      	sub	sp, #52	@ 0x34
 8003d66:	460c      	mov	r4, r1
 8003d68:	f8dd 8058 	ldr.w	r8, [sp, #88]	@ 0x58
 8003d6c:	4616      	mov	r6, r2
 8003d6e:	461f      	mov	r7, r3
 8003d70:	4605      	mov	r5, r0
 8003d72:	f000 ffdd 	bl	8004d30 <_localeconv_r>
 8003d76:	f8d0 b000 	ldr.w	fp, [r0]
 8003d7a:	4658      	mov	r0, fp
 8003d7c:	f7fc fef0 	bl	8000b60 <strlen>
 8003d80:	2300      	movs	r3, #0
 8003d82:	930a      	str	r3, [sp, #40]	@ 0x28
 8003d84:	f8d8 3000 	ldr.w	r3, [r8]
 8003d88:	f894 9018 	ldrb.w	r9, [r4, #24]
 8003d8c:	6822      	ldr	r2, [r4, #0]
 8003d8e:	9005      	str	r0, [sp, #20]
 8003d90:	3307      	adds	r3, #7
 8003d92:	f023 0307 	bic.w	r3, r3, #7
 8003d96:	ecb3 0b02 	vldmia	r3!, {d0}
 8003d9a:	ed9f 7b99 	vldr	d7, [pc, #612]	@ 8004000 <_printf_float+0x2a0>
 8003d9e:	eeb0 6bc0 	vabs.f64	d6, d0
 8003da2:	eeb4 6b47 	vcmp.f64	d6, d7
 8003da6:	eef1 fa10 	vmrs	APSR_nzcv, fpscr
 8003daa:	f8c8 3000 	str.w	r3, [r8]
 8003dae:	ed84 0b12 	vstr	d0, [r4, #72]	@ 0x48
 8003db2:	dd24      	ble.n	8003dfe <_printf_float+0x9e>
 8003db4:	eeb5 0bc0 	vcmpe.f64	d0, #0.0
 8003db8:	eef1 fa10 	vmrs	APSR_nzcv, fpscr
 8003dbc:	d502      	bpl.n	8003dc4 <_printf_float+0x64>
 8003dbe:	232d      	movs	r3, #45	@ 0x2d
 8003dc0:	f884 3043 	strb.w	r3, [r4, #67]	@ 0x43
 8003dc4:	4990      	ldr	r1, [pc, #576]	@ (8004008 <_printf_float+0x2a8>)
 8003dc6:	4b91      	ldr	r3, [pc, #580]	@ (800400c <_printf_float+0x2ac>)
 8003dc8:	f1b9 0f47 	cmp.w	r9, #71	@ 0x47
 8003dcc:	bf8c      	ite	hi
 8003dce:	4688      	movhi	r8, r1
 8003dd0:	4698      	movls	r8, r3
 8003dd2:	f022 0204 	bic.w	r2, r2, #4
 8003dd6:	2303      	movs	r3, #3
 8003dd8:	6123      	str	r3, [r4, #16]
 8003dda:	6022      	str	r2, [r4, #0]
 8003ddc:	f04f 0a00 	mov.w	sl, #0
 8003de0:	9700      	str	r7, [sp, #0]
 8003de2:	4633      	mov	r3, r6
 8003de4:	aa0b      	add	r2, sp, #44	@ 0x2c
 8003de6:	4621      	mov	r1, r4
 8003de8:	4628      	mov	r0, r5
 8003dea:	f000 f9d3 	bl	8004194 <_printf_common>
 8003dee:	3001      	adds	r0, #1
 8003df0:	f040 8089 	bne.w	8003f06 <_printf_float+0x1a6>
 8003df4:	f04f 30ff 	mov.w	r0, #4294967295
 8003df8:	b00d      	add	sp, #52	@ 0x34
 8003dfa:	e8bd 8ff0 	ldmia.w	sp!, {r4, r5, r6, r7, r8, r9, sl, fp, pc}
 8003dfe:	eeb4 0b40 	vcmp.f64	d0, d0
 8003e02:	eef1 fa10 	vmrs	APSR_nzcv, fpscr
 8003e06:	d709      	bvc.n	8003e1c <_printf_float+0xbc>
 8003e08:	ee10 3a90 	vmov	r3, s1
 8003e0c:	2b00      	cmp	r3, #0
 8003e0e:	bfbc      	itt	lt
 8003e10:	232d      	movlt	r3, #45	@ 0x2d
 8003e12:	f884 3043 	strblt.w	r3, [r4, #67]	@ 0x43
 8003e16:	497e      	ldr	r1, [pc, #504]	@ (8004010 <_printf_float+0x2b0>)
 8003e18:	4b7e      	ldr	r3, [pc, #504]	@ (8004014 <_printf_float+0x2b4>)
 8003e1a:	e7d5      	b.n	8003dc8 <_printf_float+0x68>
 8003e1c:	6863      	ldr	r3, [r4, #4]
 8003e1e:	1c59      	adds	r1, r3, #1
 8003e20:	f009 0adf 	and.w	sl, r9, #223	@ 0xdf
 8003e24:	d139      	bne.n	8003e9a <_printf_float+0x13a>
 8003e26:	2306      	movs	r3, #6
 8003e28:	6063      	str	r3, [r4, #4]
 8003e2a:	f442 6280 	orr.w	r2, r2, #1024	@ 0x400
 8003e2e:	2300      	movs	r3, #0
 8003e30:	6022      	str	r2, [r4, #0]
 8003e32:	9303      	str	r3, [sp, #12]
 8003e34:	ab0a      	add	r3, sp, #40	@ 0x28
 8003e36:	e9cd 9301 	strd	r9, r3, [sp, #4]
 8003e3a:	ab09      	add	r3, sp, #36	@ 0x24
 8003e3c:	9300      	str	r3, [sp, #0]
 8003e3e:	6861      	ldr	r1, [r4, #4]
 8003e40:	f10d 0323 	add.w	r3, sp, #35	@ 0x23
 8003e44:	4628      	mov	r0, r5
 8003e46:	f7ff fefc 	bl	8003c42 <__cvt>
 8003e4a:	f1ba 0f47 	cmp.w	sl, #71	@ 0x47
 8003e4e:	9909      	ldr	r1, [sp, #36]	@ 0x24
 8003e50:	4680      	mov	r8, r0
 8003e52:	d129      	bne.n	8003ea8 <_printf_float+0x148>
 8003e54:	1cc8      	adds	r0, r1, #3
 8003e56:	db02      	blt.n	8003e5e <_printf_float+0xfe>
 8003e58:	6863      	ldr	r3, [r4, #4]
 8003e5a:	428b      	cmp	r3, r1
 8003e5c:	da41      	bge.n	8003ee2 <_printf_float+0x182>
 8003e5e:	f1a9 0902 	sub.w	r9, r9, #2
 8003e62:	fa5f f989 	uxtb.w	r9, r9
 8003e66:	3901      	subs	r1, #1
 8003e68:	464a      	mov	r2, r9
 8003e6a:	f104 0050 	add.w	r0, r4, #80	@ 0x50
 8003e6e:	9109      	str	r1, [sp, #36]	@ 0x24
 8003e70:	f7ff ff3b 	bl	8003cea <__exponent>
 8003e74:	9a0a      	ldr	r2, [sp, #40]	@ 0x28
 8003e76:	1813      	adds	r3, r2, r0
 8003e78:	2a01      	cmp	r2, #1
 8003e7a:	4682      	mov	sl, r0
 8003e7c:	6123      	str	r3, [r4, #16]
 8003e7e:	dc02      	bgt.n	8003e86 <_printf_float+0x126>
 8003e80:	6822      	ldr	r2, [r4, #0]
 8003e82:	07d2      	lsls	r2, r2, #31
 8003e84:	d501      	bpl.n	8003e8a <_printf_float+0x12a>
 8003e86:	3301      	adds	r3, #1
 8003e88:	6123      	str	r3, [r4, #16]
 8003e8a:	f89d 3023 	ldrb.w	r3, [sp, #35]	@ 0x23
 8003e8e:	2b00      	cmp	r3, #0
 8003e90:	d0a6      	beq.n	8003de0 <_printf_float+0x80>
 8003e92:	232d      	movs	r3, #45	@ 0x2d
 8003e94:	f884 3043 	strb.w	r3, [r4, #67]	@ 0x43
 8003e98:	e7a2      	b.n	8003de0 <_printf_float+0x80>
 8003e9a:	f1ba 0f47 	cmp.w	sl, #71	@ 0x47
 8003e9e:	d1c4      	bne.n	8003e2a <_printf_float+0xca>
 8003ea0:	2b00      	cmp	r3, #0
 8003ea2:	d1c2      	bne.n	8003e2a <_printf_float+0xca>
 8003ea4:	2301      	movs	r3, #1
 8003ea6:	e7bf      	b.n	8003e28 <_printf_float+0xc8>
 8003ea8:	f1b9 0f65 	cmp.w	r9, #101	@ 0x65
 8003eac:	d9db      	bls.n	8003e66 <_printf_float+0x106>
 8003eae:	f1b9 0f66 	cmp.w	r9, #102	@ 0x66
 8003eb2:	d118      	bne.n	8003ee6 <_printf_float+0x186>
 8003eb4:	2900      	cmp	r1, #0
 8003eb6:	6863      	ldr	r3, [r4, #4]
 8003eb8:	dd0b      	ble.n	8003ed2 <_printf_float+0x172>
 8003eba:	6121      	str	r1, [r4, #16]
 8003ebc:	b913      	cbnz	r3, 8003ec4 <_printf_float+0x164>
 8003ebe:	6822      	ldr	r2, [r4, #0]
 8003ec0:	07d0      	lsls	r0, r2, #31
 8003ec2:	d502      	bpl.n	8003eca <_printf_float+0x16a>
 8003ec4:	3301      	adds	r3, #1
 8003ec6:	440b      	add	r3, r1
 8003ec8:	6123      	str	r3, [r4, #16]
 8003eca:	65a1      	str	r1, [r4, #88]	@ 0x58
 8003ecc:	f04f 0a00 	mov.w	sl, #0
 8003ed0:	e7db      	b.n	8003e8a <_printf_float+0x12a>
 8003ed2:	b913      	cbnz	r3, 8003eda <_printf_float+0x17a>
 8003ed4:	6822      	ldr	r2, [r4, #0]
 8003ed6:	07d2      	lsls	r2, r2, #31
 8003ed8:	d501      	bpl.n	8003ede <_printf_float+0x17e>
 8003eda:	3302      	adds	r3, #2
 8003edc:	e7f4      	b.n	8003ec8 <_printf_float+0x168>
 8003ede:	2301      	movs	r3, #1
 8003ee0:	e7f2      	b.n	8003ec8 <_printf_float+0x168>
 8003ee2:	f04f 0967 	mov.w	r9, #103	@ 0x67
 8003ee6:	9b0a      	ldr	r3, [sp, #40]	@ 0x28
 8003ee8:	428b      	cmp	r3, r1
 8003eea:	dc05      	bgt.n	8003ef8 <_printf_float+0x198>
 8003eec:	6823      	ldr	r3, [r4, #0]
 8003eee:	6121      	str	r1, [r4, #16]
 8003ef0:	07d8      	lsls	r0, r3, #31
 8003ef2:	d5ea      	bpl.n	8003eca <_printf_float+0x16a>
 8003ef4:	1c4b      	adds	r3, r1, #1
 8003ef6:	e7e7      	b.n	8003ec8 <_printf_float+0x168>
 8003ef8:	2900      	cmp	r1, #0
 8003efa:	bfd4      	ite	le
 8003efc:	f1c1 0202 	rsble	r2, r1, #2
 8003f00:	2201      	movgt	r2, #1
 8003f02:	4413      	add	r3, r2
 8003f04:	e7e0      	b.n	8003ec8 <_printf_float+0x168>
 8003f06:	6823      	ldr	r3, [r4, #0]
 8003f08:	055a      	lsls	r2, r3, #21
 8003f0a:	d407      	bmi.n	8003f1c <_printf_float+0x1bc>
 8003f0c:	6923      	ldr	r3, [r4, #16]
 8003f0e:	4642      	mov	r2, r8
 8003f10:	4631      	mov	r1, r6
 8003f12:	4628      	mov	r0, r5
 8003f14:	47b8      	blx	r7
 8003f16:	3001      	adds	r0, #1
 8003f18:	d12a      	bne.n	8003f70 <_printf_float+0x210>
 8003f1a:	e76b      	b.n	8003df4 <_printf_float+0x94>
 8003f1c:	f1b9 0f65 	cmp.w	r9, #101	@ 0x65
 8003f20:	f240 80e2 	bls.w	80040e8 <_printf_float+0x388>
 8003f24:	ed94 7b12 	vldr	d7, [r4, #72]	@ 0x48
 8003f28:	eeb5 7b40 	vcmp.f64	d7, #0.0
 8003f2c:	eef1 fa10 	vmrs	APSR_nzcv, fpscr
 8003f30:	d133      	bne.n	8003f9a <_printf_float+0x23a>
 8003f32:	4a39      	ldr	r2, [pc, #228]	@ (8004018 <_printf_float+0x2b8>)
 8003f34:	2301      	movs	r3, #1
 8003f36:	4631      	mov	r1, r6
 8003f38:	4628      	mov	r0, r5
 8003f3a:	47b8      	blx	r7
 8003f3c:	3001      	adds	r0, #1
 8003f3e:	f43f af59 	beq.w	8003df4 <_printf_float+0x94>
 8003f42:	e9dd 3809 	ldrd	r3, r8, [sp, #36]	@ 0x24
 8003f46:	4543      	cmp	r3, r8
 8003f48:	db02      	blt.n	8003f50 <_printf_float+0x1f0>
 8003f4a:	6823      	ldr	r3, [r4, #0]
 8003f4c:	07d8      	lsls	r0, r3, #31
 8003f4e:	d50f      	bpl.n	8003f70 <_printf_float+0x210>
 8003f50:	9b05      	ldr	r3, [sp, #20]
 8003f52:	465a      	mov	r2, fp
 8003f54:	4631      	mov	r1, r6
 8003f56:	4628      	mov	r0, r5
 8003f58:	47b8      	blx	r7
 8003f5a:	3001      	adds	r0, #1
 8003f5c:	f43f af4a 	beq.w	8003df4 <_printf_float+0x94>
 8003f60:	f04f 0900 	mov.w	r9, #0
 8003f64:	f108 38ff 	add.w	r8, r8, #4294967295
 8003f68:	f104 0a1a 	add.w	sl, r4, #26
 8003f6c:	45c8      	cmp	r8, r9
 8003f6e:	dc09      	bgt.n	8003f84 <_printf_float+0x224>
 8003f70:	6823      	ldr	r3, [r4, #0]
 8003f72:	079b      	lsls	r3, r3, #30
 8003f74:	f100 8109 	bmi.w	800418a <_printf_float+0x42a>
 8003f78:	68e0      	ldr	r0, [r4, #12]
 8003f7a:	9b0b      	ldr	r3, [sp, #44]	@ 0x2c
 8003f7c:	4298      	cmp	r0, r3
 8003f7e:	bfb8      	it	lt
 8003f80:	4618      	movlt	r0, r3
 8003f82:	e739      	b.n	8003df8 <_printf_float+0x98>
 8003f84:	2301      	movs	r3, #1
 8003f86:	4652      	mov	r2, sl
 8003f88:	4631      	mov	r1, r6
 8003f8a:	4628      	mov	r0, r5
 8003f8c:	47b8      	blx	r7
 8003f8e:	3001      	adds	r0, #1
 8003f90:	f43f af30 	beq.w	8003df4 <_printf_float+0x94>
 8003f94:	f109 0901 	add.w	r9, r9, #1
 8003f98:	e7e8      	b.n	8003f6c <_printf_float+0x20c>
 8003f9a:	9b09      	ldr	r3, [sp, #36]	@ 0x24
 8003f9c:	2b00      	cmp	r3, #0
 8003f9e:	dc3d      	bgt.n	800401c <_printf_float+0x2bc>
 8003fa0:	4a1d      	ldr	r2, [pc, #116]	@ (8004018 <_printf_float+0x2b8>)
 8003fa2:	2301      	movs	r3, #1
 8003fa4:	4631      	mov	r1, r6
 8003fa6:	4628      	mov	r0, r5
 8003fa8:	47b8      	blx	r7
 8003faa:	3001      	adds	r0, #1
 8003fac:	f43f af22 	beq.w	8003df4 <_printf_float+0x94>
 8003fb0:	e9dd 3909 	ldrd	r3, r9, [sp, #36]	@ 0x24
 8003fb4:	ea59 0303 	orrs.w	r3, r9, r3
 8003fb8:	d102      	bne.n	8003fc0 <_printf_float+0x260>
 8003fba:	6823      	ldr	r3, [r4, #0]
 8003fbc:	07d9      	lsls	r1, r3, #31
 8003fbe:	d5d7      	bpl.n	8003f70 <_printf_float+0x210>
 8003fc0:	9b05      	ldr	r3, [sp, #20]
 8003fc2:	465a      	mov	r2, fp
 8003fc4:	4631      	mov	r1, r6
 8003fc6:	4628      	mov	r0, r5
 8003fc8:	47b8      	blx	r7
 8003fca:	3001      	adds	r0, #1
 8003fcc:	f43f af12 	beq.w	8003df4 <_printf_float+0x94>
 8003fd0:	f04f 0a00 	mov.w	sl, #0
 8003fd4:	f104 0b1a 	add.w	fp, r4, #26
 8003fd8:	9b09      	ldr	r3, [sp, #36]	@ 0x24
 8003fda:	425b      	negs	r3, r3
 8003fdc:	4553      	cmp	r3, sl
 8003fde:	dc01      	bgt.n	8003fe4 <_printf_float+0x284>
 8003fe0:	464b      	mov	r3, r9
 8003fe2:	e794      	b.n	8003f0e <_printf_float+0x1ae>
 8003fe4:	2301      	movs	r3, #1
 8003fe6:	465a      	mov	r2, fp
 8003fe8:	4631      	mov	r1, r6
 8003fea:	4628      	mov	r0, r5
 8003fec:	47b8      	blx	r7
 8003fee:	3001      	adds	r0, #1
 8003ff0:	f43f af00 	beq.w	8003df4 <_printf_float+0x94>
 8003ff4:	f10a 0a01 	add.w	sl, sl, #1
 8003ff8:	e7ee      	b.n	8003fd8 <_printf_float+0x278>
 8003ffa:	bf00      	nop
 8003ffc:	f3af 8000 	nop.w
 8004000:	ffffffff 	.word	0xffffffff
 8004004:	7fefffff 	.word	0x7fefffff
 8004008:	080084f8 	.word	0x080084f8
 800400c:	080084f4 	.word	0x080084f4
 8004010:	08008500 	.word	0x08008500
 8004014:	080084fc 	.word	0x080084fc
 8004018:	08008504 	.word	0x08008504
 800401c:	6da3      	ldr	r3, [r4, #88]	@ 0x58
 800401e:	f8dd a028 	ldr.w	sl, [sp, #40]	@ 0x28
 8004022:	4553      	cmp	r3, sl
 8004024:	bfa8      	it	ge
 8004026:	4653      	movge	r3, sl
 8004028:	2b00      	cmp	r3, #0
 800402a:	4699      	mov	r9, r3
 800402c:	dc37      	bgt.n	800409e <_printf_float+0x33e>
 800402e:	2300      	movs	r3, #0
 8004030:	9307      	str	r3, [sp, #28]
 8004032:	ea29 79e9 	bic.w	r9, r9, r9, asr #31
 8004036:	f104 021a 	add.w	r2, r4, #26
 800403a:	6da3      	ldr	r3, [r4, #88]	@ 0x58
 800403c:	9907      	ldr	r1, [sp, #28]
 800403e:	9306      	str	r3, [sp, #24]
 8004040:	eba3 0309 	sub.w	r3, r3, r9
 8004044:	428b      	cmp	r3, r1
 8004046:	dc31      	bgt.n	80040ac <_printf_float+0x34c>
 8004048:	9b09      	ldr	r3, [sp, #36]	@ 0x24
 800404a:	459a      	cmp	sl, r3
 800404c:	dc3b      	bgt.n	80040c6 <_printf_float+0x366>
 800404e:	6823      	ldr	r3, [r4, #0]
 8004050:	07da      	lsls	r2, r3, #31
 8004052:	d438      	bmi.n	80040c6 <_printf_float+0x366>
 8004054:	9b09      	ldr	r3, [sp, #36]	@ 0x24
 8004056:	ebaa 0903 	sub.w	r9, sl, r3
 800405a:	9b06      	ldr	r3, [sp, #24]
 800405c:	ebaa 0303 	sub.w	r3, sl, r3
 8004060:	4599      	cmp	r9, r3
 8004062:	bfa8      	it	ge
 8004064:	4699      	movge	r9, r3
 8004066:	f1b9 0f00 	cmp.w	r9, #0
 800406a:	dc34      	bgt.n	80040d6 <_printf_float+0x376>
 800406c:	f04f 0800 	mov.w	r8, #0
 8004070:	ea29 79e9 	bic.w	r9, r9, r9, asr #31
 8004074:	f104 0b1a 	add.w	fp, r4, #26
 8004078:	9b09      	ldr	r3, [sp, #36]	@ 0x24
 800407a:	ebaa 0303 	sub.w	r3, sl, r3
 800407e:	eba3 0309 	sub.w	r3, r3, r9
 8004082:	4543      	cmp	r3, r8
 8004084:	f77f af74 	ble.w	8003f70 <_printf_float+0x210>
 8004088:	2301      	movs	r3, #1
 800408a:	465a      	mov	r2, fp
 800408c:	4631      	mov	r1, r6
 800408e:	4628      	mov	r0, r5
 8004090:	47b8      	blx	r7
 8004092:	3001      	adds	r0, #1
 8004094:	f43f aeae 	beq.w	8003df4 <_printf_float+0x94>
 8004098:	f108 0801 	add.w	r8, r8, #1
 800409c:	e7ec      	b.n	8004078 <_printf_float+0x318>
 800409e:	4642      	mov	r2, r8
 80040a0:	4631      	mov	r1, r6
 80040a2:	4628      	mov	r0, r5
 80040a4:	47b8      	blx	r7
 80040a6:	3001      	adds	r0, #1
 80040a8:	d1c1      	bne.n	800402e <_printf_float+0x2ce>
 80040aa:	e6a3      	b.n	8003df4 <_printf_float+0x94>
 80040ac:	2301      	movs	r3, #1
 80040ae:	4631      	mov	r1, r6
 80040b0:	4628      	mov	r0, r5
 80040b2:	9206      	str	r2, [sp, #24]
 80040b4:	47b8      	blx	r7
 80040b6:	3001      	adds	r0, #1
 80040b8:	f43f ae9c 	beq.w	8003df4 <_printf_float+0x94>
 80040bc:	9b07      	ldr	r3, [sp, #28]
 80040be:	9a06      	ldr	r2, [sp, #24]
 80040c0:	3301      	adds	r3, #1
 80040c2:	9307      	str	r3, [sp, #28]
 80040c4:	e7b9      	b.n	800403a <_printf_float+0x2da>
 80040c6:	9b05      	ldr	r3, [sp, #20]
 80040c8:	465a      	mov	r2, fp
 80040ca:	4631      	mov	r1, r6
 80040cc:	4628      	mov	r0, r5
 80040ce:	47b8      	blx	r7
 80040d0:	3001      	adds	r0, #1
 80040d2:	d1bf      	bne.n	8004054 <_printf_float+0x2f4>
 80040d4:	e68e      	b.n	8003df4 <_printf_float+0x94>
 80040d6:	9a06      	ldr	r2, [sp, #24]
 80040d8:	464b      	mov	r3, r9
 80040da:	4442      	add	r2, r8
 80040dc:	4631      	mov	r1, r6
 80040de:	4628      	mov	r0, r5
 80040e0:	47b8      	blx	r7
 80040e2:	3001      	adds	r0, #1
 80040e4:	d1c2      	bne.n	800406c <_printf_float+0x30c>
 80040e6:	e685      	b.n	8003df4 <_printf_float+0x94>
 80040e8:	f8dd 9028 	ldr.w	r9, [sp, #40]	@ 0x28
 80040ec:	f1b9 0f01 	cmp.w	r9, #1
 80040f0:	dc01      	bgt.n	80040f6 <_printf_float+0x396>
 80040f2:	07db      	lsls	r3, r3, #31
 80040f4:	d536      	bpl.n	8004164 <_printf_float+0x404>
 80040f6:	2301      	movs	r3, #1
 80040f8:	4642      	mov	r2, r8
 80040fa:	4631      	mov	r1, r6
 80040fc:	4628      	mov	r0, r5
 80040fe:	47b8      	blx	r7
 8004100:	3001      	adds	r0, #1
 8004102:	f43f ae77 	beq.w	8003df4 <_printf_float+0x94>
 8004106:	9b05      	ldr	r3, [sp, #20]
 8004108:	465a      	mov	r2, fp
 800410a:	4631      	mov	r1, r6
 800410c:	4628      	mov	r0, r5
 800410e:	47b8      	blx	r7
 8004110:	3001      	adds	r0, #1
 8004112:	f43f ae6f 	beq.w	8003df4 <_printf_float+0x94>
 8004116:	ed94 7b12 	vldr	d7, [r4, #72]	@ 0x48
 800411a:	eeb5 7b40 	vcmp.f64	d7, #0.0
 800411e:	eef1 fa10 	vmrs	APSR_nzcv, fpscr
 8004122:	f109 39ff 	add.w	r9, r9, #4294967295
 8004126:	d018      	beq.n	800415a <_printf_float+0x3fa>
 8004128:	464b      	mov	r3, r9
 800412a:	f108 0201 	add.w	r2, r8, #1
 800412e:	4631      	mov	r1, r6
 8004130:	4628      	mov	r0, r5
 8004132:	47b8      	blx	r7
 8004134:	3001      	adds	r0, #1
 8004136:	d10c      	bne.n	8004152 <_printf_float+0x3f2>
 8004138:	e65c      	b.n	8003df4 <_printf_float+0x94>
 800413a:	2301      	movs	r3, #1
 800413c:	465a      	mov	r2, fp
 800413e:	4631      	mov	r1, r6
 8004140:	4628      	mov	r0, r5
 8004142:	47b8      	blx	r7
 8004144:	3001      	adds	r0, #1
 8004146:	f43f ae55 	beq.w	8003df4 <_printf_float+0x94>
 800414a:	f108 0801 	add.w	r8, r8, #1
 800414e:	45c8      	cmp	r8, r9
 8004150:	dbf3      	blt.n	800413a <_printf_float+0x3da>
 8004152:	4653      	mov	r3, sl
 8004154:	f104 0250 	add.w	r2, r4, #80	@ 0x50
 8004158:	e6da      	b.n	8003f10 <_printf_float+0x1b0>
 800415a:	f04f 0800 	mov.w	r8, #0
 800415e:	f104 0b1a 	add.w	fp, r4, #26
 8004162:	e7f4      	b.n	800414e <_printf_float+0x3ee>
 8004164:	2301      	movs	r3, #1
 8004166:	4642      	mov	r2, r8
 8004168:	e7e1      	b.n	800412e <_printf_float+0x3ce>
 800416a:	2301      	movs	r3, #1
 800416c:	464a      	mov	r2, r9
 800416e:	4631      	mov	r1, r6
 8004170:	4628      	mov	r0, r5
 8004172:	47b8      	blx	r7
 8004174:	3001      	adds	r0, #1
 8004176:	f43f ae3d 	beq.w	8003df4 <_printf_float+0x94>
 800417a:	f108 0801 	add.w	r8, r8, #1
 800417e:	68e3      	ldr	r3, [r4, #12]
 8004180:	990b      	ldr	r1, [sp, #44]	@ 0x2c
 8004182:	1a5b      	subs	r3, r3, r1
 8004184:	4543      	cmp	r3, r8
 8004186:	dcf0      	bgt.n	800416a <_printf_float+0x40a>
 8004188:	e6f6      	b.n	8003f78 <_printf_float+0x218>
 800418a:	f04f 0800 	mov.w	r8, #0
 800418e:	f104 0919 	add.w	r9, r4, #25
 8004192:	e7f4      	b.n	800417e <_printf_float+0x41e>

08004194 <_printf_common>:
 8004194:	e92d 47f0 	stmdb	sp!, {r4, r5, r6, r7, r8, r9, sl, lr}
 8004198:	4616      	mov	r6, r2
 800419a:	4698      	mov	r8, r3
 800419c:	688a      	ldr	r2, [r1, #8]
 800419e:	690b      	ldr	r3, [r1, #16]
 80041a0:	f8dd 9020 	ldr.w	r9, [sp, #32]
 80041a4:	4293      	cmp	r3, r2
 80041a6:	bfb8      	it	lt
 80041a8:	4613      	movlt	r3, r2
 80041aa:	6033      	str	r3, [r6, #0]
 80041ac:	f891 2043 	ldrb.w	r2, [r1, #67]	@ 0x43
 80041b0:	4607      	mov	r7, r0
 80041b2:	460c      	mov	r4, r1
 80041b4:	b10a      	cbz	r2, 80041ba <_printf_common+0x26>
 80041b6:	3301      	adds	r3, #1
 80041b8:	6033      	str	r3, [r6, #0]
 80041ba:	6823      	ldr	r3, [r4, #0]
 80041bc:	0699      	lsls	r1, r3, #26
 80041be:	bf42      	ittt	mi
 80041c0:	6833      	ldrmi	r3, [r6, #0]
 80041c2:	3302      	addmi	r3, #2
 80041c4:	6033      	strmi	r3, [r6, #0]
 80041c6:	6825      	ldr	r5, [r4, #0]
 80041c8:	f015 0506 	ands.w	r5, r5, #6
 80041cc:	d106      	bne.n	80041dc <_printf_common+0x48>
 80041ce:	f104 0a19 	add.w	sl, r4, #25
 80041d2:	68e3      	ldr	r3, [r4, #12]
 80041d4:	6832      	ldr	r2, [r6, #0]
 80041d6:	1a9b      	subs	r3, r3, r2
 80041d8:	42ab      	cmp	r3, r5
 80041da:	dc26      	bgt.n	800422a <_printf_common+0x96>
 80041dc:	f894 3043 	ldrb.w	r3, [r4, #67]	@ 0x43
 80041e0:	6822      	ldr	r2, [r4, #0]
 80041e2:	3b00      	subs	r3, #0
 80041e4:	bf18      	it	ne
 80041e6:	2301      	movne	r3, #1
 80041e8:	0692      	lsls	r2, r2, #26
 80041ea:	d42b      	bmi.n	8004244 <_printf_common+0xb0>
 80041ec:	f104 0243 	add.w	r2, r4, #67	@ 0x43
 80041f0:	4641      	mov	r1, r8
 80041f2:	4638      	mov	r0, r7
 80041f4:	47c8      	blx	r9
 80041f6:	3001      	adds	r0, #1
 80041f8:	d01e      	beq.n	8004238 <_printf_common+0xa4>
 80041fa:	6823      	ldr	r3, [r4, #0]
 80041fc:	6922      	ldr	r2, [r4, #16]
 80041fe:	f003 0306 	and.w	r3, r3, #6
 8004202:	2b04      	cmp	r3, #4
 8004204:	bf02      	ittt	eq
 8004206:	68e5      	ldreq	r5, [r4, #12]
 8004208:	6833      	ldreq	r3, [r6, #0]
 800420a:	1aed      	subeq	r5, r5, r3
 800420c:	68a3      	ldr	r3, [r4, #8]
 800420e:	bf0c      	ite	eq
 8004210:	ea25 75e5 	biceq.w	r5, r5, r5, asr #31
 8004214:	2500      	movne	r5, #0
 8004216:	4293      	cmp	r3, r2
 8004218:	bfc4      	itt	gt
 800421a:	1a9b      	subgt	r3, r3, r2
 800421c:	18ed      	addgt	r5, r5, r3
 800421e:	2600      	movs	r6, #0
 8004220:	341a      	adds	r4, #26
 8004222:	42b5      	cmp	r5, r6
 8004224:	d11a      	bne.n	800425c <_printf_common+0xc8>
 8004226:	2000      	movs	r0, #0
 8004228:	e008      	b.n	800423c <_printf_common+0xa8>
 800422a:	2301      	movs	r3, #1
 800422c:	4652      	mov	r2, sl
 800422e:	4641      	mov	r1, r8
 8004230:	4638      	mov	r0, r7
 8004232:	47c8      	blx	r9
 8004234:	3001      	adds	r0, #1
 8004236:	d103      	bne.n	8004240 <_printf_common+0xac>
 8004238:	f04f 30ff 	mov.w	r0, #4294967295
 800423c:	e8bd 87f0 	ldmia.w	sp!, {r4, r5, r6, r7, r8, r9, sl, pc}
 8004240:	3501      	adds	r5, #1
 8004242:	e7c6      	b.n	80041d2 <_printf_common+0x3e>
 8004244:	18e1      	adds	r1, r4, r3
 8004246:	1c5a      	adds	r2, r3, #1
 8004248:	2030      	movs	r0, #48	@ 0x30
 800424a:	f881 0043 	strb.w	r0, [r1, #67]	@ 0x43
 800424e:	4422      	add	r2, r4
 8004250:	f894 1045 	ldrb.w	r1, [r4, #69]	@ 0x45
 8004254:	f882 1043 	strb.w	r1, [r2, #67]	@ 0x43
 8004258:	3302      	adds	r3, #2
 800425a:	e7c7      	b.n	80041ec <_printf_common+0x58>
 800425c:	2301      	movs	r3, #1
 800425e:	4622      	mov	r2, r4
 8004260:	4641      	mov	r1, r8
 8004262:	4638      	mov	r0, r7
 8004264:	47c8      	blx	r9
 8004266:	3001      	adds	r0, #1
 8004268:	d0e6      	beq.n	8004238 <_printf_common+0xa4>
 800426a:	3601      	adds	r6, #1
 800426c:	e7d9      	b.n	8004222 <_printf_common+0x8e>
	...

08004270 <_printf_i>:
 8004270:	e92d 43f0 	stmdb	sp!, {r4, r5, r6, r7, r8, r9, lr}
 8004274:	7e0d      	ldrb	r5, [r1, #24]
 8004276:	b085      	sub	sp, #20
 8004278:	2d78      	cmp	r5, #120	@ 0x78
 800427a:	4690      	mov	r8, r2
 800427c:	9e0c      	ldr	r6, [sp, #48]	@ 0x30
 800427e:	4607      	mov	r7, r0
 8004280:	460c      	mov	r4, r1
 8004282:	4699      	mov	r9, r3
 8004284:	f101 0243 	add.w	r2, r1, #67	@ 0x43
 8004288:	d807      	bhi.n	800429a <_printf_i+0x2a>
 800428a:	2d62      	cmp	r5, #98	@ 0x62
 800428c:	d80a      	bhi.n	80042a4 <_printf_i+0x34>
 800428e:	2d00      	cmp	r5, #0
 8004290:	f000 80d7 	beq.w	8004442 <_printf_i+0x1d2>
 8004294:	2d58      	cmp	r5, #88	@ 0x58
 8004296:	f000 80bc 	beq.w	8004412 <_printf_i+0x1a2>
 800429a:	f104 0642 	add.w	r6, r4, #66	@ 0x42
 800429e:	f884 5042 	strb.w	r5, [r4, #66]	@ 0x42
 80042a2:	e03b      	b.n	800431c <_printf_i+0xac>
 80042a4:	f1a5 0363 	sub.w	r3, r5, #99	@ 0x63
 80042a8:	2b15      	cmp	r3, #21
 80042aa:	d8f6      	bhi.n	800429a <_printf_i+0x2a>
 80042ac:	a101      	add	r1, pc, #4	@ (adr r1, 80042b4 <_printf_i+0x44>)
 80042ae:	f851 f023 	ldr.w	pc, [r1, r3, lsl #2]
 80042b2:	bf00      	nop
 80042b4:	0800430d 	.word	0x0800430d
 80042b8:	08004321 	.word	0x08004321
 80042bc:	0800429b 	.word	0x0800429b
 80042c0:	0800429b 	.word	0x0800429b
 80042c4:	0800429b 	.word	0x0800429b
 80042c8:	0800429b 	.word	0x0800429b
 80042cc:	08004321 	.word	0x08004321
 80042d0:	0800429b 	.word	0x0800429b
 80042d4:	0800429b 	.word	0x0800429b
 80042d8:	0800429b 	.word	0x0800429b
 80042dc:	0800429b 	.word	0x0800429b
 80042e0:	08004429 	.word	0x08004429
 80042e4:	0800434b 	.word	0x0800434b
 80042e8:	080043db 	.word	0x080043db
 80042ec:	0800429b 	.word	0x0800429b
 80042f0:	0800429b 	.word	0x0800429b
 80042f4:	0800444b 	.word	0x0800444b
 80042f8:	0800429b 	.word	0x0800429b
 80042fc:	0800434b 	.word	0x0800434b
 8004300:	0800429b 	.word	0x0800429b
 8004304:	0800429b 	.word	0x0800429b
 8004308:	080043e3 	.word	0x080043e3
 800430c:	6833      	ldr	r3, [r6, #0]
 800430e:	1d1a      	adds	r2, r3, #4
 8004310:	681b      	ldr	r3, [r3, #0]
 8004312:	6032      	str	r2, [r6, #0]
 8004314:	f104 0642 	add.w	r6, r4, #66	@ 0x42
 8004318:	f884 3042 	strb.w	r3, [r4, #66]	@ 0x42
 800431c:	2301      	movs	r3, #1
 800431e:	e0a1      	b.n	8004464 <_printf_i+0x1f4>
 8004320:	6833      	ldr	r3, [r6, #0]
 8004322:	6820      	ldr	r0, [r4, #0]
 8004324:	1d19      	adds	r1, r3, #4
 8004326:	6031      	str	r1, [r6, #0]
 8004328:	0606      	lsls	r6, r0, #24
 800432a:	d501      	bpl.n	8004330 <_printf_i+0xc0>
 800432c:	681d      	ldr	r5, [r3, #0]
 800432e:	e003      	b.n	8004338 <_printf_i+0xc8>
 8004330:	0645      	lsls	r5, r0, #25
 8004332:	d5fb      	bpl.n	800432c <_printf_i+0xbc>
 8004334:	f9b3 5000 	ldrsh.w	r5, [r3]
 8004338:	2d00      	cmp	r5, #0
 800433a:	da03      	bge.n	8004344 <_printf_i+0xd4>
 800433c:	232d      	movs	r3, #45	@ 0x2d
 800433e:	426d      	negs	r5, r5
 8004340:	f884 3043 	strb.w	r3, [r4, #67]	@ 0x43
 8004344:	485b      	ldr	r0, [pc, #364]	@ (80044b4 <_printf_i+0x244>)
 8004346:	230a      	movs	r3, #10
 8004348:	e011      	b.n	800436e <_printf_i+0xfe>
 800434a:	6821      	ldr	r1, [r4, #0]
 800434c:	6833      	ldr	r3, [r6, #0]
 800434e:	0608      	lsls	r0, r1, #24
 8004350:	f853 5b04 	ldr.w	r5, [r3], #4
 8004354:	d402      	bmi.n	800435c <_printf_i+0xec>
 8004356:	0649      	lsls	r1, r1, #25
 8004358:	bf48      	it	mi
 800435a:	b2ad      	uxthmi	r5, r5
 800435c:	6033      	str	r3, [r6, #0]
 800435e:	7e23      	ldrb	r3, [r4, #24]
 8004360:	4854      	ldr	r0, [pc, #336]	@ (80044b4 <_printf_i+0x244>)
 8004362:	2b6f      	cmp	r3, #111	@ 0x6f
 8004364:	d15c      	bne.n	8004420 <_printf_i+0x1b0>
 8004366:	2308      	movs	r3, #8
 8004368:	2100      	movs	r1, #0
 800436a:	f884 1043 	strb.w	r1, [r4, #67]	@ 0x43
 800436e:	6866      	ldr	r6, [r4, #4]
 8004370:	60a6      	str	r6, [r4, #8]
 8004372:	2e00      	cmp	r6, #0
 8004374:	db05      	blt.n	8004382 <_printf_i+0x112>
 8004376:	6821      	ldr	r1, [r4, #0]
 8004378:	432e      	orrs	r6, r5
 800437a:	f021 0104 	bic.w	r1, r1, #4
 800437e:	6021      	str	r1, [r4, #0]
 8004380:	d050      	beq.n	8004424 <_printf_i+0x1b4>
 8004382:	4616      	mov	r6, r2
 8004384:	fbb5 f1f3 	udiv	r1, r5, r3
 8004388:	fb03 5c11 	mls	ip, r3, r1, r5
 800438c:	f810 c00c 	ldrb.w	ip, [r0, ip]
 8004390:	f806 cd01 	strb.w	ip, [r6, #-1]!
 8004394:	46ac      	mov	ip, r5
 8004396:	4563      	cmp	r3, ip
 8004398:	460d      	mov	r5, r1
 800439a:	d9f3      	bls.n	8004384 <_printf_i+0x114>
 800439c:	2b08      	cmp	r3, #8
 800439e:	d10b      	bne.n	80043b8 <_printf_i+0x148>
 80043a0:	6823      	ldr	r3, [r4, #0]
 80043a2:	07db      	lsls	r3, r3, #31
 80043a4:	d508      	bpl.n	80043b8 <_printf_i+0x148>
 80043a6:	6923      	ldr	r3, [r4, #16]
 80043a8:	6861      	ldr	r1, [r4, #4]
 80043aa:	4299      	cmp	r1, r3
 80043ac:	bfde      	ittt	le
 80043ae:	2330      	movle	r3, #48	@ 0x30
 80043b0:	f806 3c01 	strble.w	r3, [r6, #-1]
 80043b4:	f106 36ff 	addle.w	r6, r6, #4294967295
 80043b8:	1b92      	subs	r2, r2, r6
 80043ba:	6122      	str	r2, [r4, #16]
 80043bc:	f8cd 9000 	str.w	r9, [sp]
 80043c0:	4643      	mov	r3, r8
 80043c2:	aa03      	add	r2, sp, #12
 80043c4:	4621      	mov	r1, r4
 80043c6:	4638      	mov	r0, r7
 80043c8:	f7ff fee4 	bl	8004194 <_printf_common>
 80043cc:	3001      	adds	r0, #1
 80043ce:	d14e      	bne.n	800446e <_printf_i+0x1fe>
 80043d0:	f04f 30ff 	mov.w	r0, #4294967295
 80043d4:	b005      	add	sp, #20
 80043d6:	e8bd 83f0 	ldmia.w	sp!, {r4, r5, r6, r7, r8, r9, pc}
 80043da:	6823      	ldr	r3, [r4, #0]
 80043dc:	f043 0320 	orr.w	r3, r3, #32
 80043e0:	6023      	str	r3, [r4, #0]
 80043e2:	4835      	ldr	r0, [pc, #212]	@ (80044b8 <_printf_i+0x248>)
 80043e4:	2578      	movs	r5, #120	@ 0x78
 80043e6:	f884 5045 	strb.w	r5, [r4, #69]	@ 0x45
 80043ea:	6823      	ldr	r3, [r4, #0]
 80043ec:	6831      	ldr	r1, [r6, #0]
 80043ee:	f013 0f80 	tst.w	r3, #128	@ 0x80
 80043f2:	f851 5b04 	ldr.w	r5, [r1], #4
 80043f6:	d103      	bne.n	8004400 <_printf_i+0x190>
 80043f8:	f013 0f40 	tst.w	r3, #64	@ 0x40
 80043fc:	bf18      	it	ne
 80043fe:	b2ad      	uxthne	r5, r5
 8004400:	6031      	str	r1, [r6, #0]
 8004402:	07d9      	lsls	r1, r3, #31
 8004404:	bf44      	itt	mi
 8004406:	f043 0320 	orrmi.w	r3, r3, #32
 800440a:	6023      	strmi	r3, [r4, #0]
 800440c:	b11d      	cbz	r5, 8004416 <_printf_i+0x1a6>
 800440e:	2310      	movs	r3, #16
 8004410:	e7aa      	b.n	8004368 <_printf_i+0xf8>
 8004412:	4828      	ldr	r0, [pc, #160]	@ (80044b4 <_printf_i+0x244>)
 8004414:	e7e7      	b.n	80043e6 <_printf_i+0x176>
 8004416:	6823      	ldr	r3, [r4, #0]
 8004418:	f023 0320 	bic.w	r3, r3, #32
 800441c:	6023      	str	r3, [r4, #0]
 800441e:	e7f6      	b.n	800440e <_printf_i+0x19e>
 8004420:	230a      	movs	r3, #10
 8004422:	e7a1      	b.n	8004368 <_printf_i+0xf8>
 8004424:	4616      	mov	r6, r2
 8004426:	e7b9      	b.n	800439c <_printf_i+0x12c>
 8004428:	6833      	ldr	r3, [r6, #0]
 800442a:	6825      	ldr	r5, [r4, #0]
 800442c:	6961      	ldr	r1, [r4, #20]
 800442e:	1d18      	adds	r0, r3, #4
 8004430:	6030      	str	r0, [r6, #0]
 8004432:	062e      	lsls	r6, r5, #24
 8004434:	681b      	ldr	r3, [r3, #0]
 8004436:	d501      	bpl.n	800443c <_printf_i+0x1cc>
 8004438:	6019      	str	r1, [r3, #0]
 800443a:	e002      	b.n	8004442 <_printf_i+0x1d2>
 800443c:	0668      	lsls	r0, r5, #25
 800443e:	d5fb      	bpl.n	8004438 <_printf_i+0x1c8>
 8004440:	8019      	strh	r1, [r3, #0]
 8004442:	2300      	movs	r3, #0
 8004444:	6123      	str	r3, [r4, #16]
 8004446:	4616      	mov	r6, r2
 8004448:	e7b8      	b.n	80043bc <_printf_i+0x14c>
 800444a:	6833      	ldr	r3, [r6, #0]
 800444c:	1d1a      	adds	r2, r3, #4
 800444e:	6032      	str	r2, [r6, #0]
 8004450:	681e      	ldr	r6, [r3, #0]
 8004452:	6862      	ldr	r2, [r4, #4]
 8004454:	2100      	movs	r1, #0
 8004456:	4630      	mov	r0, r6
 8004458:	f7fc fb32 	bl	8000ac0 <memchr>
 800445c:	b108      	cbz	r0, 8004462 <_printf_i+0x1f2>
 800445e:	1b80      	subs	r0, r0, r6
 8004460:	6060      	str	r0, [r4, #4]
 8004462:	6863      	ldr	r3, [r4, #4]
 8004464:	6123      	str	r3, [r4, #16]
 8004466:	2300      	movs	r3, #0
 8004468:	f884 3043 	strb.w	r3, [r4, #67]	@ 0x43
 800446c:	e7a6      	b.n	80043bc <_printf_i+0x14c>
 800446e:	6923      	ldr	r3, [r4, #16]
 8004470:	4632      	mov	r2, r6
 8004472:	4641      	mov	r1, r8
 8004474:	4638      	mov	r0, r7
 8004476:	47c8      	blx	r9
 8004478:	3001      	adds	r0, #1
 800447a:	d0a9      	beq.n	80043d0 <_printf_i+0x160>
 800447c:	6823      	ldr	r3, [r4, #0]
 800447e:	079b      	lsls	r3, r3, #30
 8004480:	d413      	bmi.n	80044aa <_printf_i+0x23a>
 8004482:	68e0      	ldr	r0, [r4, #12]
 8004484:	9b03      	ldr	r3, [sp, #12]
 8004486:	4298      	cmp	r0, r3
 8004488:	bfb8      	it	lt
 800448a:	4618      	movlt	r0, r3
 800448c:	e7a2      	b.n	80043d4 <_printf_i+0x164>
 800448e:	2301      	movs	r3, #1
 8004490:	4632      	mov	r2, r6
 8004492:	4641      	mov	r1, r8
 8004494:	4638      	mov	r0, r7
 8004496:	47c8      	blx	r9
 8004498:	3001      	adds	r0, #1
 800449a:	d099      	beq.n	80043d0 <_printf_i+0x160>
 800449c:	3501      	adds	r5, #1
 800449e:	68e3      	ldr	r3, [r4, #12]
 80044a0:	9903      	ldr	r1, [sp, #12]
 80044a2:	1a5b      	subs	r3, r3, r1
 80044a4:	42ab      	cmp	r3, r5
 80044a6:	dcf2      	bgt.n	800448e <_printf_i+0x21e>
 80044a8:	e7eb      	b.n	8004482 <_printf_i+0x212>
 80044aa:	2500      	movs	r5, #0
 80044ac:	f104 0619 	add.w	r6, r4, #25
 80044b0:	e7f5      	b.n	800449e <_printf_i+0x22e>
 80044b2:	bf00      	nop
 80044b4:	08008506 	.word	0x08008506
 80044b8:	08008517 	.word	0x08008517

080044bc <_scanf_float>:
 80044bc:	e92d 4ff0 	stmdb	sp!, {r4, r5, r6, r7, r8, r9, sl, fp, lr}
 80044c0:	b087      	sub	sp, #28
 80044c2:	4691      	mov	r9, r2
 80044c4:	9303      	str	r3, [sp, #12]
 80044c6:	688b      	ldr	r3, [r1, #8]
 80044c8:	1e5a      	subs	r2, r3, #1
 80044ca:	f5b2 7fae 	cmp.w	r2, #348	@ 0x15c
 80044ce:	bf81      	itttt	hi
 80044d0:	f46f 75ae 	mvnhi.w	r5, #348	@ 0x15c
 80044d4:	eb03 0b05 	addhi.w	fp, r3, r5
 80044d8:	f240 135d 	movwhi	r3, #349	@ 0x15d
 80044dc:	608b      	strhi	r3, [r1, #8]
 80044de:	680b      	ldr	r3, [r1, #0]
 80044e0:	460a      	mov	r2, r1
 80044e2:	f04f 0500 	mov.w	r5, #0
 80044e6:	f443 63f0 	orr.w	r3, r3, #1920	@ 0x780
 80044ea:	f842 3b1c 	str.w	r3, [r2], #28
 80044ee:	e9cd 5504 	strd	r5, r5, [sp, #16]
 80044f2:	4680      	mov	r8, r0
 80044f4:	460c      	mov	r4, r1
 80044f6:	bf98      	it	ls
 80044f8:	f04f 0b00 	movls.w	fp, #0
 80044fc:	9201      	str	r2, [sp, #4]
 80044fe:	4616      	mov	r6, r2
 8004500:	46aa      	mov	sl, r5
 8004502:	462f      	mov	r7, r5
 8004504:	9502      	str	r5, [sp, #8]
 8004506:	68a2      	ldr	r2, [r4, #8]
 8004508:	b15a      	cbz	r2, 8004522 <_scanf_float+0x66>
 800450a:	f8d9 3000 	ldr.w	r3, [r9]
 800450e:	781b      	ldrb	r3, [r3, #0]
 8004510:	2b4e      	cmp	r3, #78	@ 0x4e
 8004512:	d863      	bhi.n	80045dc <_scanf_float+0x120>
 8004514:	2b40      	cmp	r3, #64	@ 0x40
 8004516:	d83b      	bhi.n	8004590 <_scanf_float+0xd4>
 8004518:	f1a3 012b 	sub.w	r1, r3, #43	@ 0x2b
 800451c:	b2c8      	uxtb	r0, r1
 800451e:	280e      	cmp	r0, #14
 8004520:	d939      	bls.n	8004596 <_scanf_float+0xda>
 8004522:	b11f      	cbz	r7, 800452c <_scanf_float+0x70>
 8004524:	6823      	ldr	r3, [r4, #0]
 8004526:	f423 7380 	bic.w	r3, r3, #256	@ 0x100
 800452a:	6023      	str	r3, [r4, #0]
 800452c:	f10a 3aff 	add.w	sl, sl, #4294967295
 8004530:	f1ba 0f01 	cmp.w	sl, #1
 8004534:	f200 8114 	bhi.w	8004760 <_scanf_float+0x2a4>
 8004538:	9b01      	ldr	r3, [sp, #4]
 800453a:	429e      	cmp	r6, r3
 800453c:	f200 8105 	bhi.w	800474a <_scanf_float+0x28e>
 8004540:	2001      	movs	r0, #1
 8004542:	b007      	add	sp, #28
 8004544:	e8bd 8ff0 	ldmia.w	sp!, {r4, r5, r6, r7, r8, r9, sl, fp, pc}
 8004548:	f1a3 0261 	sub.w	r2, r3, #97	@ 0x61
 800454c:	2a0d      	cmp	r2, #13
 800454e:	d8e8      	bhi.n	8004522 <_scanf_float+0x66>
 8004550:	a101      	add	r1, pc, #4	@ (adr r1, 8004558 <_scanf_float+0x9c>)
 8004552:	f851 f022 	ldr.w	pc, [r1, r2, lsl #2]
 8004556:	bf00      	nop
 8004558:	080046a1 	.word	0x080046a1
 800455c:	08004523 	.word	0x08004523
 8004560:	08004523 	.word	0x08004523
 8004564:	08004523 	.word	0x08004523
 8004568:	080046fd 	.word	0x080046fd
 800456c:	080046d7 	.word	0x080046d7
 8004570:	08004523 	.word	0x08004523
 8004574:	08004523 	.word	0x08004523
 8004578:	080046af 	.word	0x080046af
 800457c:	08004523 	.word	0x08004523
 8004580:	08004523 	.word	0x08004523
 8004584:	08004523 	.word	0x08004523
 8004588:	08004523 	.word	0x08004523
 800458c:	0800466b 	.word	0x0800466b
 8004590:	f1a3 0241 	sub.w	r2, r3, #65	@ 0x41
 8004594:	e7da      	b.n	800454c <_scanf_float+0x90>
 8004596:	290e      	cmp	r1, #14
 8004598:	d8c3      	bhi.n	8004522 <_scanf_float+0x66>
 800459a:	a001      	add	r0, pc, #4	@ (adr r0, 80045a0 <_scanf_float+0xe4>)
 800459c:	f850 f021 	ldr.w	pc, [r0, r1, lsl #2]
 80045a0:	0800465b 	.word	0x0800465b
 80045a4:	08004523 	.word	0x08004523
 80045a8:	0800465b 	.word	0x0800465b
 80045ac:	080046eb 	.word	0x080046eb
 80045b0:	08004523 	.word	0x08004523
 80045b4:	080045fd 	.word	0x080045fd
 80045b8:	08004641 	.word	0x08004641
 80045bc:	08004641 	.word	0x08004641
 80045c0:	08004641 	.word	0x08004641
 80045c4:	08004641 	.word	0x08004641
 80045c8:	08004641 	.word	0x08004641
 80045cc:	08004641 	.word	0x08004641
 80045d0:	08004641 	.word	0x08004641
 80045d4:	08004641 	.word	0x08004641
 80045d8:	08004641 	.word	0x08004641
 80045dc:	2b6e      	cmp	r3, #110	@ 0x6e
 80045de:	d809      	bhi.n	80045f4 <_scanf_float+0x138>
 80045e0:	2b60      	cmp	r3, #96	@ 0x60
 80045e2:	d8b1      	bhi.n	8004548 <_scanf_float+0x8c>
 80045e4:	2b54      	cmp	r3, #84	@ 0x54
 80045e6:	d07b      	beq.n	80046e0 <_scanf_float+0x224>
 80045e8:	2b59      	cmp	r3, #89	@ 0x59
 80045ea:	d19a      	bne.n	8004522 <_scanf_float+0x66>
 80045ec:	2d07      	cmp	r5, #7
 80045ee:	d198      	bne.n	8004522 <_scanf_float+0x66>
 80045f0:	2508      	movs	r5, #8
 80045f2:	e02f      	b.n	8004654 <_scanf_float+0x198>
 80045f4:	2b74      	cmp	r3, #116	@ 0x74
 80045f6:	d073      	beq.n	80046e0 <_scanf_float+0x224>
 80045f8:	2b79      	cmp	r3, #121	@ 0x79
 80045fa:	e7f6      	b.n	80045ea <_scanf_float+0x12e>
 80045fc:	6821      	ldr	r1, [r4, #0]
 80045fe:	05c8      	lsls	r0, r1, #23
 8004600:	d51e      	bpl.n	8004640 <_scanf_float+0x184>
 8004602:	f021 0180 	bic.w	r1, r1, #128	@ 0x80
 8004606:	6021      	str	r1, [r4, #0]
 8004608:	3701      	adds	r7, #1
 800460a:	f1bb 0f00 	cmp.w	fp, #0
 800460e:	d003      	beq.n	8004618 <_scanf_float+0x15c>
 8004610:	3201      	adds	r2, #1
 8004612:	f10b 3bff 	add.w	fp, fp, #4294967295
 8004616:	60a2      	str	r2, [r4, #8]
 8004618:	68a3      	ldr	r3, [r4, #8]
 800461a:	3b01      	subs	r3, #1
 800461c:	60a3      	str	r3, [r4, #8]
 800461e:	6923      	ldr	r3, [r4, #16]
 8004620:	3301      	adds	r3, #1
 8004622:	6123      	str	r3, [r4, #16]
 8004624:	f8d9 3004 	ldr.w	r3, [r9, #4]
 8004628:	3b01      	subs	r3, #1
 800462a:	2b00      	cmp	r3, #0
 800462c:	f8c9 3004 	str.w	r3, [r9, #4]
 8004630:	f340 8082 	ble.w	8004738 <_scanf_float+0x27c>
 8004634:	f8d9 3000 	ldr.w	r3, [r9]
 8004638:	3301      	adds	r3, #1
 800463a:	f8c9 3000 	str.w	r3, [r9]
 800463e:	e762      	b.n	8004506 <_scanf_float+0x4a>
 8004640:	eb1a 0105 	adds.w	r1, sl, r5
 8004644:	f47f af6d 	bne.w	8004522 <_scanf_float+0x66>
 8004648:	6822      	ldr	r2, [r4, #0]
 800464a:	f422 72c0 	bic.w	r2, r2, #384	@ 0x180
 800464e:	6022      	str	r2, [r4, #0]
 8004650:	460d      	mov	r5, r1
 8004652:	468a      	mov	sl, r1
 8004654:	f806 3b01 	strb.w	r3, [r6], #1
 8004658:	e7de      	b.n	8004618 <_scanf_float+0x15c>
 800465a:	6822      	ldr	r2, [r4, #0]
 800465c:	0610      	lsls	r0, r2, #24
 800465e:	f57f af60 	bpl.w	8004522 <_scanf_float+0x66>
 8004662:	f022 0280 	bic.w	r2, r2, #128	@ 0x80
 8004666:	6022      	str	r2, [r4, #0]
 8004668:	e7f4      	b.n	8004654 <_scanf_float+0x198>
 800466a:	f1ba 0f00 	cmp.w	sl, #0
 800466e:	d10c      	bne.n	800468a <_scanf_float+0x1ce>
 8004670:	b977      	cbnz	r7, 8004690 <_scanf_float+0x1d4>
 8004672:	6822      	ldr	r2, [r4, #0]
 8004674:	f402 61e0 	and.w	r1, r2, #1792	@ 0x700
 8004678:	f5b1 6fe0 	cmp.w	r1, #1792	@ 0x700
 800467c:	d108      	bne.n	8004690 <_scanf_float+0x1d4>
 800467e:	f422 62f0 	bic.w	r2, r2, #1920	@ 0x780
 8004682:	6022      	str	r2, [r4, #0]
 8004684:	f04f 0a01 	mov.w	sl, #1
 8004688:	e7e4      	b.n	8004654 <_scanf_float+0x198>
 800468a:	f1ba 0f02 	cmp.w	sl, #2
 800468e:	d050      	beq.n	8004732 <_scanf_float+0x276>
 8004690:	2d01      	cmp	r5, #1
 8004692:	d002      	beq.n	800469a <_scanf_float+0x1de>
 8004694:	2d04      	cmp	r5, #4
 8004696:	f47f af44 	bne.w	8004522 <_scanf_float+0x66>
 800469a:	3501      	adds	r5, #1
 800469c:	b2ed      	uxtb	r5, r5
 800469e:	e7d9      	b.n	8004654 <_scanf_float+0x198>
 80046a0:	f1ba 0f01 	cmp.w	sl, #1
 80046a4:	f47f af3d 	bne.w	8004522 <_scanf_float+0x66>
 80046a8:	f04f 0a02 	mov.w	sl, #2
 80046ac:	e7d2      	b.n	8004654 <_scanf_float+0x198>
 80046ae:	b975      	cbnz	r5, 80046ce <_scanf_float+0x212>
 80046b0:	2f00      	cmp	r7, #0
 80046b2:	f47f af37 	bne.w	8004524 <_scanf_float+0x68>
 80046b6:	6822      	ldr	r2, [r4, #0]
 80046b8:	f402 61e0 	and.w	r1, r2, #1792	@ 0x700
 80046bc:	f5b1 6fe0 	cmp.w	r1, #1792	@ 0x700
 80046c0:	f040 80fb 	bne.w	80048ba <_scanf_float+0x3fe>
 80046c4:	f422 62f0 	bic.w	r2, r2, #1920	@ 0x780
 80046c8:	6022      	str	r2, [r4, #0]
 80046ca:	2501      	movs	r5, #1
 80046cc:	e7c2      	b.n	8004654 <_scanf_float+0x198>
 80046ce:	2d03      	cmp	r5, #3
 80046d0:	d0e3      	beq.n	800469a <_scanf_float+0x1de>
 80046d2:	2d05      	cmp	r5, #5
 80046d4:	e7df      	b.n	8004696 <_scanf_float+0x1da>
 80046d6:	2d02      	cmp	r5, #2
 80046d8:	f47f af23 	bne.w	8004522 <_scanf_float+0x66>
 80046dc:	2503      	movs	r5, #3
 80046de:	e7b9      	b.n	8004654 <_scanf_float+0x198>
 80046e0:	2d06      	cmp	r5, #6
 80046e2:	f47f af1e 	bne.w	8004522 <_scanf_float+0x66>
 80046e6:	2507      	movs	r5, #7
 80046e8:	e7b4      	b.n	8004654 <_scanf_float+0x198>
 80046ea:	6822      	ldr	r2, [r4, #0]
 80046ec:	0591      	lsls	r1, r2, #22
 80046ee:	f57f af18 	bpl.w	8004522 <_scanf_float+0x66>
 80046f2:	f422 7220 	bic.w	r2, r2, #640	@ 0x280
 80046f6:	6022      	str	r2, [r4, #0]
 80046f8:	9702      	str	r7, [sp, #8]
 80046fa:	e7ab      	b.n	8004654 <_scanf_float+0x198>
 80046fc:	6822      	ldr	r2, [r4, #0]
 80046fe:	f402 61a0 	and.w	r1, r2, #1280	@ 0x500
 8004702:	f5b1 6f80 	cmp.w	r1, #1024	@ 0x400
 8004706:	d005      	beq.n	8004714 <_scanf_float+0x258>
 8004708:	0550      	lsls	r0, r2, #21
 800470a:	f57f af0a 	bpl.w	8004522 <_scanf_float+0x66>
 800470e:	2f00      	cmp	r7, #0
 8004710:	f000 80d3 	beq.w	80048ba <_scanf_float+0x3fe>
 8004714:	0591      	lsls	r1, r2, #22
 8004716:	bf58      	it	pl
 8004718:	9902      	ldrpl	r1, [sp, #8]
 800471a:	f422 62f0 	bic.w	r2, r2, #1920	@ 0x780
 800471e:	bf58      	it	pl
 8004720:	1a79      	subpl	r1, r7, r1
 8004722:	f442 72c0 	orr.w	r2, r2, #384	@ 0x180
 8004726:	bf58      	it	pl
 8004728:	e9cd 1604 	strdpl	r1, r6, [sp, #16]
 800472c:	6022      	str	r2, [r4, #0]
 800472e:	2700      	movs	r7, #0
 8004730:	e790      	b.n	8004654 <_scanf_float+0x198>
 8004732:	f04f 0a03 	mov.w	sl, #3
 8004736:	e78d      	b.n	8004654 <_scanf_float+0x198>
 8004738:	f8d4 3180 	ldr.w	r3, [r4, #384]	@ 0x180
 800473c:	4649      	mov	r1, r9
 800473e:	4640      	mov	r0, r8
 8004740:	4798      	blx	r3
 8004742:	2800      	cmp	r0, #0
 8004744:	f43f aedf 	beq.w	8004506 <_scanf_float+0x4a>
 8004748:	e6eb      	b.n	8004522 <_scanf_float+0x66>
 800474a:	f8d4 317c 	ldr.w	r3, [r4, #380]	@ 0x17c
 800474e:	f816 1d01 	ldrb.w	r1, [r6, #-1]!
 8004752:	464a      	mov	r2, r9
 8004754:	4640      	mov	r0, r8
 8004756:	4798      	blx	r3
 8004758:	6923      	ldr	r3, [r4, #16]
 800475a:	3b01      	subs	r3, #1
 800475c:	6123      	str	r3, [r4, #16]
 800475e:	e6eb      	b.n	8004538 <_scanf_float+0x7c>
 8004760:	1e6b      	subs	r3, r5, #1
 8004762:	2b06      	cmp	r3, #6
 8004764:	d824      	bhi.n	80047b0 <_scanf_float+0x2f4>
 8004766:	2d02      	cmp	r5, #2
 8004768:	d836      	bhi.n	80047d8 <_scanf_float+0x31c>
 800476a:	9b01      	ldr	r3, [sp, #4]
 800476c:	429e      	cmp	r6, r3
 800476e:	f67f aee7 	bls.w	8004540 <_scanf_float+0x84>
 8004772:	f8d4 317c 	ldr.w	r3, [r4, #380]	@ 0x17c
 8004776:	f816 1d01 	ldrb.w	r1, [r6, #-1]!
 800477a:	464a      	mov	r2, r9
 800477c:	4640      	mov	r0, r8
 800477e:	4798      	blx	r3
 8004780:	6923      	ldr	r3, [r4, #16]
 8004782:	3b01      	subs	r3, #1
 8004784:	6123      	str	r3, [r4, #16]
 8004786:	e7f0      	b.n	800476a <_scanf_float+0x2ae>
 8004788:	f8d4 317c 	ldr.w	r3, [r4, #380]	@ 0x17c
 800478c:	f81b 1d01 	ldrb.w	r1, [fp, #-1]!
 8004790:	464a      	mov	r2, r9
 8004792:	4640      	mov	r0, r8
 8004794:	4798      	blx	r3
 8004796:	6923      	ldr	r3, [r4, #16]
 8004798:	3b01      	subs	r3, #1
 800479a:	6123      	str	r3, [r4, #16]
 800479c:	f10a 3aff 	add.w	sl, sl, #4294967295
 80047a0:	fa5f fa8a 	uxtb.w	sl, sl
 80047a4:	f1ba 0f02 	cmp.w	sl, #2
 80047a8:	d1ee      	bne.n	8004788 <_scanf_float+0x2cc>
 80047aa:	3d03      	subs	r5, #3
 80047ac:	b2ed      	uxtb	r5, r5
 80047ae:	1b76      	subs	r6, r6, r5
 80047b0:	6823      	ldr	r3, [r4, #0]
 80047b2:	05da      	lsls	r2, r3, #23
 80047b4:	d530      	bpl.n	8004818 <_scanf_float+0x35c>
 80047b6:	055d      	lsls	r5, r3, #21
 80047b8:	d511      	bpl.n	80047de <_scanf_float+0x322>
 80047ba:	9b01      	ldr	r3, [sp, #4]
 80047bc:	429e      	cmp	r6, r3
 80047be:	f67f aebf 	bls.w	8004540 <_scanf_float+0x84>
 80047c2:	f8d4 317c 	ldr.w	r3, [r4, #380]	@ 0x17c
 80047c6:	f816 1d01 	ldrb.w	r1, [r6, #-1]!
 80047ca:	464a      	mov	r2, r9
 80047cc:	4640      	mov	r0, r8
 80047ce:	4798      	blx	r3
 80047d0:	6923      	ldr	r3, [r4, #16]
 80047d2:	3b01      	subs	r3, #1
 80047d4:	6123      	str	r3, [r4, #16]
 80047d6:	e7f0      	b.n	80047ba <_scanf_float+0x2fe>
 80047d8:	46aa      	mov	sl, r5
 80047da:	46b3      	mov	fp, r6
 80047dc:	e7de      	b.n	800479c <_scanf_float+0x2e0>
 80047de:	f816 1c01 	ldrb.w	r1, [r6, #-1]
 80047e2:	6923      	ldr	r3, [r4, #16]
 80047e4:	2965      	cmp	r1, #101	@ 0x65
 80047e6:	f103 33ff 	add.w	r3, r3, #4294967295
 80047ea:	f106 35ff 	add.w	r5, r6, #4294967295
 80047ee:	6123      	str	r3, [r4, #16]
 80047f0:	d00c      	beq.n	800480c <_scanf_float+0x350>
 80047f2:	2945      	cmp	r1, #69	@ 0x45
 80047f4:	d00a      	beq.n	800480c <_scanf_float+0x350>
 80047f6:	f8d4 317c 	ldr.w	r3, [r4, #380]	@ 0x17c
 80047fa:	464a      	mov	r2, r9
 80047fc:	4640      	mov	r0, r8
 80047fe:	4798      	blx	r3
 8004800:	6923      	ldr	r3, [r4, #16]
 8004802:	f816 1c02 	ldrb.w	r1, [r6, #-2]
 8004806:	3b01      	subs	r3, #1
 8004808:	1eb5      	subs	r5, r6, #2
 800480a:	6123      	str	r3, [r4, #16]
 800480c:	f8d4 317c 	ldr.w	r3, [r4, #380]	@ 0x17c
 8004810:	464a      	mov	r2, r9
 8004812:	4640      	mov	r0, r8
 8004814:	4798      	blx	r3
 8004816:	462e      	mov	r6, r5
 8004818:	6822      	ldr	r2, [r4, #0]
 800481a:	f012 0210 	ands.w	r2, r2, #16
 800481e:	d001      	beq.n	8004824 <_scanf_float+0x368>
 8004820:	2000      	movs	r0, #0
 8004822:	e68e      	b.n	8004542 <_scanf_float+0x86>
 8004824:	7032      	strb	r2, [r6, #0]
 8004826:	6823      	ldr	r3, [r4, #0]
 8004828:	f403 63c0 	and.w	r3, r3, #1536	@ 0x600
 800482c:	f5b3 6f80 	cmp.w	r3, #1024	@ 0x400
 8004830:	d122      	bne.n	8004878 <_scanf_float+0x3bc>
 8004832:	9b02      	ldr	r3, [sp, #8]
 8004834:	429f      	cmp	r7, r3
 8004836:	d00a      	beq.n	800484e <_scanf_float+0x392>
 8004838:	1bda      	subs	r2, r3, r7
 800483a:	f204 136f 	addw	r3, r4, #367	@ 0x16f
 800483e:	429e      	cmp	r6, r3
 8004840:	bf28      	it	cs
 8004842:	f504 76b7 	addcs.w	r6, r4, #366	@ 0x16e
 8004846:	491e      	ldr	r1, [pc, #120]	@ (80048c0 <_scanf_float+0x404>)
 8004848:	4630      	mov	r0, r6
 800484a:	f000 f971 	bl	8004b30 <siprintf>
 800484e:	9901      	ldr	r1, [sp, #4]
 8004850:	2200      	movs	r2, #0
 8004852:	4640      	mov	r0, r8
 8004854:	f002 fc3a 	bl	80070cc <_strtod_r>
 8004858:	9b03      	ldr	r3, [sp, #12]
 800485a:	6821      	ldr	r1, [r4, #0]
 800485c:	681b      	ldr	r3, [r3, #0]
 800485e:	0788      	lsls	r0, r1, #30
 8004860:	f103 0204 	add.w	r2, r3, #4
 8004864:	d515      	bpl.n	8004892 <_scanf_float+0x3d6>
 8004866:	9903      	ldr	r1, [sp, #12]
 8004868:	600a      	str	r2, [r1, #0]
 800486a:	681b      	ldr	r3, [r3, #0]
 800486c:	ed83 0b00 	vstr	d0, [r3]
 8004870:	68e3      	ldr	r3, [r4, #12]
 8004872:	3301      	adds	r3, #1
 8004874:	60e3      	str	r3, [r4, #12]
 8004876:	e7d3      	b.n	8004820 <_scanf_float+0x364>
 8004878:	9b04      	ldr	r3, [sp, #16]
 800487a:	2b00      	cmp	r3, #0
 800487c:	d0e7      	beq.n	800484e <_scanf_float+0x392>
 800487e:	9905      	ldr	r1, [sp, #20]
 8004880:	230a      	movs	r3, #10
 8004882:	3101      	adds	r1, #1
 8004884:	4640      	mov	r0, r8
 8004886:	f002 fca1 	bl	80071cc <_strtol_r>
 800488a:	9b04      	ldr	r3, [sp, #16]
 800488c:	9e05      	ldr	r6, [sp, #20]
 800488e:	1ac2      	subs	r2, r0, r3
 8004890:	e7d3      	b.n	800483a <_scanf_float+0x37e>
 8004892:	f011 0f04 	tst.w	r1, #4
 8004896:	9903      	ldr	r1, [sp, #12]
 8004898:	600a      	str	r2, [r1, #0]
 800489a:	d1e6      	bne.n	800486a <_scanf_float+0x3ae>
 800489c:	eeb4 0b40 	vcmp.f64	d0, d0
 80048a0:	eef1 fa10 	vmrs	APSR_nzcv, fpscr
 80048a4:	681d      	ldr	r5, [r3, #0]
 80048a6:	d705      	bvc.n	80048b4 <_scanf_float+0x3f8>
 80048a8:	4806      	ldr	r0, [pc, #24]	@ (80048c4 <_scanf_float+0x408>)
 80048aa:	f000 fac7 	bl	8004e3c <nanf>
 80048ae:	ed85 0a00 	vstr	s0, [r5]
 80048b2:	e7dd      	b.n	8004870 <_scanf_float+0x3b4>
 80048b4:	eeb7 0bc0 	vcvt.f32.f64	s0, d0
 80048b8:	e7f9      	b.n	80048ae <_scanf_float+0x3f2>
 80048ba:	2700      	movs	r7, #0
 80048bc:	e636      	b.n	800452c <_scanf_float+0x70>
 80048be:	bf00      	nop
 80048c0:	08008528 	.word	0x08008528
 80048c4:	08008669 	.word	0x08008669

080048c8 <std>:
 80048c8:	2300      	movs	r3, #0
 80048ca:	b510      	push	{r4, lr}
 80048cc:	4604      	mov	r4, r0
 80048ce:	e9c0 3300 	strd	r3, r3, [r0]
 80048d2:	e9c0 3304 	strd	r3, r3, [r0, #16]
 80048d6:	6083      	str	r3, [r0, #8]
 80048d8:	8181      	strh	r1, [r0, #12]
 80048da:	6643      	str	r3, [r0, #100]	@ 0x64
 80048dc:	81c2      	strh	r2, [r0, #14]
 80048de:	6183      	str	r3, [r0, #24]
 80048e0:	4619      	mov	r1, r3
 80048e2:	2208      	movs	r2, #8
 80048e4:	305c      	adds	r0, #92	@ 0x5c
 80048e6:	f000 fa1b 	bl	8004d20 <memset>
 80048ea:	4b0d      	ldr	r3, [pc, #52]	@ (8004920 <std+0x58>)
 80048ec:	6263      	str	r3, [r4, #36]	@ 0x24
 80048ee:	4b0d      	ldr	r3, [pc, #52]	@ (8004924 <std+0x5c>)
 80048f0:	62a3      	str	r3, [r4, #40]	@ 0x28
 80048f2:	4b0d      	ldr	r3, [pc, #52]	@ (8004928 <std+0x60>)
 80048f4:	62e3      	str	r3, [r4, #44]	@ 0x2c
 80048f6:	4b0d      	ldr	r3, [pc, #52]	@ (800492c <std+0x64>)
 80048f8:	6323      	str	r3, [r4, #48]	@ 0x30
 80048fa:	4b0d      	ldr	r3, [pc, #52]	@ (8004930 <std+0x68>)
 80048fc:	6224      	str	r4, [r4, #32]
 80048fe:	429c      	cmp	r4, r3
 8004900:	d006      	beq.n	8004910 <std+0x48>
 8004902:	f103 0268 	add.w	r2, r3, #104	@ 0x68
 8004906:	4294      	cmp	r4, r2
 8004908:	d002      	beq.n	8004910 <std+0x48>
 800490a:	33d0      	adds	r3, #208	@ 0xd0
 800490c:	429c      	cmp	r4, r3
 800490e:	d105      	bne.n	800491c <std+0x54>
 8004910:	f104 0058 	add.w	r0, r4, #88	@ 0x58
 8004914:	e8bd 4010 	ldmia.w	sp!, {r4, lr}
 8004918:	f000 ba7e 	b.w	8004e18 <__retarget_lock_init_recursive>
 800491c:	bd10      	pop	{r4, pc}
 800491e:	bf00      	nop
 8004920:	08004b75 	.word	0x08004b75
 8004924:	08004b97 	.word	0x08004b97
 8004928:	08004bcf 	.word	0x08004bcf
 800492c:	08004bf5 	.word	0x08004bf5
 8004930:	200001fc 	.word	0x200001fc

08004934 <stdio_exit_handler>:
 8004934:	4a02      	ldr	r2, [pc, #8]	@ (8004940 <stdio_exit_handler+0xc>)
 8004936:	4903      	ldr	r1, [pc, #12]	@ (8004944 <stdio_exit_handler+0x10>)
 8004938:	4803      	ldr	r0, [pc, #12]	@ (8004948 <stdio_exit_handler+0x14>)
 800493a:	f000 b86b 	b.w	8004a14 <_fwalk_sglue>
 800493e:	bf00      	nop
 8004940:	20000010 	.word	0x20000010
 8004944:	08007801 	.word	0x08007801
 8004948:	20000020 	.word	0x20000020

0800494c <cleanup_stdio>:
 800494c:	6841      	ldr	r1, [r0, #4]
 800494e:	4b0c      	ldr	r3, [pc, #48]	@ (8004980 <cleanup_stdio+0x34>)
 8004950:	4299      	cmp	r1, r3
 8004952:	b510      	push	{r4, lr}
 8004954:	4604      	mov	r4, r0
 8004956:	d001      	beq.n	800495c <cleanup_stdio+0x10>
 8004958:	f002 ff52 	bl	8007800 <_fflush_r>
 800495c:	68a1      	ldr	r1, [r4, #8]
 800495e:	4b09      	ldr	r3, [pc, #36]	@ (8004984 <cleanup_stdio+0x38>)
 8004960:	4299      	cmp	r1, r3
 8004962:	d002      	beq.n	800496a <cleanup_stdio+0x1e>
 8004964:	4620      	mov	r0, r4
 8004966:	f002 ff4b 	bl	8007800 <_fflush_r>
 800496a:	68e1      	ldr	r1, [r4, #12]
 800496c:	4b06      	ldr	r3, [pc, #24]	@ (8004988 <cleanup_stdio+0x3c>)
 800496e:	4299      	cmp	r1, r3
 8004970:	d004      	beq.n	800497c <cleanup_stdio+0x30>
 8004972:	4620      	mov	r0, r4
 8004974:	e8bd 4010 	ldmia.w	sp!, {r4, lr}
 8004978:	f002 bf42 	b.w	8007800 <_fflush_r>
 800497c:	bd10      	pop	{r4, pc}
 800497e:	bf00      	nop
 8004980:	200001fc 	.word	0x200001fc
 8004984:	20000264 	.word	0x20000264
 8004988:	200002cc 	.word	0x200002cc

0800498c <global_stdio_init.part.0>:
 800498c:	4b0c      	ldr	r3, [pc, #48]	@ (80049c0 <global_stdio_init.part.0+0x34>)
 800498e:	4a0d      	ldr	r2, [pc, #52]	@ (80049c4 <global_stdio_init.part.0+0x38>)
 8004990:	480d      	ldr	r0, [pc, #52]	@ (80049c8 <global_stdio_init.part.0+0x3c>)
 8004992:	b510      	push	{r4, lr}
 8004994:	2104      	movs	r1, #4
 8004996:	601a      	str	r2, [r3, #0]
 8004998:	2200      	movs	r2, #0
 800499a:	f7ff ff95 	bl	80048c8 <std>
 800499e:	4b0a      	ldr	r3, [pc, #40]	@ (80049c8 <global_stdio_init.part.0+0x3c>)
 80049a0:	2201      	movs	r2, #1
 80049a2:	461c      	mov	r4, r3
 80049a4:	2109      	movs	r1, #9
 80049a6:	f103 0068 	add.w	r0, r3, #104	@ 0x68
 80049aa:	f7ff ff8d 	bl	80048c8 <std>
 80049ae:	f104 00d0 	add.w	r0, r4, #208	@ 0xd0
 80049b2:	2202      	movs	r2, #2
 80049b4:	e8bd 4010 	ldmia.w	sp!, {r4, lr}
 80049b8:	2112      	movs	r1, #18
 80049ba:	f7ff bf85 	b.w	80048c8 <std>
 80049be:	bf00      	nop
 80049c0:	20000334 	.word	0x20000334
 80049c4:	08004935 	.word	0x08004935
 80049c8:	200001fc 	.word	0x200001fc

080049cc <__sfp_lock_acquire>:
 80049cc:	4801      	ldr	r0, [pc, #4]	@ (80049d4 <__sfp_lock_acquire+0x8>)
 80049ce:	f000 ba24 	b.w	8004e1a <__retarget_lock_acquire_recursive>
 80049d2:	bf00      	nop
 80049d4:	2000033d 	.word	0x2000033d

080049d8 <__sfp_lock_release>:
 80049d8:	4801      	ldr	r0, [pc, #4]	@ (80049e0 <__sfp_lock_release+0x8>)
 80049da:	f000 ba1f 	b.w	8004e1c <__retarget_lock_release_recursive>
 80049de:	bf00      	nop
 80049e0:	2000033d 	.word	0x2000033d

080049e4 <__sinit>:
 80049e4:	b510      	push	{r4, lr}
 80049e6:	4604      	mov	r4, r0
 80049e8:	f7ff fff0 	bl	80049cc <__sfp_lock_acquire>
 80049ec:	6a23      	ldr	r3, [r4, #32]
 80049ee:	b11b      	cbz	r3, 80049f8 <__sinit+0x14>
 80049f0:	e8bd 4010 	ldmia.w	sp!, {r4, lr}
 80049f4:	f7ff bff0 	b.w	80049d8 <__sfp_lock_release>
 80049f8:	4b04      	ldr	r3, [pc, #16]	@ (8004a0c <__sinit+0x28>)
 80049fa:	6223      	str	r3, [r4, #32]
 80049fc:	4b04      	ldr	r3, [pc, #16]	@ (8004a10 <__sinit+0x2c>)
 80049fe:	681b      	ldr	r3, [r3, #0]
 8004a00:	2b00      	cmp	r3, #0
 8004a02:	d1f5      	bne.n	80049f0 <__sinit+0xc>
 8004a04:	f7ff ffc2 	bl	800498c <global_stdio_init.part.0>
 8004a08:	e7f2      	b.n	80049f0 <__sinit+0xc>
 8004a0a:	bf00      	nop
 8004a0c:	0800494d 	.word	0x0800494d
 8004a10:	20000334 	.word	0x20000334

08004a14 <_fwalk_sglue>:
 8004a14:	e92d 43f8 	stmdb	sp!, {r3, r4, r5, r6, r7, r8, r9, lr}
 8004a18:	4607      	mov	r7, r0
 8004a1a:	4688      	mov	r8, r1
 8004a1c:	4614      	mov	r4, r2
 8004a1e:	2600      	movs	r6, #0
 8004a20:	e9d4 9501 	ldrd	r9, r5, [r4, #4]
 8004a24:	f1b9 0901 	subs.w	r9, r9, #1
 8004a28:	d505      	bpl.n	8004a36 <_fwalk_sglue+0x22>
 8004a2a:	6824      	ldr	r4, [r4, #0]
 8004a2c:	2c00      	cmp	r4, #0
 8004a2e:	d1f7      	bne.n	8004a20 <_fwalk_sglue+0xc>
 8004a30:	4630      	mov	r0, r6
 8004a32:	e8bd 83f8 	ldmia.w	sp!, {r3, r4, r5, r6, r7, r8, r9, pc}
 8004a36:	89ab      	ldrh	r3, [r5, #12]
 8004a38:	2b01      	cmp	r3, #1
 8004a3a:	d907      	bls.n	8004a4c <_fwalk_sglue+0x38>
 8004a3c:	f9b5 300e 	ldrsh.w	r3, [r5, #14]
 8004a40:	3301      	adds	r3, #1
 8004a42:	d003      	beq.n	8004a4c <_fwalk_sglue+0x38>
 8004a44:	4629      	mov	r1, r5
 8004a46:	4638      	mov	r0, r7
 8004a48:	47c0      	blx	r8
 8004a4a:	4306      	orrs	r6, r0
 8004a4c:	3568      	adds	r5, #104	@ 0x68
 8004a4e:	e7e9      	b.n	8004a24 <_fwalk_sglue+0x10>

08004a50 <iprintf>:
 8004a50:	b40f      	push	{r0, r1, r2, r3}
 8004a52:	b507      	push	{r0, r1, r2, lr}
 8004a54:	4906      	ldr	r1, [pc, #24]	@ (8004a70 <iprintf+0x20>)
 8004a56:	ab04      	add	r3, sp, #16
 8004a58:	6808      	ldr	r0, [r1, #0]
 8004a5a:	f853 2b04 	ldr.w	r2, [r3], #4
 8004a5e:	6881      	ldr	r1, [r0, #8]
 8004a60:	9301      	str	r3, [sp, #4]
 8004a62:	f002 fd37 	bl	80074d4 <_vfiprintf_r>
 8004a66:	b003      	add	sp, #12
 8004a68:	f85d eb04 	ldr.w	lr, [sp], #4
 8004a6c:	b004      	add	sp, #16
 8004a6e:	4770      	bx	lr
 8004a70:	2000001c 	.word	0x2000001c

08004a74 <_puts_r>:
 8004a74:	6a03      	ldr	r3, [r0, #32]
 8004a76:	b570      	push	{r4, r5, r6, lr}
 8004a78:	6884      	ldr	r4, [r0, #8]
 8004a7a:	4605      	mov	r5, r0
 8004a7c:	460e      	mov	r6, r1
 8004a7e:	b90b      	cbnz	r3, 8004a84 <_puts_r+0x10>
 8004a80:	f7ff ffb0 	bl	80049e4 <__sinit>
 8004a84:	6e63      	ldr	r3, [r4, #100]	@ 0x64
 8004a86:	07db      	lsls	r3, r3, #31
 8004a88:	d405      	bmi.n	8004a96 <_puts_r+0x22>
 8004a8a:	89a3      	ldrh	r3, [r4, #12]
 8004a8c:	0598      	lsls	r0, r3, #22
 8004a8e:	d402      	bmi.n	8004a96 <_puts_r+0x22>
 8004a90:	6da0      	ldr	r0, [r4, #88]	@ 0x58
 8004a92:	f000 f9c2 	bl	8004e1a <__retarget_lock_acquire_recursive>
 8004a96:	89a3      	ldrh	r3, [r4, #12]
 8004a98:	0719      	lsls	r1, r3, #28
 8004a9a:	d502      	bpl.n	8004aa2 <_puts_r+0x2e>
 8004a9c:	6923      	ldr	r3, [r4, #16]
 8004a9e:	2b00      	cmp	r3, #0
 8004aa0:	d135      	bne.n	8004b0e <_puts_r+0x9a>
 8004aa2:	4621      	mov	r1, r4
 8004aa4:	4628      	mov	r0, r5
 8004aa6:	f000 f8e7 	bl	8004c78 <__swsetup_r>
 8004aaa:	b380      	cbz	r0, 8004b0e <_puts_r+0x9a>
 8004aac:	f04f 35ff 	mov.w	r5, #4294967295
 8004ab0:	6e63      	ldr	r3, [r4, #100]	@ 0x64
 8004ab2:	07da      	lsls	r2, r3, #31
 8004ab4:	d405      	bmi.n	8004ac2 <_puts_r+0x4e>
 8004ab6:	89a3      	ldrh	r3, [r4, #12]
 8004ab8:	059b      	lsls	r3, r3, #22
 8004aba:	d402      	bmi.n	8004ac2 <_puts_r+0x4e>
 8004abc:	6da0      	ldr	r0, [r4, #88]	@ 0x58
 8004abe:	f000 f9ad 	bl	8004e1c <__retarget_lock_release_recursive>
 8004ac2:	4628      	mov	r0, r5
 8004ac4:	bd70      	pop	{r4, r5, r6, pc}
 8004ac6:	2b00      	cmp	r3, #0
 8004ac8:	da04      	bge.n	8004ad4 <_puts_r+0x60>
 8004aca:	69a2      	ldr	r2, [r4, #24]
 8004acc:	4293      	cmp	r3, r2
 8004ace:	db17      	blt.n	8004b00 <_puts_r+0x8c>
 8004ad0:	290a      	cmp	r1, #10
 8004ad2:	d015      	beq.n	8004b00 <_puts_r+0x8c>
 8004ad4:	6823      	ldr	r3, [r4, #0]
 8004ad6:	1c5a      	adds	r2, r3, #1
 8004ad8:	6022      	str	r2, [r4, #0]
 8004ada:	7019      	strb	r1, [r3, #0]
 8004adc:	68a3      	ldr	r3, [r4, #8]
 8004ade:	f816 1f01 	ldrb.w	r1, [r6, #1]!
 8004ae2:	3b01      	subs	r3, #1
 8004ae4:	60a3      	str	r3, [r4, #8]
 8004ae6:	2900      	cmp	r1, #0
 8004ae8:	d1ed      	bne.n	8004ac6 <_puts_r+0x52>
 8004aea:	2b00      	cmp	r3, #0
 8004aec:	da11      	bge.n	8004b12 <_puts_r+0x9e>
 8004aee:	4622      	mov	r2, r4
 8004af0:	210a      	movs	r1, #10
 8004af2:	4628      	mov	r0, r5
 8004af4:	f000 f882 	bl	8004bfc <__swbuf_r>
 8004af8:	3001      	adds	r0, #1
 8004afa:	d0d7      	beq.n	8004aac <_puts_r+0x38>
 8004afc:	250a      	movs	r5, #10
 8004afe:	e7d7      	b.n	8004ab0 <_puts_r+0x3c>
 8004b00:	4622      	mov	r2, r4
 8004b02:	4628      	mov	r0, r5
 8004b04:	f000 f87a 	bl	8004bfc <__swbuf_r>
 8004b08:	3001      	adds	r0, #1
 8004b0a:	d1e7      	bne.n	8004adc <_puts_r+0x68>
 8004b0c:	e7ce      	b.n	8004aac <_puts_r+0x38>
 8004b0e:	3e01      	subs	r6, #1
 8004b10:	e7e4      	b.n	8004adc <_puts_r+0x68>
 8004b12:	6823      	ldr	r3, [r4, #0]
 8004b14:	1c5a      	adds	r2, r3, #1
 8004b16:	6022      	str	r2, [r4, #0]
 8004b18:	220a      	movs	r2, #10
 8004b1a:	701a      	strb	r2, [r3, #0]
 8004b1c:	e7ee      	b.n	8004afc <_puts_r+0x88>
	...

08004b20 <puts>:
 8004b20:	4b02      	ldr	r3, [pc, #8]	@ (8004b2c <puts+0xc>)
 8004b22:	4601      	mov	r1, r0
 8004b24:	6818      	ldr	r0, [r3, #0]
 8004b26:	f7ff bfa5 	b.w	8004a74 <_puts_r>
 8004b2a:	bf00      	nop
 8004b2c:	2000001c 	.word	0x2000001c

08004b30 <siprintf>:
 8004b30:	b40e      	push	{r1, r2, r3}
 8004b32:	b510      	push	{r4, lr}
 8004b34:	b09d      	sub	sp, #116	@ 0x74
 8004b36:	ab1f      	add	r3, sp, #124	@ 0x7c
 8004b38:	9002      	str	r0, [sp, #8]
 8004b3a:	9006      	str	r0, [sp, #24]
 8004b3c:	f06f 4100 	mvn.w	r1, #2147483648	@ 0x80000000
 8004b40:	480a      	ldr	r0, [pc, #40]	@ (8004b6c <siprintf+0x3c>)
 8004b42:	9107      	str	r1, [sp, #28]
 8004b44:	9104      	str	r1, [sp, #16]
 8004b46:	490a      	ldr	r1, [pc, #40]	@ (8004b70 <siprintf+0x40>)
 8004b48:	f853 2b04 	ldr.w	r2, [r3], #4
 8004b4c:	9105      	str	r1, [sp, #20]
 8004b4e:	2400      	movs	r4, #0
 8004b50:	a902      	add	r1, sp, #8
 8004b52:	6800      	ldr	r0, [r0, #0]
 8004b54:	9301      	str	r3, [sp, #4]
 8004b56:	941b      	str	r4, [sp, #108]	@ 0x6c
 8004b58:	f002 fb9a 	bl	8007290 <_svfiprintf_r>
 8004b5c:	9b02      	ldr	r3, [sp, #8]
 8004b5e:	701c      	strb	r4, [r3, #0]
 8004b60:	b01d      	add	sp, #116	@ 0x74
 8004b62:	e8bd 4010 	ldmia.w	sp!, {r4, lr}
 8004b66:	b003      	add	sp, #12
 8004b68:	4770      	bx	lr
 8004b6a:	bf00      	nop
 8004b6c:	2000001c 	.word	0x2000001c
 8004b70:	ffff0208 	.word	0xffff0208

08004b74 <__sread>:
 8004b74:	b510      	push	{r4, lr}
 8004b76:	460c      	mov	r4, r1
 8004b78:	f9b1 100e 	ldrsh.w	r1, [r1, #14]
 8004b7c:	f000 f8fe 	bl	8004d7c <_read_r>
 8004b80:	2800      	cmp	r0, #0
 8004b82:	bfab      	itete	ge
 8004b84:	6d63      	ldrge	r3, [r4, #84]	@ 0x54
 8004b86:	89a3      	ldrhlt	r3, [r4, #12]
 8004b88:	181b      	addge	r3, r3, r0
 8004b8a:	f423 5380 	biclt.w	r3, r3, #4096	@ 0x1000
 8004b8e:	bfac      	ite	ge
 8004b90:	6563      	strge	r3, [r4, #84]	@ 0x54
 8004b92:	81a3      	strhlt	r3, [r4, #12]
 8004b94:	bd10      	pop	{r4, pc}

08004b96 <__swrite>:
 8004b96:	e92d 41f0 	stmdb	sp!, {r4, r5, r6, r7, r8, lr}
 8004b9a:	461f      	mov	r7, r3
 8004b9c:	898b      	ldrh	r3, [r1, #12]
 8004b9e:	05db      	lsls	r3, r3, #23
 8004ba0:	4605      	mov	r5, r0
 8004ba2:	460c      	mov	r4, r1
 8004ba4:	4616      	mov	r6, r2
 8004ba6:	d505      	bpl.n	8004bb4 <__swrite+0x1e>
 8004ba8:	f9b1 100e 	ldrsh.w	r1, [r1, #14]
 8004bac:	2302      	movs	r3, #2
 8004bae:	2200      	movs	r2, #0
 8004bb0:	f000 f8d2 	bl	8004d58 <_lseek_r>
 8004bb4:	89a3      	ldrh	r3, [r4, #12]
 8004bb6:	f9b4 100e 	ldrsh.w	r1, [r4, #14]
 8004bba:	f423 5380 	bic.w	r3, r3, #4096	@ 0x1000
 8004bbe:	81a3      	strh	r3, [r4, #12]
 8004bc0:	4632      	mov	r2, r6
 8004bc2:	463b      	mov	r3, r7
 8004bc4:	4628      	mov	r0, r5
 8004bc6:	e8bd 41f0 	ldmia.w	sp!, {r4, r5, r6, r7, r8, lr}
 8004bca:	f000 b8e9 	b.w	8004da0 <_write_r>

08004bce <__sseek>:
 8004bce:	b510      	push	{r4, lr}
 8004bd0:	460c      	mov	r4, r1
 8004bd2:	f9b1 100e 	ldrsh.w	r1, [r1, #14]
 8004bd6:	f000 f8bf 	bl	8004d58 <_lseek_r>
 8004bda:	f9b4 300c 	ldrsh.w	r3, [r4, #12]
 8004bde:	1c42      	adds	r2, r0, #1
 8004be0:	bf0b      	itete	eq
 8004be2:	f423 5380 	biceq.w	r3, r3, #4096	@ 0x1000
 8004be6:	f443 5380 	orrne.w	r3, r3, #4096	@ 0x1000
 8004bea:	81a3      	strheq	r3, [r4, #12]
 8004bec:	81a3      	strhne	r3, [r4, #12]
 8004bee:	bf18      	it	ne
 8004bf0:	6560      	strne	r0, [r4, #84]	@ 0x54
 8004bf2:	bd10      	pop	{r4, pc}

08004bf4 <__sclose>:
 8004bf4:	f9b1 100e 	ldrsh.w	r1, [r1, #14]
 8004bf8:	f000 b89e 	b.w	8004d38 <_close_r>

08004bfc <__swbuf_r>:
 8004bfc:	b5f8      	push	{r3, r4, r5, r6, r7, lr}
 8004bfe:	460e      	mov	r6, r1
 8004c00:	4614      	mov	r4, r2
 8004c02:	4605      	mov	r5, r0
 8004c04:	b118      	cbz	r0, 8004c0e <__swbuf_r+0x12>
 8004c06:	6a03      	ldr	r3, [r0, #32]
 8004c08:	b90b      	cbnz	r3, 8004c0e <__swbuf_r+0x12>
 8004c0a:	f7ff feeb 	bl	80049e4 <__sinit>
 8004c0e:	69a3      	ldr	r3, [r4, #24]
 8004c10:	60a3      	str	r3, [r4, #8]
 8004c12:	89a3      	ldrh	r3, [r4, #12]
 8004c14:	071a      	lsls	r2, r3, #28
 8004c16:	d501      	bpl.n	8004c1c <__swbuf_r+0x20>
 8004c18:	6923      	ldr	r3, [r4, #16]
 8004c1a:	b943      	cbnz	r3, 8004c2e <__swbuf_r+0x32>
 8004c1c:	4621      	mov	r1, r4
 8004c1e:	4628      	mov	r0, r5
 8004c20:	f000 f82a 	bl	8004c78 <__swsetup_r>
 8004c24:	b118      	cbz	r0, 8004c2e <__swbuf_r+0x32>
 8004c26:	f04f 37ff 	mov.w	r7, #4294967295
 8004c2a:	4638      	mov	r0, r7
 8004c2c:	bdf8      	pop	{r3, r4, r5, r6, r7, pc}
 8004c2e:	6823      	ldr	r3, [r4, #0]
 8004c30:	6922      	ldr	r2, [r4, #16]
 8004c32:	1a98      	subs	r0, r3, r2
 8004c34:	6963      	ldr	r3, [r4, #20]
 8004c36:	b2f6      	uxtb	r6, r6
 8004c38:	4283      	cmp	r3, r0
 8004c3a:	4637      	mov	r7, r6
 8004c3c:	dc05      	bgt.n	8004c4a <__swbuf_r+0x4e>
 8004c3e:	4621      	mov	r1, r4
 8004c40:	4628      	mov	r0, r5
 8004c42:	f002 fddd 	bl	8007800 <_fflush_r>
 8004c46:	2800      	cmp	r0, #0
 8004c48:	d1ed      	bne.n	8004c26 <__swbuf_r+0x2a>
 8004c4a:	68a3      	ldr	r3, [r4, #8]
 8004c4c:	3b01      	subs	r3, #1
 8004c4e:	60a3      	str	r3, [r4, #8]
 8004c50:	6823      	ldr	r3, [r4, #0]
 8004c52:	1c5a      	adds	r2, r3, #1
 8004c54:	6022      	str	r2, [r4, #0]
 8004c56:	701e      	strb	r6, [r3, #0]
 8004c58:	6962      	ldr	r2, [r4, #20]
 8004c5a:	1c43      	adds	r3, r0, #1
 8004c5c:	429a      	cmp	r2, r3
 8004c5e:	d004      	beq.n	8004c6a <__swbuf_r+0x6e>
 8004c60:	89a3      	ldrh	r3, [r4, #12]
 8004c62:	07db      	lsls	r3, r3, #31
 8004c64:	d5e1      	bpl.n	8004c2a <__swbuf_r+0x2e>
 8004c66:	2e0a      	cmp	r6, #10
 8004c68:	d1df      	bne.n	8004c2a <__swbuf_r+0x2e>
 8004c6a:	4621      	mov	r1, r4
 8004c6c:	4628      	mov	r0, r5
 8004c6e:	f002 fdc7 	bl	8007800 <_fflush_r>
 8004c72:	2800      	cmp	r0, #0
 8004c74:	d0d9      	beq.n	8004c2a <__swbuf_r+0x2e>
 8004c76:	e7d6      	b.n	8004c26 <__swbuf_r+0x2a>

08004c78 <__swsetup_r>:
 8004c78:	b538      	push	{r3, r4, r5, lr}
 8004c7a:	4b28      	ldr	r3, [pc, #160]	@ (8004d1c <__swsetup_r+0xa4>)
 8004c7c:	4605      	mov	r5, r0
 8004c7e:	6818      	ldr	r0, [r3, #0]
 8004c80:	460c      	mov	r4, r1
 8004c82:	b118      	cbz	r0, 8004c8c <__swsetup_r+0x14>
 8004c84:	6a03      	ldr	r3, [r0, #32]
 8004c86:	b90b      	cbnz	r3, 8004c8c <__swsetup_r+0x14>
 8004c88:	f7ff feac 	bl	80049e4 <__sinit>
 8004c8c:	f9b4 300c 	ldrsh.w	r3, [r4, #12]
 8004c90:	071a      	lsls	r2, r3, #28
 8004c92:	d421      	bmi.n	8004cd8 <__swsetup_r+0x60>
 8004c94:	06d8      	lsls	r0, r3, #27
 8004c96:	d407      	bmi.n	8004ca8 <__swsetup_r+0x30>
 8004c98:	2209      	movs	r2, #9
 8004c9a:	602a      	str	r2, [r5, #0]
 8004c9c:	f043 0340 	orr.w	r3, r3, #64	@ 0x40
 8004ca0:	81a3      	strh	r3, [r4, #12]
 8004ca2:	f04f 30ff 	mov.w	r0, #4294967295
 8004ca6:	e030      	b.n	8004d0a <__swsetup_r+0x92>
 8004ca8:	0759      	lsls	r1, r3, #29
 8004caa:	d512      	bpl.n	8004cd2 <__swsetup_r+0x5a>
 8004cac:	6b61      	ldr	r1, [r4, #52]	@ 0x34
 8004cae:	b141      	cbz	r1, 8004cc2 <__swsetup_r+0x4a>
 8004cb0:	f104 0344 	add.w	r3, r4, #68	@ 0x44
 8004cb4:	4299      	cmp	r1, r3
 8004cb6:	d002      	beq.n	8004cbe <__swsetup_r+0x46>
 8004cb8:	4628      	mov	r0, r5
 8004cba:	f000 fe97 	bl	80059ec <_free_r>
 8004cbe:	2300      	movs	r3, #0
 8004cc0:	6363      	str	r3, [r4, #52]	@ 0x34
 8004cc2:	2200      	movs	r2, #0
 8004cc4:	f9b4 300c 	ldrsh.w	r3, [r4, #12]
 8004cc8:	6062      	str	r2, [r4, #4]
 8004cca:	6922      	ldr	r2, [r4, #16]
 8004ccc:	6022      	str	r2, [r4, #0]
 8004cce:	f023 0324 	bic.w	r3, r3, #36	@ 0x24
 8004cd2:	f043 0308 	orr.w	r3, r3, #8
 8004cd6:	81a3      	strh	r3, [r4, #12]
 8004cd8:	6922      	ldr	r2, [r4, #16]
 8004cda:	b93a      	cbnz	r2, 8004cec <__swsetup_r+0x74>
 8004cdc:	059a      	lsls	r2, r3, #22
 8004cde:	d501      	bpl.n	8004ce4 <__swsetup_r+0x6c>
 8004ce0:	0618      	lsls	r0, r3, #24
 8004ce2:	d503      	bpl.n	8004cec <__swsetup_r+0x74>
 8004ce4:	4621      	mov	r1, r4
 8004ce6:	4628      	mov	r0, r5
 8004ce8:	f002 fdd6 	bl	8007898 <__smakebuf_r>
 8004cec:	f9b4 300c 	ldrsh.w	r3, [r4, #12]
 8004cf0:	f013 0201 	ands.w	r2, r3, #1
 8004cf4:	d00a      	beq.n	8004d0c <__swsetup_r+0x94>
 8004cf6:	2200      	movs	r2, #0
 8004cf8:	60a2      	str	r2, [r4, #8]
 8004cfa:	6962      	ldr	r2, [r4, #20]
 8004cfc:	4252      	negs	r2, r2
 8004cfe:	61a2      	str	r2, [r4, #24]
 8004d00:	6922      	ldr	r2, [r4, #16]
 8004d02:	b942      	cbnz	r2, 8004d16 <__swsetup_r+0x9e>
 8004d04:	f013 0080 	ands.w	r0, r3, #128	@ 0x80
 8004d08:	d1c8      	bne.n	8004c9c <__swsetup_r+0x24>
 8004d0a:	bd38      	pop	{r3, r4, r5, pc}
 8004d0c:	0799      	lsls	r1, r3, #30
 8004d0e:	bf58      	it	pl
 8004d10:	6962      	ldrpl	r2, [r4, #20]
 8004d12:	60a2      	str	r2, [r4, #8]
 8004d14:	e7f4      	b.n	8004d00 <__swsetup_r+0x88>
 8004d16:	2000      	movs	r0, #0
 8004d18:	e7f7      	b.n	8004d0a <__swsetup_r+0x92>
 8004d1a:	bf00      	nop
 8004d1c:	2000001c 	.word	0x2000001c

08004d20 <memset>:
 8004d20:	4402      	add	r2, r0
 8004d22:	4603      	mov	r3, r0
 8004d24:	4293      	cmp	r3, r2
 8004d26:	d100      	bne.n	8004d2a <memset+0xa>
 8004d28:	4770      	bx	lr
 8004d2a:	f803 1b01 	strb.w	r1, [r3], #1
 8004d2e:	e7f9      	b.n	8004d24 <memset+0x4>

08004d30 <_localeconv_r>:
 8004d30:	4800      	ldr	r0, [pc, #0]	@ (8004d34 <_localeconv_r+0x4>)
 8004d32:	4770      	bx	lr
 8004d34:	2000015c 	.word	0x2000015c

08004d38 <_close_r>:
 8004d38:	b538      	push	{r3, r4, r5, lr}
 8004d3a:	4d06      	ldr	r5, [pc, #24]	@ (8004d54 <_close_r+0x1c>)
 8004d3c:	2300      	movs	r3, #0
 8004d3e:	4604      	mov	r4, r0
 8004d40:	4608      	mov	r0, r1
 8004d42:	602b      	str	r3, [r5, #0]
 8004d44:	f7fe fe44 	bl	80039d0 <_close>
 8004d48:	1c43      	adds	r3, r0, #1
 8004d4a:	d102      	bne.n	8004d52 <_close_r+0x1a>
 8004d4c:	682b      	ldr	r3, [r5, #0]
 8004d4e:	b103      	cbz	r3, 8004d52 <_close_r+0x1a>
 8004d50:	6023      	str	r3, [r4, #0]
 8004d52:	bd38      	pop	{r3, r4, r5, pc}
 8004d54:	20000338 	.word	0x20000338

08004d58 <_lseek_r>:
 8004d58:	b538      	push	{r3, r4, r5, lr}
 8004d5a:	4d07      	ldr	r5, [pc, #28]	@ (8004d78 <_lseek_r+0x20>)
 8004d5c:	4604      	mov	r4, r0
 8004d5e:	4608      	mov	r0, r1
 8004d60:	4611      	mov	r1, r2
 8004d62:	2200      	movs	r2, #0
 8004d64:	602a      	str	r2, [r5, #0]
 8004d66:	461a      	mov	r2, r3
 8004d68:	f7fe fe3e 	bl	80039e8 <_lseek>
 8004d6c:	1c43      	adds	r3, r0, #1
 8004d6e:	d102      	bne.n	8004d76 <_lseek_r+0x1e>
 8004d70:	682b      	ldr	r3, [r5, #0]
 8004d72:	b103      	cbz	r3, 8004d76 <_lseek_r+0x1e>
 8004d74:	6023      	str	r3, [r4, #0]
 8004d76:	bd38      	pop	{r3, r4, r5, pc}
 8004d78:	20000338 	.word	0x20000338

08004d7c <_read_r>:
 8004d7c:	b538      	push	{r3, r4, r5, lr}
 8004d7e:	4d07      	ldr	r5, [pc, #28]	@ (8004d9c <_read_r+0x20>)
 8004d80:	4604      	mov	r4, r0
 8004d82:	4608      	mov	r0, r1
 8004d84:	4611      	mov	r1, r2
 8004d86:	2200      	movs	r2, #0
 8004d88:	602a      	str	r2, [r5, #0]
 8004d8a:	461a      	mov	r2, r3
 8004d8c:	f7fe fe04 	bl	8003998 <_read>
 8004d90:	1c43      	adds	r3, r0, #1
 8004d92:	d102      	bne.n	8004d9a <_read_r+0x1e>
 8004d94:	682b      	ldr	r3, [r5, #0]
 8004d96:	b103      	cbz	r3, 8004d9a <_read_r+0x1e>
 8004d98:	6023      	str	r3, [r4, #0]
 8004d9a:	bd38      	pop	{r3, r4, r5, pc}
 8004d9c:	20000338 	.word	0x20000338

08004da0 <_write_r>:
 8004da0:	b538      	push	{r3, r4, r5, lr}
 8004da2:	4d07      	ldr	r5, [pc, #28]	@ (8004dc0 <_write_r+0x20>)
 8004da4:	4604      	mov	r4, r0
 8004da6:	4608      	mov	r0, r1
 8004da8:	4611      	mov	r1, r2
 8004daa:	2200      	movs	r2, #0
 8004dac:	602a      	str	r2, [r5, #0]
 8004dae:	461a      	mov	r2, r3
 8004db0:	f7fe fe00 	bl	80039b4 <_write>
 8004db4:	1c43      	adds	r3, r0, #1
 8004db6:	d102      	bne.n	8004dbe <_write_r+0x1e>
 8004db8:	682b      	ldr	r3, [r5, #0]
 8004dba:	b103      	cbz	r3, 8004dbe <_write_r+0x1e>
 8004dbc:	6023      	str	r3, [r4, #0]
 8004dbe:	bd38      	pop	{r3, r4, r5, pc}
 8004dc0:	20000338 	.word	0x20000338

08004dc4 <__errno>:
 8004dc4:	4b01      	ldr	r3, [pc, #4]	@ (8004dcc <__errno+0x8>)
 8004dc6:	6818      	ldr	r0, [r3, #0]
 8004dc8:	4770      	bx	lr
 8004dca:	bf00      	nop
 8004dcc:	2000001c 	.word	0x2000001c

08004dd0 <__libc_init_array>:
 8004dd0:	b570      	push	{r4, r5, r6, lr}
 8004dd2:	4b0d      	ldr	r3, [pc, #52]	@ (8004e08 <__libc_init_array+0x38>)
 8004dd4:	4d0d      	ldr	r5, [pc, #52]	@ (8004e0c <__libc_init_array+0x3c>)
 8004dd6:	1b5b      	subs	r3, r3, r5
 8004dd8:	109c      	asrs	r4, r3, #2
 8004dda:	2600      	movs	r6, #0
 8004ddc:	42a6      	cmp	r6, r4
 8004dde:	d109      	bne.n	8004df4 <__libc_init_array+0x24>
 8004de0:	f003 fa1a 	bl	8008218 <_init>
 8004de4:	4d0a      	ldr	r5, [pc, #40]	@ (8004e10 <__libc_init_array+0x40>)
 8004de6:	4b0b      	ldr	r3, [pc, #44]	@ (8004e14 <__libc_init_array+0x44>)
 8004de8:	1b5b      	subs	r3, r3, r5
 8004dea:	109c      	asrs	r4, r3, #2
 8004dec:	2600      	movs	r6, #0
 8004dee:	42a6      	cmp	r6, r4
 8004df0:	d105      	bne.n	8004dfe <__libc_init_array+0x2e>
 8004df2:	bd70      	pop	{r4, r5, r6, pc}
 8004df4:	f855 3b04 	ldr.w	r3, [r5], #4
 8004df8:	4798      	blx	r3
 8004dfa:	3601      	adds	r6, #1
 8004dfc:	e7ee      	b.n	8004ddc <__libc_init_array+0xc>
 8004dfe:	f855 3b04 	ldr.w	r3, [r5], #4
 8004e02:	4798      	blx	r3
 8004e04:	3601      	adds	r6, #1
 8004e06:	e7f2      	b.n	8004dee <__libc_init_array+0x1e>
 8004e08:	08008924 	.word	0x08008924
 8004e0c:	08008924 	.word	0x08008924
 8004e10:	08008924 	.word	0x08008924
 8004e14:	08008928 	.word	0x08008928

08004e18 <__retarget_lock_init_recursive>:
 8004e18:	4770      	bx	lr

08004e1a <__retarget_lock_acquire_recursive>:
 8004e1a:	4770      	bx	lr

08004e1c <__retarget_lock_release_recursive>:
 8004e1c:	4770      	bx	lr

08004e1e <memcpy>:
 8004e1e:	440a      	add	r2, r1
 8004e20:	4291      	cmp	r1, r2
 8004e22:	f100 33ff 	add.w	r3, r0, #4294967295
 8004e26:	d100      	bne.n	8004e2a <memcpy+0xc>
 8004e28:	4770      	bx	lr
 8004e2a:	b510      	push	{r4, lr}
 8004e2c:	f811 4b01 	ldrb.w	r4, [r1], #1
 8004e30:	f803 4f01 	strb.w	r4, [r3, #1]!
 8004e34:	4291      	cmp	r1, r2
 8004e36:	d1f9      	bne.n	8004e2c <memcpy+0xe>
 8004e38:	bd10      	pop	{r4, pc}
	...

08004e3c <nanf>:
 8004e3c:	ed9f 0a01 	vldr	s0, [pc, #4]	@ 8004e44 <nanf+0x8>
 8004e40:	4770      	bx	lr
 8004e42:	bf00      	nop
 8004e44:	7fc00000 	.word	0x7fc00000

08004e48 <quorem>:
 8004e48:	e92d 4ff7 	stmdb	sp!, {r0, r1, r2, r4, r5, r6, r7, r8, r9, sl, fp, lr}
 8004e4c:	6903      	ldr	r3, [r0, #16]
 8004e4e:	690c      	ldr	r4, [r1, #16]
 8004e50:	42a3      	cmp	r3, r4
 8004e52:	4607      	mov	r7, r0
 8004e54:	db7e      	blt.n	8004f54 <quorem+0x10c>
 8004e56:	3c01      	subs	r4, #1
 8004e58:	f101 0814 	add.w	r8, r1, #20
 8004e5c:	00a3      	lsls	r3, r4, #2
 8004e5e:	f100 0514 	add.w	r5, r0, #20
 8004e62:	9300      	str	r3, [sp, #0]
 8004e64:	eb05 0384 	add.w	r3, r5, r4, lsl #2
 8004e68:	9301      	str	r3, [sp, #4]
 8004e6a:	f858 3024 	ldr.w	r3, [r8, r4, lsl #2]
 8004e6e:	f855 2024 	ldr.w	r2, [r5, r4, lsl #2]
 8004e72:	3301      	adds	r3, #1
 8004e74:	429a      	cmp	r2, r3
 8004e76:	eb08 0984 	add.w	r9, r8, r4, lsl #2
 8004e7a:	fbb2 f6f3 	udiv	r6, r2, r3
 8004e7e:	d32e      	bcc.n	8004ede <quorem+0x96>
 8004e80:	f04f 0a00 	mov.w	sl, #0
 8004e84:	46c4      	mov	ip, r8
 8004e86:	46ae      	mov	lr, r5
 8004e88:	46d3      	mov	fp, sl
 8004e8a:	f85c 3b04 	ldr.w	r3, [ip], #4
 8004e8e:	b298      	uxth	r0, r3
 8004e90:	fb06 a000 	mla	r0, r6, r0, sl
 8004e94:	0c02      	lsrs	r2, r0, #16
 8004e96:	0c1b      	lsrs	r3, r3, #16
 8004e98:	fb06 2303 	mla	r3, r6, r3, r2
 8004e9c:	f8de 2000 	ldr.w	r2, [lr]
 8004ea0:	b280      	uxth	r0, r0
 8004ea2:	b292      	uxth	r2, r2
 8004ea4:	1a12      	subs	r2, r2, r0
 8004ea6:	445a      	add	r2, fp
 8004ea8:	f8de 0000 	ldr.w	r0, [lr]
 8004eac:	ea4f 4a13 	mov.w	sl, r3, lsr #16
 8004eb0:	b29b      	uxth	r3, r3
 8004eb2:	ebc3 4322 	rsb	r3, r3, r2, asr #16
 8004eb6:	eb03 4310 	add.w	r3, r3, r0, lsr #16
 8004eba:	b292      	uxth	r2, r2
 8004ebc:	ea42 4203 	orr.w	r2, r2, r3, lsl #16
 8004ec0:	45e1      	cmp	r9, ip
 8004ec2:	f84e 2b04 	str.w	r2, [lr], #4
 8004ec6:	ea4f 4b23 	mov.w	fp, r3, asr #16
 8004eca:	d2de      	bcs.n	8004e8a <quorem+0x42>
 8004ecc:	9b00      	ldr	r3, [sp, #0]
 8004ece:	58eb      	ldr	r3, [r5, r3]
 8004ed0:	b92b      	cbnz	r3, 8004ede <quorem+0x96>
 8004ed2:	9b01      	ldr	r3, [sp, #4]
 8004ed4:	3b04      	subs	r3, #4
 8004ed6:	429d      	cmp	r5, r3
 8004ed8:	461a      	mov	r2, r3
 8004eda:	d32f      	bcc.n	8004f3c <quorem+0xf4>
 8004edc:	613c      	str	r4, [r7, #16]
 8004ede:	4638      	mov	r0, r7
 8004ee0:	f001 f94a 	bl	8006178 <__mcmp>
 8004ee4:	2800      	cmp	r0, #0
 8004ee6:	db25      	blt.n	8004f34 <quorem+0xec>
 8004ee8:	4629      	mov	r1, r5
 8004eea:	2000      	movs	r0, #0
 8004eec:	f858 2b04 	ldr.w	r2, [r8], #4
 8004ef0:	f8d1 c000 	ldr.w	ip, [r1]
 8004ef4:	fa1f fe82 	uxth.w	lr, r2
 8004ef8:	fa1f f38c 	uxth.w	r3, ip
 8004efc:	eba3 030e 	sub.w	r3, r3, lr
 8004f00:	4403      	add	r3, r0
 8004f02:	0c12      	lsrs	r2, r2, #16
 8004f04:	ebc2 4223 	rsb	r2, r2, r3, asr #16
 8004f08:	eb02 421c 	add.w	r2, r2, ip, lsr #16
 8004f0c:	b29b      	uxth	r3, r3
 8004f0e:	ea43 4302 	orr.w	r3, r3, r2, lsl #16
 8004f12:	45c1      	cmp	r9, r8
 8004f14:	f841 3b04 	str.w	r3, [r1], #4
 8004f18:	ea4f 4022 	mov.w	r0, r2, asr #16
 8004f1c:	d2e6      	bcs.n	8004eec <quorem+0xa4>
 8004f1e:	f855 2024 	ldr.w	r2, [r5, r4, lsl #2]
 8004f22:	eb05 0384 	add.w	r3, r5, r4, lsl #2
 8004f26:	b922      	cbnz	r2, 8004f32 <quorem+0xea>
 8004f28:	3b04      	subs	r3, #4
 8004f2a:	429d      	cmp	r5, r3
 8004f2c:	461a      	mov	r2, r3
 8004f2e:	d30b      	bcc.n	8004f48 <quorem+0x100>
 8004f30:	613c      	str	r4, [r7, #16]
 8004f32:	3601      	adds	r6, #1
 8004f34:	4630      	mov	r0, r6
 8004f36:	b003      	add	sp, #12
 8004f38:	e8bd 8ff0 	ldmia.w	sp!, {r4, r5, r6, r7, r8, r9, sl, fp, pc}
 8004f3c:	6812      	ldr	r2, [r2, #0]
 8004f3e:	3b04      	subs	r3, #4
 8004f40:	2a00      	cmp	r2, #0
 8004f42:	d1cb      	bne.n	8004edc <quorem+0x94>
 8004f44:	3c01      	subs	r4, #1
 8004f46:	e7c6      	b.n	8004ed6 <quorem+0x8e>
 8004f48:	6812      	ldr	r2, [r2, #0]
 8004f4a:	3b04      	subs	r3, #4
 8004f4c:	2a00      	cmp	r2, #0
 8004f4e:	d1ef      	bne.n	8004f30 <quorem+0xe8>
 8004f50:	3c01      	subs	r4, #1
 8004f52:	e7ea      	b.n	8004f2a <quorem+0xe2>
 8004f54:	2000      	movs	r0, #0
 8004f56:	e7ee      	b.n	8004f36 <quorem+0xee>

08004f58 <_dtoa_r>:
 8004f58:	e92d 4ff0 	stmdb	sp!, {r4, r5, r6, r7, r8, r9, sl, fp, lr}
 8004f5c:	ed2d 8b02 	vpush	{d8}
 8004f60:	b091      	sub	sp, #68	@ 0x44
 8004f62:	ed8d 0b08 	vstr	d0, [sp, #32]
 8004f66:	9207      	str	r2, [sp, #28]
 8004f68:	69c2      	ldr	r2, [r0, #28]
 8004f6a:	9e1c      	ldr	r6, [sp, #112]	@ 0x70
 8004f6c:	9105      	str	r1, [sp, #20]
 8004f6e:	ec55 4b10 	vmov	r4, r5, d0
 8004f72:	4681      	mov	r9, r0
 8004f74:	930d      	str	r3, [sp, #52]	@ 0x34
 8004f76:	b982      	cbnz	r2, 8004f9a <_dtoa_r+0x42>
 8004f78:	2010      	movs	r0, #16
 8004f7a:	f000 fd81 	bl	8005a80 <malloc>
 8004f7e:	4602      	mov	r2, r0
 8004f80:	f8c9 001c 	str.w	r0, [r9, #28]
 8004f84:	b920      	cbnz	r0, 8004f90 <_dtoa_r+0x38>
 8004f86:	4b9e      	ldr	r3, [pc, #632]	@ (8005200 <_dtoa_r+0x2a8>)
 8004f88:	21ef      	movs	r1, #239	@ 0xef
 8004f8a:	489e      	ldr	r0, [pc, #632]	@ (8005204 <_dtoa_r+0x2ac>)
 8004f8c:	f002 fd24 	bl	80079d8 <__assert_func>
 8004f90:	2300      	movs	r3, #0
 8004f92:	e9c0 3301 	strd	r3, r3, [r0, #4]
 8004f96:	6003      	str	r3, [r0, #0]
 8004f98:	60c3      	str	r3, [r0, #12]
 8004f9a:	6811      	ldr	r1, [r2, #0]
 8004f9c:	b159      	cbz	r1, 8004fb6 <_dtoa_r+0x5e>
 8004f9e:	6852      	ldr	r2, [r2, #4]
 8004fa0:	604a      	str	r2, [r1, #4]
 8004fa2:	2301      	movs	r3, #1
 8004fa4:	4093      	lsls	r3, r2
 8004fa6:	608b      	str	r3, [r1, #8]
 8004fa8:	4648      	mov	r0, r9
 8004faa:	f000 fe5d 	bl	8005c68 <_Bfree>
 8004fae:	f8d9 301c 	ldr.w	r3, [r9, #28]
 8004fb2:	2200      	movs	r2, #0
 8004fb4:	601a      	str	r2, [r3, #0]
 8004fb6:	1e2f      	subs	r7, r5, #0
 8004fb8:	bfb5      	itete	lt
 8004fba:	2301      	movlt	r3, #1
 8004fbc:	2300      	movge	r3, #0
 8004fbe:	6033      	strlt	r3, [r6, #0]
 8004fc0:	6033      	strge	r3, [r6, #0]
 8004fc2:	4b91      	ldr	r3, [pc, #580]	@ (8005208 <_dtoa_r+0x2b0>)
 8004fc4:	bfbc      	itt	lt
 8004fc6:	f027 4700 	biclt.w	r7, r7, #2147483648	@ 0x80000000
 8004fca:	9709      	strlt	r7, [sp, #36]	@ 0x24
 8004fcc:	43bb      	bics	r3, r7
 8004fce:	d110      	bne.n	8004ff2 <_dtoa_r+0x9a>
 8004fd0:	9a0d      	ldr	r2, [sp, #52]	@ 0x34
 8004fd2:	f3c7 0713 	ubfx	r7, r7, #0, #20
 8004fd6:	f242 730f 	movw	r3, #9999	@ 0x270f
 8004fda:	4327      	orrs	r7, r4
 8004fdc:	6013      	str	r3, [r2, #0]
 8004fde:	f000 84d4 	beq.w	800598a <_dtoa_r+0xa32>
 8004fe2:	9b1d      	ldr	r3, [sp, #116]	@ 0x74
 8004fe4:	4f89      	ldr	r7, [pc, #548]	@ (800520c <_dtoa_r+0x2b4>)
 8004fe6:	2b00      	cmp	r3, #0
 8004fe8:	f000 84d6 	beq.w	8005998 <_dtoa_r+0xa40>
 8004fec:	1cfb      	adds	r3, r7, #3
 8004fee:	f000 bcd1 	b.w	8005994 <_dtoa_r+0xa3c>
 8004ff2:	ed9d 8b08 	vldr	d8, [sp, #32]
 8004ff6:	eeb5 8b40 	vcmp.f64	d8, #0.0
 8004ffa:	eef1 fa10 	vmrs	APSR_nzcv, fpscr
 8004ffe:	d10a      	bne.n	8005016 <_dtoa_r+0xbe>
 8005000:	9a0d      	ldr	r2, [sp, #52]	@ 0x34
 8005002:	2301      	movs	r3, #1
 8005004:	6013      	str	r3, [r2, #0]
 8005006:	9b1d      	ldr	r3, [sp, #116]	@ 0x74
 8005008:	b113      	cbz	r3, 8005010 <_dtoa_r+0xb8>
 800500a:	9a1d      	ldr	r2, [sp, #116]	@ 0x74
 800500c:	4b80      	ldr	r3, [pc, #512]	@ (8005210 <_dtoa_r+0x2b8>)
 800500e:	6013      	str	r3, [r2, #0]
 8005010:	4f80      	ldr	r7, [pc, #512]	@ (8005214 <_dtoa_r+0x2bc>)
 8005012:	f000 bcc1 	b.w	8005998 <_dtoa_r+0xa40>
 8005016:	aa0e      	add	r2, sp, #56	@ 0x38
 8005018:	a90f      	add	r1, sp, #60	@ 0x3c
 800501a:	4648      	mov	r0, r9
 800501c:	eeb0 0b48 	vmov.f64	d0, d8
 8005020:	f001 f9ce 	bl	80063c0 <__d2b>
 8005024:	0d3b      	lsrs	r3, r7, #20
 8005026:	9a0e      	ldr	r2, [sp, #56]	@ 0x38
 8005028:	9001      	str	r0, [sp, #4]
 800502a:	d046      	beq.n	80050ba <_dtoa_r+0x162>
 800502c:	eeb0 7b48 	vmov.f64	d7, d8
 8005030:	ee18 1a90 	vmov	r1, s17
 8005034:	f3c1 0113 	ubfx	r1, r1, #0, #20
 8005038:	f041 517f 	orr.w	r1, r1, #1069547520	@ 0x3fc00000
 800503c:	f441 1140 	orr.w	r1, r1, #3145728	@ 0x300000
 8005040:	f2a3 33ff 	subw	r3, r3, #1023	@ 0x3ff
 8005044:	2000      	movs	r0, #0
 8005046:	ee07 1a90 	vmov	s15, r1
 800504a:	eeb7 6b08 	vmov.f64	d6, #120	@ 0x3fc00000  1.5
 800504e:	ed9f 5b66 	vldr	d5, [pc, #408]	@ 80051e8 <_dtoa_r+0x290>
 8005052:	ee37 7b46 	vsub.f64	d7, d7, d6
 8005056:	ed9f 6b66 	vldr	d6, [pc, #408]	@ 80051f0 <_dtoa_r+0x298>
 800505a:	eea7 6b05 	vfma.f64	d6, d7, d5
 800505e:	ed9f 5b66 	vldr	d5, [pc, #408]	@ 80051f8 <_dtoa_r+0x2a0>
 8005062:	ee07 3a90 	vmov	s15, r3
 8005066:	eeb8 4be7 	vcvt.f64.s32	d4, s15
 800506a:	eeb0 7b46 	vmov.f64	d7, d6
 800506e:	eea4 7b05 	vfma.f64	d7, d4, d5
 8005072:	eefd 6bc7 	vcvt.s32.f64	s13, d7
 8005076:	eeb5 7bc0 	vcmpe.f64	d7, #0.0
 800507a:	eef1 fa10 	vmrs	APSR_nzcv, fpscr
 800507e:	ee16 8a90 	vmov	r8, s13
 8005082:	900b      	str	r0, [sp, #44]	@ 0x2c
 8005084:	d508      	bpl.n	8005098 <_dtoa_r+0x140>
 8005086:	eeb8 6be6 	vcvt.f64.s32	d6, s13
 800508a:	eeb4 6b47 	vcmp.f64	d6, d7
 800508e:	eef1 fa10 	vmrs	APSR_nzcv, fpscr
 8005092:	bf18      	it	ne
 8005094:	f108 38ff 	addne.w	r8, r8, #4294967295
 8005098:	f1b8 0f16 	cmp.w	r8, #22
 800509c:	d82b      	bhi.n	80050f6 <_dtoa_r+0x19e>
 800509e:	495e      	ldr	r1, [pc, #376]	@ (8005218 <_dtoa_r+0x2c0>)
 80050a0:	eb01 01c8 	add.w	r1, r1, r8, lsl #3
 80050a4:	ed91 7b00 	vldr	d7, [r1]
 80050a8:	eeb4 8bc7 	vcmpe.f64	d8, d7
 80050ac:	eef1 fa10 	vmrs	APSR_nzcv, fpscr
 80050b0:	d501      	bpl.n	80050b6 <_dtoa_r+0x15e>
 80050b2:	f108 38ff 	add.w	r8, r8, #4294967295
 80050b6:	2100      	movs	r1, #0
 80050b8:	e01e      	b.n	80050f8 <_dtoa_r+0x1a0>
 80050ba:	9b0f      	ldr	r3, [sp, #60]	@ 0x3c
 80050bc:	4413      	add	r3, r2
 80050be:	f203 4132 	addw	r1, r3, #1074	@ 0x432
 80050c2:	2920      	cmp	r1, #32
 80050c4:	bfc1      	itttt	gt
 80050c6:	f1c1 0140 	rsbgt	r1, r1, #64	@ 0x40
 80050ca:	408f      	lslgt	r7, r1
 80050cc:	f203 4112 	addwgt	r1, r3, #1042	@ 0x412
 80050d0:	fa24 f101 	lsrgt.w	r1, r4, r1
 80050d4:	bfd6      	itet	le
 80050d6:	f1c1 0120 	rsble	r1, r1, #32
 80050da:	4339      	orrgt	r1, r7
 80050dc:	fa04 f101 	lslle.w	r1, r4, r1
 80050e0:	ee07 1a90 	vmov	s15, r1
 80050e4:	eeb8 7b67 	vcvt.f64.u32	d7, s15
 80050e8:	3b01      	subs	r3, #1
 80050ea:	ee17 1a90 	vmov	r1, s15
 80050ee:	2001      	movs	r0, #1
 80050f0:	f1a1 71f8 	sub.w	r1, r1, #32505856	@ 0x1f00000
 80050f4:	e7a7      	b.n	8005046 <_dtoa_r+0xee>
 80050f6:	2101      	movs	r1, #1
 80050f8:	1ad2      	subs	r2, r2, r3
 80050fa:	1e53      	subs	r3, r2, #1
 80050fc:	9304      	str	r3, [sp, #16]
 80050fe:	bf45      	ittet	mi
 8005100:	f1c2 0301 	rsbmi	r3, r2, #1
 8005104:	9302      	strmi	r3, [sp, #8]
 8005106:	2300      	movpl	r3, #0
 8005108:	2300      	movmi	r3, #0
 800510a:	bf4c      	ite	mi
 800510c:	9304      	strmi	r3, [sp, #16]
 800510e:	9302      	strpl	r3, [sp, #8]
 8005110:	f1b8 0f00 	cmp.w	r8, #0
 8005114:	910c      	str	r1, [sp, #48]	@ 0x30
 8005116:	db18      	blt.n	800514a <_dtoa_r+0x1f2>
 8005118:	9b04      	ldr	r3, [sp, #16]
 800511a:	f8cd 8028 	str.w	r8, [sp, #40]	@ 0x28
 800511e:	4443      	add	r3, r8
 8005120:	9304      	str	r3, [sp, #16]
 8005122:	2300      	movs	r3, #0
 8005124:	9a05      	ldr	r2, [sp, #20]
 8005126:	2a09      	cmp	r2, #9
 8005128:	d845      	bhi.n	80051b6 <_dtoa_r+0x25e>
 800512a:	2a05      	cmp	r2, #5
 800512c:	bfc4      	itt	gt
 800512e:	3a04      	subgt	r2, #4
 8005130:	9205      	strgt	r2, [sp, #20]
 8005132:	9a05      	ldr	r2, [sp, #20]
 8005134:	f1a2 0202 	sub.w	r2, r2, #2
 8005138:	bfcc      	ite	gt
 800513a:	2400      	movgt	r4, #0
 800513c:	2401      	movle	r4, #1
 800513e:	2a03      	cmp	r2, #3
 8005140:	d844      	bhi.n	80051cc <_dtoa_r+0x274>
 8005142:	e8df f002 	tbb	[pc, r2]
 8005146:	3634      	.short	0x3634
 8005148:	0b17      	.short	0x0b17
 800514a:	9b02      	ldr	r3, [sp, #8]
 800514c:	2200      	movs	r2, #0
 800514e:	eba3 0308 	sub.w	r3, r3, r8
 8005152:	9302      	str	r3, [sp, #8]
 8005154:	920a      	str	r2, [sp, #40]	@ 0x28
 8005156:	f1c8 0300 	rsb	r3, r8, #0
 800515a:	e7e3      	b.n	8005124 <_dtoa_r+0x1cc>
 800515c:	2201      	movs	r2, #1
 800515e:	9206      	str	r2, [sp, #24]
 8005160:	9a07      	ldr	r2, [sp, #28]
 8005162:	eb08 0b02 	add.w	fp, r8, r2
 8005166:	f10b 0a01 	add.w	sl, fp, #1
 800516a:	4652      	mov	r2, sl
 800516c:	2a01      	cmp	r2, #1
 800516e:	bfb8      	it	lt
 8005170:	2201      	movlt	r2, #1
 8005172:	e006      	b.n	8005182 <_dtoa_r+0x22a>
 8005174:	2201      	movs	r2, #1
 8005176:	9206      	str	r2, [sp, #24]
 8005178:	9a07      	ldr	r2, [sp, #28]
 800517a:	2a00      	cmp	r2, #0
 800517c:	dd29      	ble.n	80051d2 <_dtoa_r+0x27a>
 800517e:	4693      	mov	fp, r2
 8005180:	4692      	mov	sl, r2
 8005182:	f8d9 501c 	ldr.w	r5, [r9, #28]
 8005186:	2100      	movs	r1, #0
 8005188:	2004      	movs	r0, #4
 800518a:	f100 0614 	add.w	r6, r0, #20
 800518e:	4296      	cmp	r6, r2
 8005190:	d926      	bls.n	80051e0 <_dtoa_r+0x288>
 8005192:	6069      	str	r1, [r5, #4]
 8005194:	4648      	mov	r0, r9
 8005196:	9303      	str	r3, [sp, #12]
 8005198:	f000 fd28 	bl	8005bec <_Balloc>
 800519c:	9b03      	ldr	r3, [sp, #12]
 800519e:	4607      	mov	r7, r0
 80051a0:	2800      	cmp	r0, #0
 80051a2:	d13d      	bne.n	8005220 <_dtoa_r+0x2c8>
 80051a4:	4b1d      	ldr	r3, [pc, #116]	@ (800521c <_dtoa_r+0x2c4>)
 80051a6:	4602      	mov	r2, r0
 80051a8:	f240 11af 	movw	r1, #431	@ 0x1af
 80051ac:	e6ed      	b.n	8004f8a <_dtoa_r+0x32>
 80051ae:	2200      	movs	r2, #0
 80051b0:	e7e1      	b.n	8005176 <_dtoa_r+0x21e>
 80051b2:	2200      	movs	r2, #0
 80051b4:	e7d3      	b.n	800515e <_dtoa_r+0x206>
 80051b6:	2401      	movs	r4, #1
 80051b8:	2200      	movs	r2, #0
 80051ba:	e9cd 2405 	strd	r2, r4, [sp, #20]
 80051be:	f04f 3bff 	mov.w	fp, #4294967295
 80051c2:	2100      	movs	r1, #0
 80051c4:	46da      	mov	sl, fp
 80051c6:	2212      	movs	r2, #18
 80051c8:	9107      	str	r1, [sp, #28]
 80051ca:	e7da      	b.n	8005182 <_dtoa_r+0x22a>
 80051cc:	2201      	movs	r2, #1
 80051ce:	9206      	str	r2, [sp, #24]
 80051d0:	e7f5      	b.n	80051be <_dtoa_r+0x266>
 80051d2:	f04f 0b01 	mov.w	fp, #1
 80051d6:	46da      	mov	sl, fp
 80051d8:	465a      	mov	r2, fp
 80051da:	f8cd b01c 	str.w	fp, [sp, #28]
 80051de:	e7d0      	b.n	8005182 <_dtoa_r+0x22a>
 80051e0:	3101      	adds	r1, #1
 80051e2:	0040      	lsls	r0, r0, #1
 80051e4:	e7d1      	b.n	800518a <_dtoa_r+0x232>
 80051e6:	bf00      	nop
 80051e8:	636f4361 	.word	0x636f4361
 80051ec:	3fd287a7 	.word	0x3fd287a7
 80051f0:	8b60c8b3 	.word	0x8b60c8b3
 80051f4:	3fc68a28 	.word	0x3fc68a28
 80051f8:	509f79fb 	.word	0x509f79fb
 80051fc:	3fd34413 	.word	0x3fd34413
 8005200:	0800853a 	.word	0x0800853a
 8005204:	08008551 	.word	0x08008551
 8005208:	7ff00000 	.word	0x7ff00000
 800520c:	08008536 	.word	0x08008536
 8005210:	08008505 	.word	0x08008505
 8005214:	08008504 	.word	0x08008504
 8005218:	08008700 	.word	0x08008700
 800521c:	080085a9 	.word	0x080085a9
 8005220:	f8d9 201c 	ldr.w	r2, [r9, #28]
 8005224:	f1ba 0f0e 	cmp.w	sl, #14
 8005228:	6010      	str	r0, [r2, #0]
 800522a:	d860      	bhi.n	80052ee <_dtoa_r+0x396>
 800522c:	2c00      	cmp	r4, #0
 800522e:	d05e      	beq.n	80052ee <_dtoa_r+0x396>
 8005230:	f1b8 0f00 	cmp.w	r8, #0
 8005234:	f340 80a5 	ble.w	8005382 <_dtoa_r+0x42a>
 8005238:	4abe      	ldr	r2, [pc, #760]	@ (8005534 <_dtoa_r+0x5dc>)
 800523a:	f008 010f 	and.w	r1, r8, #15
 800523e:	eb02 02c1 	add.w	r2, r2, r1, lsl #3
 8005242:	f418 7f80 	tst.w	r8, #256	@ 0x100
 8005246:	ed92 6b00 	vldr	d6, [r2]
 800524a:	ea4f 1128 	mov.w	r1, r8, asr #4
 800524e:	f000 808a 	beq.w	8005366 <_dtoa_r+0x40e>
 8005252:	4ab9      	ldr	r2, [pc, #740]	@ (8005538 <_dtoa_r+0x5e0>)
 8005254:	ed92 7b08 	vldr	d7, [r2, #32]
 8005258:	f001 010f 	and.w	r1, r1, #15
 800525c:	2203      	movs	r2, #3
 800525e:	ee88 5b07 	vdiv.f64	d5, d8, d7
 8005262:	48b5      	ldr	r0, [pc, #724]	@ (8005538 <_dtoa_r+0x5e0>)
 8005264:	2900      	cmp	r1, #0
 8005266:	f040 8082 	bne.w	800536e <_dtoa_r+0x416>
 800526a:	ee85 7b06 	vdiv.f64	d7, d5, d6
 800526e:	990c      	ldr	r1, [sp, #48]	@ 0x30
 8005270:	2900      	cmp	r1, #0
 8005272:	f000 80ac 	beq.w	80053ce <_dtoa_r+0x476>
 8005276:	eeb7 6b00 	vmov.f64	d6, #112	@ 0x3f800000  1.0
 800527a:	eeb4 7bc6 	vcmpe.f64	d7, d6
 800527e:	eef1 fa10 	vmrs	APSR_nzcv, fpscr
 8005282:	f140 80a4 	bpl.w	80053ce <_dtoa_r+0x476>
 8005286:	f1ba 0f00 	cmp.w	sl, #0
 800528a:	f000 80a0 	beq.w	80053ce <_dtoa_r+0x476>
 800528e:	f1bb 0f00 	cmp.w	fp, #0
 8005292:	dd2c      	ble.n	80052ee <_dtoa_r+0x396>
 8005294:	eeb2 6b04 	vmov.f64	d6, #36	@ 0x41200000  10.0
 8005298:	ee27 7b06 	vmul.f64	d7, d7, d6
 800529c:	f108 31ff 	add.w	r1, r8, #4294967295
 80052a0:	9103      	str	r1, [sp, #12]
 80052a2:	3201      	adds	r2, #1
 80052a4:	465e      	mov	r6, fp
 80052a6:	ee06 2a90 	vmov	s13, r2
 80052aa:	eeb1 5b0c 	vmov.f64	d5, #28	@ 0x40e00000  7.0
 80052ae:	eeb8 6be6 	vcvt.f64.s32	d6, s13
 80052b2:	eea6 5b07 	vfma.f64	d5, d6, d7
 80052b6:	ee15 2a90 	vmov	r2, s11
 80052ba:	ec51 0b15 	vmov	r0, r1, d5
 80052be:	f1a2 7150 	sub.w	r1, r2, #54525952	@ 0x3400000
 80052c2:	ec41 0b16 	vmov	d6, r0, r1
 80052c6:	2e00      	cmp	r6, #0
 80052c8:	f040 8085 	bne.w	80053d6 <_dtoa_r+0x47e>
 80052cc:	eeb1 5b04 	vmov.f64	d5, #20	@ 0x40a00000  5.0
 80052d0:	ee37 7b45 	vsub.f64	d7, d7, d5
 80052d4:	eeb4 7bc6 	vcmpe.f64	d7, d6
 80052d8:	eef1 fa10 	vmrs	APSR_nzcv, fpscr
 80052dc:	f300 8263 	bgt.w	80057a6 <_dtoa_r+0x84e>
 80052e0:	eeb1 6b46 	vneg.f64	d6, d6
 80052e4:	eeb4 7bc6 	vcmpe.f64	d7, d6
 80052e8:	eef1 fa10 	vmrs	APSR_nzcv, fpscr
 80052ec:	d41f      	bmi.n	800532e <_dtoa_r+0x3d6>
 80052ee:	9a0f      	ldr	r2, [sp, #60]	@ 0x3c
 80052f0:	2a00      	cmp	r2, #0
 80052f2:	f2c0 8123 	blt.w	800553c <_dtoa_r+0x5e4>
 80052f6:	f1b8 0f0e 	cmp.w	r8, #14
 80052fa:	f300 811f 	bgt.w	800553c <_dtoa_r+0x5e4>
 80052fe:	4b8d      	ldr	r3, [pc, #564]	@ (8005534 <_dtoa_r+0x5dc>)
 8005300:	eb03 03c8 	add.w	r3, r3, r8, lsl #3
 8005304:	ed93 7b00 	vldr	d7, [r3]
 8005308:	9b07      	ldr	r3, [sp, #28]
 800530a:	2b00      	cmp	r3, #0
 800530c:	f280 80c6 	bge.w	800549c <_dtoa_r+0x544>
 8005310:	f1ba 0f00 	cmp.w	sl, #0
 8005314:	f300 80c2 	bgt.w	800549c <_dtoa_r+0x544>
 8005318:	d109      	bne.n	800532e <_dtoa_r+0x3d6>
 800531a:	eeb1 6b04 	vmov.f64	d6, #20	@ 0x40a00000  5.0
 800531e:	ee27 7b06 	vmul.f64	d7, d7, d6
 8005322:	eeb4 8bc7 	vcmpe.f64	d8, d7
 8005326:	eef1 fa10 	vmrs	APSR_nzcv, fpscr
 800532a:	f200 8239 	bhi.w	80057a0 <_dtoa_r+0x848>
 800532e:	2600      	movs	r6, #0
 8005330:	4634      	mov	r4, r6
 8005332:	9b07      	ldr	r3, [sp, #28]
 8005334:	43db      	mvns	r3, r3
 8005336:	9303      	str	r3, [sp, #12]
 8005338:	463d      	mov	r5, r7
 800533a:	46a0      	mov	r8, r4
 800533c:	2400      	movs	r4, #0
 800533e:	4631      	mov	r1, r6
 8005340:	4648      	mov	r0, r9
 8005342:	f000 fc91 	bl	8005c68 <_Bfree>
 8005346:	f1b8 0f00 	cmp.w	r8, #0
 800534a:	f000 80a1 	beq.w	8005490 <_dtoa_r+0x538>
 800534e:	b12c      	cbz	r4, 800535c <_dtoa_r+0x404>
 8005350:	4544      	cmp	r4, r8
 8005352:	d003      	beq.n	800535c <_dtoa_r+0x404>
 8005354:	4621      	mov	r1, r4
 8005356:	4648      	mov	r0, r9
 8005358:	f000 fc86 	bl	8005c68 <_Bfree>
 800535c:	4641      	mov	r1, r8
 800535e:	4648      	mov	r0, r9
 8005360:	f000 fc82 	bl	8005c68 <_Bfree>
 8005364:	e094      	b.n	8005490 <_dtoa_r+0x538>
 8005366:	2202      	movs	r2, #2
 8005368:	eeb0 5b48 	vmov.f64	d5, d8
 800536c:	e779      	b.n	8005262 <_dtoa_r+0x30a>
 800536e:	07ce      	lsls	r6, r1, #31
 8005370:	d504      	bpl.n	800537c <_dtoa_r+0x424>
 8005372:	ed90 7b00 	vldr	d7, [r0]
 8005376:	3201      	adds	r2, #1
 8005378:	ee26 6b07 	vmul.f64	d6, d6, d7
 800537c:	1049      	asrs	r1, r1, #1
 800537e:	3008      	adds	r0, #8
 8005380:	e770      	b.n	8005264 <_dtoa_r+0x30c>
 8005382:	d020      	beq.n	80053c6 <_dtoa_r+0x46e>
 8005384:	f1c8 0100 	rsb	r1, r8, #0
 8005388:	4a6a      	ldr	r2, [pc, #424]	@ (8005534 <_dtoa_r+0x5dc>)
 800538a:	f001 000f 	and.w	r0, r1, #15
 800538e:	eb02 02c0 	add.w	r2, r2, r0, lsl #3
 8005392:	ed92 7b00 	vldr	d7, [r2]
 8005396:	4868      	ldr	r0, [pc, #416]	@ (8005538 <_dtoa_r+0x5e0>)
 8005398:	ee28 7b07 	vmul.f64	d7, d8, d7
 800539c:	1109      	asrs	r1, r1, #4
 800539e:	2400      	movs	r4, #0
 80053a0:	2202      	movs	r2, #2
 80053a2:	eeb0 6b47 	vmov.f64	d6, d7
 80053a6:	b919      	cbnz	r1, 80053b0 <_dtoa_r+0x458>
 80053a8:	2c00      	cmp	r4, #0
 80053aa:	fe07 7b06 	vseleq.f64	d7, d7, d6
 80053ae:	e75e      	b.n	800526e <_dtoa_r+0x316>
 80053b0:	07cd      	lsls	r5, r1, #31
 80053b2:	d505      	bpl.n	80053c0 <_dtoa_r+0x468>
 80053b4:	ed90 5b00 	vldr	d5, [r0]
 80053b8:	3201      	adds	r2, #1
 80053ba:	2401      	movs	r4, #1
 80053bc:	ee26 6b05 	vmul.f64	d6, d6, d5
 80053c0:	1049      	asrs	r1, r1, #1
 80053c2:	3008      	adds	r0, #8
 80053c4:	e7ef      	b.n	80053a6 <_dtoa_r+0x44e>
 80053c6:	2202      	movs	r2, #2
 80053c8:	eeb0 7b48 	vmov.f64	d7, d8
 80053cc:	e74f      	b.n	800526e <_dtoa_r+0x316>
 80053ce:	f8cd 800c 	str.w	r8, [sp, #12]
 80053d2:	4656      	mov	r6, sl
 80053d4:	e767      	b.n	80052a6 <_dtoa_r+0x34e>
 80053d6:	4a57      	ldr	r2, [pc, #348]	@ (8005534 <_dtoa_r+0x5dc>)
 80053d8:	eb02 02c6 	add.w	r2, r2, r6, lsl #3
 80053dc:	ed12 4b02 	vldr	d4, [r2, #-8]
 80053e0:	9a06      	ldr	r2, [sp, #24]
 80053e2:	19b9      	adds	r1, r7, r6
 80053e4:	b34a      	cbz	r2, 800543a <_dtoa_r+0x4e2>
 80053e6:	eeb6 3b00 	vmov.f64	d3, #96	@ 0x3f000000  0.5
 80053ea:	eeb7 2b00 	vmov.f64	d2, #112	@ 0x3f800000  1.0
 80053ee:	463d      	mov	r5, r7
 80053f0:	ee83 5b04 	vdiv.f64	d5, d3, d4
 80053f4:	eeb2 3b04 	vmov.f64	d3, #36	@ 0x41200000  10.0
 80053f8:	ee35 6b46 	vsub.f64	d6, d5, d6
 80053fc:	eefd 4bc7 	vcvt.s32.f64	s9, d7
 8005400:	ee14 2a90 	vmov	r2, s9
 8005404:	eeb8 5be4 	vcvt.f64.s32	d5, s9
 8005408:	3230      	adds	r2, #48	@ 0x30
 800540a:	ee37 7b45 	vsub.f64	d7, d7, d5
 800540e:	eeb4 7bc6 	vcmpe.f64	d7, d6
 8005412:	eef1 fa10 	vmrs	APSR_nzcv, fpscr
 8005416:	f805 2b01 	strb.w	r2, [r5], #1
 800541a:	d439      	bmi.n	8005490 <_dtoa_r+0x538>
 800541c:	ee32 5b47 	vsub.f64	d5, d2, d7
 8005420:	eeb4 5bc6 	vcmpe.f64	d5, d6
 8005424:	eef1 fa10 	vmrs	APSR_nzcv, fpscr
 8005428:	d46d      	bmi.n	8005506 <_dtoa_r+0x5ae>
 800542a:	428d      	cmp	r5, r1
 800542c:	f43f af5f 	beq.w	80052ee <_dtoa_r+0x396>
 8005430:	ee26 6b03 	vmul.f64	d6, d6, d3
 8005434:	ee27 7b03 	vmul.f64	d7, d7, d3
 8005438:	e7e0      	b.n	80053fc <_dtoa_r+0x4a4>
 800543a:	4638      	mov	r0, r7
 800543c:	ee24 5b06 	vmul.f64	d5, d4, d6
 8005440:	eeb2 3b04 	vmov.f64	d3, #36	@ 0x41200000  10.0
 8005444:	eefd 4bc7 	vcvt.s32.f64	s9, d7
 8005448:	ee14 2a90 	vmov	r2, s9
 800544c:	3230      	adds	r2, #48	@ 0x30
 800544e:	f800 2b01 	strb.w	r2, [r0], #1
 8005452:	4288      	cmp	r0, r1
 8005454:	eeb8 6be4 	vcvt.f64.s32	d6, s9
 8005458:	ee37 7b46 	vsub.f64	d7, d7, d6
 800545c:	d11b      	bne.n	8005496 <_dtoa_r+0x53e>
 800545e:	eeb6 6b00 	vmov.f64	d6, #96	@ 0x3f000000  0.5
 8005462:	ee35 4b06 	vadd.f64	d4, d5, d6
 8005466:	eeb4 7bc4 	vcmpe.f64	d7, d4
 800546a:	eef1 fa10 	vmrs	APSR_nzcv, fpscr
 800546e:	eb07 0506 	add.w	r5, r7, r6
 8005472:	dc48      	bgt.n	8005506 <_dtoa_r+0x5ae>
 8005474:	ee36 6b45 	vsub.f64	d6, d6, d5
 8005478:	eeb4 7bc6 	vcmpe.f64	d7, d6
 800547c:	eef1 fa10 	vmrs	APSR_nzcv, fpscr
 8005480:	f57f af35 	bpl.w	80052ee <_dtoa_r+0x396>
 8005484:	462b      	mov	r3, r5
 8005486:	f815 2d01 	ldrb.w	r2, [r5, #-1]!
 800548a:	2a30      	cmp	r2, #48	@ 0x30
 800548c:	d0fa      	beq.n	8005484 <_dtoa_r+0x52c>
 800548e:	461d      	mov	r5, r3
 8005490:	f8dd 800c 	ldr.w	r8, [sp, #12]
 8005494:	e025      	b.n	80054e2 <_dtoa_r+0x58a>
 8005496:	ee27 7b03 	vmul.f64	d7, d7, d3
 800549a:	e7d3      	b.n	8005444 <_dtoa_r+0x4ec>
 800549c:	463d      	mov	r5, r7
 800549e:	eeb2 5b04 	vmov.f64	d5, #36	@ 0x41200000  10.0
 80054a2:	ee88 6b07 	vdiv.f64	d6, d8, d7
 80054a6:	eebd 6bc6 	vcvt.s32.f64	s12, d6
 80054aa:	ee16 3a10 	vmov	r3, s12
 80054ae:	3330      	adds	r3, #48	@ 0x30
 80054b0:	f805 3b01 	strb.w	r3, [r5], #1
 80054b4:	1beb      	subs	r3, r5, r7
 80054b6:	459a      	cmp	sl, r3
 80054b8:	eeb8 4bc6 	vcvt.f64.s32	d4, s12
 80054bc:	eea4 8b47 	vfms.f64	d8, d4, d7
 80054c0:	d130      	bne.n	8005524 <_dtoa_r+0x5cc>
 80054c2:	ee38 8b08 	vadd.f64	d8, d8, d8
 80054c6:	eeb4 8bc7 	vcmpe.f64	d8, d7
 80054ca:	eef1 fa10 	vmrs	APSR_nzcv, fpscr
 80054ce:	dc18      	bgt.n	8005502 <_dtoa_r+0x5aa>
 80054d0:	eeb4 8b47 	vcmp.f64	d8, d7
 80054d4:	eef1 fa10 	vmrs	APSR_nzcv, fpscr
 80054d8:	d103      	bne.n	80054e2 <_dtoa_r+0x58a>
 80054da:	ee16 3a10 	vmov	r3, s12
 80054de:	07db      	lsls	r3, r3, #31
 80054e0:	d40f      	bmi.n	8005502 <_dtoa_r+0x5aa>
 80054e2:	9901      	ldr	r1, [sp, #4]
 80054e4:	4648      	mov	r0, r9
 80054e6:	f000 fbbf 	bl	8005c68 <_Bfree>
 80054ea:	2300      	movs	r3, #0
 80054ec:	9a0d      	ldr	r2, [sp, #52]	@ 0x34
 80054ee:	702b      	strb	r3, [r5, #0]
 80054f0:	f108 0301 	add.w	r3, r8, #1
 80054f4:	6013      	str	r3, [r2, #0]
 80054f6:	9b1d      	ldr	r3, [sp, #116]	@ 0x74
 80054f8:	2b00      	cmp	r3, #0
 80054fa:	f000 824d 	beq.w	8005998 <_dtoa_r+0xa40>
 80054fe:	601d      	str	r5, [r3, #0]
 8005500:	e24a      	b.n	8005998 <_dtoa_r+0xa40>
 8005502:	f8cd 800c 	str.w	r8, [sp, #12]
 8005506:	462b      	mov	r3, r5
 8005508:	461d      	mov	r5, r3
 800550a:	f813 2d01 	ldrb.w	r2, [r3, #-1]!
 800550e:	2a39      	cmp	r2, #57	@ 0x39
 8005510:	d105      	bne.n	800551e <_dtoa_r+0x5c6>
 8005512:	429f      	cmp	r7, r3
 8005514:	d1f8      	bne.n	8005508 <_dtoa_r+0x5b0>
 8005516:	9a03      	ldr	r2, [sp, #12]
 8005518:	3201      	adds	r2, #1
 800551a:	9203      	str	r2, [sp, #12]
 800551c:	2230      	movs	r2, #48	@ 0x30
 800551e:	3201      	adds	r2, #1
 8005520:	701a      	strb	r2, [r3, #0]
 8005522:	e7b5      	b.n	8005490 <_dtoa_r+0x538>
 8005524:	ee28 8b05 	vmul.f64	d8, d8, d5
 8005528:	eeb5 8b40 	vcmp.f64	d8, #0.0
 800552c:	eef1 fa10 	vmrs	APSR_nzcv, fpscr
 8005530:	d1b7      	bne.n	80054a2 <_dtoa_r+0x54a>
 8005532:	e7d6      	b.n	80054e2 <_dtoa_r+0x58a>
 8005534:	08008700 	.word	0x08008700
 8005538:	080086d8 	.word	0x080086d8
 800553c:	9906      	ldr	r1, [sp, #24]
 800553e:	2900      	cmp	r1, #0
 8005540:	f000 80ea 	beq.w	8005718 <_dtoa_r+0x7c0>
 8005544:	9905      	ldr	r1, [sp, #20]
 8005546:	2901      	cmp	r1, #1
 8005548:	f300 80cc 	bgt.w	80056e4 <_dtoa_r+0x78c>
 800554c:	990b      	ldr	r1, [sp, #44]	@ 0x2c
 800554e:	2900      	cmp	r1, #0
 8005550:	f000 80c4 	beq.w	80056dc <_dtoa_r+0x784>
 8005554:	f202 4233 	addw	r2, r2, #1075	@ 0x433
 8005558:	9d02      	ldr	r5, [sp, #8]
 800555a:	461e      	mov	r6, r3
 800555c:	9303      	str	r3, [sp, #12]
 800555e:	9b02      	ldr	r3, [sp, #8]
 8005560:	4413      	add	r3, r2
 8005562:	9302      	str	r3, [sp, #8]
 8005564:	9b04      	ldr	r3, [sp, #16]
 8005566:	2101      	movs	r1, #1
 8005568:	4413      	add	r3, r2
 800556a:	4648      	mov	r0, r9
 800556c:	9304      	str	r3, [sp, #16]
 800556e:	f000 fc79 	bl	8005e64 <__i2b>
 8005572:	9b03      	ldr	r3, [sp, #12]
 8005574:	4604      	mov	r4, r0
 8005576:	b165      	cbz	r5, 8005592 <_dtoa_r+0x63a>
 8005578:	9a04      	ldr	r2, [sp, #16]
 800557a:	2a00      	cmp	r2, #0
 800557c:	dd09      	ble.n	8005592 <_dtoa_r+0x63a>
 800557e:	42aa      	cmp	r2, r5
 8005580:	9902      	ldr	r1, [sp, #8]
 8005582:	bfa8      	it	ge
 8005584:	462a      	movge	r2, r5
 8005586:	1a89      	subs	r1, r1, r2
 8005588:	9102      	str	r1, [sp, #8]
 800558a:	9904      	ldr	r1, [sp, #16]
 800558c:	1aad      	subs	r5, r5, r2
 800558e:	1a8a      	subs	r2, r1, r2
 8005590:	9204      	str	r2, [sp, #16]
 8005592:	b30b      	cbz	r3, 80055d8 <_dtoa_r+0x680>
 8005594:	9a06      	ldr	r2, [sp, #24]
 8005596:	2a00      	cmp	r2, #0
 8005598:	f000 80c5 	beq.w	8005726 <_dtoa_r+0x7ce>
 800559c:	2e00      	cmp	r6, #0
 800559e:	f000 80bf 	beq.w	8005720 <_dtoa_r+0x7c8>
 80055a2:	4621      	mov	r1, r4
 80055a4:	4632      	mov	r2, r6
 80055a6:	4648      	mov	r0, r9
 80055a8:	930b      	str	r3, [sp, #44]	@ 0x2c
 80055aa:	f000 fd1b 	bl	8005fe4 <__pow5mult>
 80055ae:	9a01      	ldr	r2, [sp, #4]
 80055b0:	4601      	mov	r1, r0
 80055b2:	4604      	mov	r4, r0
 80055b4:	4648      	mov	r0, r9
 80055b6:	f000 fc6b 	bl	8005e90 <__multiply>
 80055ba:	9901      	ldr	r1, [sp, #4]
 80055bc:	9003      	str	r0, [sp, #12]
 80055be:	4648      	mov	r0, r9
 80055c0:	f000 fb52 	bl	8005c68 <_Bfree>
 80055c4:	9b0b      	ldr	r3, [sp, #44]	@ 0x2c
 80055c6:	1b9b      	subs	r3, r3, r6
 80055c8:	f000 80b0 	beq.w	800572c <_dtoa_r+0x7d4>
 80055cc:	9903      	ldr	r1, [sp, #12]
 80055ce:	461a      	mov	r2, r3
 80055d0:	4648      	mov	r0, r9
 80055d2:	f000 fd07 	bl	8005fe4 <__pow5mult>
 80055d6:	9001      	str	r0, [sp, #4]
 80055d8:	2101      	movs	r1, #1
 80055da:	4648      	mov	r0, r9
 80055dc:	f000 fc42 	bl	8005e64 <__i2b>
 80055e0:	9b0a      	ldr	r3, [sp, #40]	@ 0x28
 80055e2:	4606      	mov	r6, r0
 80055e4:	2b00      	cmp	r3, #0
 80055e6:	f000 81dd 	beq.w	80059a4 <_dtoa_r+0xa4c>
 80055ea:	461a      	mov	r2, r3
 80055ec:	4601      	mov	r1, r0
 80055ee:	4648      	mov	r0, r9
 80055f0:	f000 fcf8 	bl	8005fe4 <__pow5mult>
 80055f4:	9b05      	ldr	r3, [sp, #20]
 80055f6:	2b01      	cmp	r3, #1
 80055f8:	4606      	mov	r6, r0
 80055fa:	f300 80a0 	bgt.w	800573e <_dtoa_r+0x7e6>
 80055fe:	9b08      	ldr	r3, [sp, #32]
 8005600:	2b00      	cmp	r3, #0
 8005602:	f040 8096 	bne.w	8005732 <_dtoa_r+0x7da>
 8005606:	9b09      	ldr	r3, [sp, #36]	@ 0x24
 8005608:	f3c3 0213 	ubfx	r2, r3, #0, #20
 800560c:	2a00      	cmp	r2, #0
 800560e:	f040 8092 	bne.w	8005736 <_dtoa_r+0x7de>
 8005612:	f023 4200 	bic.w	r2, r3, #2147483648	@ 0x80000000
 8005616:	0d12      	lsrs	r2, r2, #20
 8005618:	0512      	lsls	r2, r2, #20
 800561a:	2a00      	cmp	r2, #0
 800561c:	f000 808d 	beq.w	800573a <_dtoa_r+0x7e2>
 8005620:	9b02      	ldr	r3, [sp, #8]
 8005622:	3301      	adds	r3, #1
 8005624:	9302      	str	r3, [sp, #8]
 8005626:	9b04      	ldr	r3, [sp, #16]
 8005628:	3301      	adds	r3, #1
 800562a:	9304      	str	r3, [sp, #16]
 800562c:	2301      	movs	r3, #1
 800562e:	930b      	str	r3, [sp, #44]	@ 0x2c
 8005630:	9b0a      	ldr	r3, [sp, #40]	@ 0x28
 8005632:	2b00      	cmp	r3, #0
 8005634:	f000 81bc 	beq.w	80059b0 <_dtoa_r+0xa58>
 8005638:	6932      	ldr	r2, [r6, #16]
 800563a:	eb06 0282 	add.w	r2, r6, r2, lsl #2
 800563e:	6910      	ldr	r0, [r2, #16]
 8005640:	f000 fbc4 	bl	8005dcc <__hi0bits>
 8005644:	f1c0 0020 	rsb	r0, r0, #32
 8005648:	9b04      	ldr	r3, [sp, #16]
 800564a:	4418      	add	r0, r3
 800564c:	f010 001f 	ands.w	r0, r0, #31
 8005650:	f000 8081 	beq.w	8005756 <_dtoa_r+0x7fe>
 8005654:	f1c0 0220 	rsb	r2, r0, #32
 8005658:	2a04      	cmp	r2, #4
 800565a:	dd73      	ble.n	8005744 <_dtoa_r+0x7ec>
 800565c:	9b02      	ldr	r3, [sp, #8]
 800565e:	f1c0 001c 	rsb	r0, r0, #28
 8005662:	4403      	add	r3, r0
 8005664:	9302      	str	r3, [sp, #8]
 8005666:	9b04      	ldr	r3, [sp, #16]
 8005668:	4405      	add	r5, r0
 800566a:	4403      	add	r3, r0
 800566c:	9304      	str	r3, [sp, #16]
 800566e:	9b02      	ldr	r3, [sp, #8]
 8005670:	2b00      	cmp	r3, #0
 8005672:	dd05      	ble.n	8005680 <_dtoa_r+0x728>
 8005674:	9901      	ldr	r1, [sp, #4]
 8005676:	461a      	mov	r2, r3
 8005678:	4648      	mov	r0, r9
 800567a:	f000 fd0f 	bl	800609c <__lshift>
 800567e:	9001      	str	r0, [sp, #4]
 8005680:	9b04      	ldr	r3, [sp, #16]
 8005682:	2b00      	cmp	r3, #0
 8005684:	dd05      	ble.n	8005692 <_dtoa_r+0x73a>
 8005686:	4631      	mov	r1, r6
 8005688:	461a      	mov	r2, r3
 800568a:	4648      	mov	r0, r9
 800568c:	f000 fd06 	bl	800609c <__lshift>
 8005690:	4606      	mov	r6, r0
 8005692:	9b0c      	ldr	r3, [sp, #48]	@ 0x30
 8005694:	2b00      	cmp	r3, #0
 8005696:	d060      	beq.n	800575a <_dtoa_r+0x802>
 8005698:	9801      	ldr	r0, [sp, #4]
 800569a:	4631      	mov	r1, r6
 800569c:	f000 fd6c 	bl	8006178 <__mcmp>
 80056a0:	2800      	cmp	r0, #0
 80056a2:	da5a      	bge.n	800575a <_dtoa_r+0x802>
 80056a4:	f108 33ff 	add.w	r3, r8, #4294967295
 80056a8:	9303      	str	r3, [sp, #12]
 80056aa:	9901      	ldr	r1, [sp, #4]
 80056ac:	2300      	movs	r3, #0
 80056ae:	220a      	movs	r2, #10
 80056b0:	4648      	mov	r0, r9
 80056b2:	f000 fafb 	bl	8005cac <__multadd>
 80056b6:	9b06      	ldr	r3, [sp, #24]
 80056b8:	9001      	str	r0, [sp, #4]
 80056ba:	2b00      	cmp	r3, #0
 80056bc:	f000 817a 	beq.w	80059b4 <_dtoa_r+0xa5c>
 80056c0:	4621      	mov	r1, r4
 80056c2:	2300      	movs	r3, #0
 80056c4:	220a      	movs	r2, #10
 80056c6:	4648      	mov	r0, r9
 80056c8:	f000 faf0 	bl	8005cac <__multadd>
 80056cc:	f1bb 0f00 	cmp.w	fp, #0
 80056d0:	4604      	mov	r4, r0
 80056d2:	dc6e      	bgt.n	80057b2 <_dtoa_r+0x85a>
 80056d4:	9b05      	ldr	r3, [sp, #20]
 80056d6:	2b02      	cmp	r3, #2
 80056d8:	dc48      	bgt.n	800576c <_dtoa_r+0x814>
 80056da:	e06a      	b.n	80057b2 <_dtoa_r+0x85a>
 80056dc:	9a0e      	ldr	r2, [sp, #56]	@ 0x38
 80056de:	f1c2 0236 	rsb	r2, r2, #54	@ 0x36
 80056e2:	e739      	b.n	8005558 <_dtoa_r+0x600>
 80056e4:	f10a 36ff 	add.w	r6, sl, #4294967295
 80056e8:	42b3      	cmp	r3, r6
 80056ea:	db07      	blt.n	80056fc <_dtoa_r+0x7a4>
 80056ec:	f1ba 0f00 	cmp.w	sl, #0
 80056f0:	eba3 0606 	sub.w	r6, r3, r6
 80056f4:	db0b      	blt.n	800570e <_dtoa_r+0x7b6>
 80056f6:	9d02      	ldr	r5, [sp, #8]
 80056f8:	4652      	mov	r2, sl
 80056fa:	e72f      	b.n	800555c <_dtoa_r+0x604>
 80056fc:	1af2      	subs	r2, r6, r3
 80056fe:	9b0a      	ldr	r3, [sp, #40]	@ 0x28
 8005700:	9d02      	ldr	r5, [sp, #8]
 8005702:	4413      	add	r3, r2
 8005704:	930a      	str	r3, [sp, #40]	@ 0x28
 8005706:	4652      	mov	r2, sl
 8005708:	4633      	mov	r3, r6
 800570a:	2600      	movs	r6, #0
 800570c:	e726      	b.n	800555c <_dtoa_r+0x604>
 800570e:	9a02      	ldr	r2, [sp, #8]
 8005710:	eba2 050a 	sub.w	r5, r2, sl
 8005714:	2200      	movs	r2, #0
 8005716:	e721      	b.n	800555c <_dtoa_r+0x604>
 8005718:	9d02      	ldr	r5, [sp, #8]
 800571a:	9c06      	ldr	r4, [sp, #24]
 800571c:	461e      	mov	r6, r3
 800571e:	e72a      	b.n	8005576 <_dtoa_r+0x61e>
 8005720:	9a01      	ldr	r2, [sp, #4]
 8005722:	9203      	str	r2, [sp, #12]
 8005724:	e752      	b.n	80055cc <_dtoa_r+0x674>
 8005726:	9901      	ldr	r1, [sp, #4]
 8005728:	461a      	mov	r2, r3
 800572a:	e751      	b.n	80055d0 <_dtoa_r+0x678>
 800572c:	9b03      	ldr	r3, [sp, #12]
 800572e:	9301      	str	r3, [sp, #4]
 8005730:	e752      	b.n	80055d8 <_dtoa_r+0x680>
 8005732:	2300      	movs	r3, #0
 8005734:	e77b      	b.n	800562e <_dtoa_r+0x6d6>
 8005736:	9b08      	ldr	r3, [sp, #32]
 8005738:	e779      	b.n	800562e <_dtoa_r+0x6d6>
 800573a:	920b      	str	r2, [sp, #44]	@ 0x2c
 800573c:	e778      	b.n	8005630 <_dtoa_r+0x6d8>
 800573e:	2300      	movs	r3, #0
 8005740:	930b      	str	r3, [sp, #44]	@ 0x2c
 8005742:	e779      	b.n	8005638 <_dtoa_r+0x6e0>
 8005744:	d093      	beq.n	800566e <_dtoa_r+0x716>
 8005746:	9b02      	ldr	r3, [sp, #8]
 8005748:	321c      	adds	r2, #28
 800574a:	4413      	add	r3, r2
 800574c:	9302      	str	r3, [sp, #8]
 800574e:	9b04      	ldr	r3, [sp, #16]
 8005750:	4415      	add	r5, r2
 8005752:	4413      	add	r3, r2
 8005754:	e78a      	b.n	800566c <_dtoa_r+0x714>
 8005756:	4602      	mov	r2, r0
 8005758:	e7f5      	b.n	8005746 <_dtoa_r+0x7ee>
 800575a:	f1ba 0f00 	cmp.w	sl, #0
 800575e:	f8cd 800c 	str.w	r8, [sp, #12]
 8005762:	46d3      	mov	fp, sl
 8005764:	dc21      	bgt.n	80057aa <_dtoa_r+0x852>
 8005766:	9b05      	ldr	r3, [sp, #20]
 8005768:	2b02      	cmp	r3, #2
 800576a:	dd1e      	ble.n	80057aa <_dtoa_r+0x852>
 800576c:	f1bb 0f00 	cmp.w	fp, #0
 8005770:	f47f addf 	bne.w	8005332 <_dtoa_r+0x3da>
 8005774:	4631      	mov	r1, r6
 8005776:	465b      	mov	r3, fp
 8005778:	2205      	movs	r2, #5
 800577a:	4648      	mov	r0, r9
 800577c:	f000 fa96 	bl	8005cac <__multadd>
 8005780:	4601      	mov	r1, r0
 8005782:	4606      	mov	r6, r0
 8005784:	9801      	ldr	r0, [sp, #4]
 8005786:	f000 fcf7 	bl	8006178 <__mcmp>
 800578a:	2800      	cmp	r0, #0
 800578c:	f77f add1 	ble.w	8005332 <_dtoa_r+0x3da>
 8005790:	463d      	mov	r5, r7
 8005792:	2331      	movs	r3, #49	@ 0x31
 8005794:	f805 3b01 	strb.w	r3, [r5], #1
 8005798:	9b03      	ldr	r3, [sp, #12]
 800579a:	3301      	adds	r3, #1
 800579c:	9303      	str	r3, [sp, #12]
 800579e:	e5cc      	b.n	800533a <_dtoa_r+0x3e2>
 80057a0:	f8cd 800c 	str.w	r8, [sp, #12]
 80057a4:	4656      	mov	r6, sl
 80057a6:	4634      	mov	r4, r6
 80057a8:	e7f2      	b.n	8005790 <_dtoa_r+0x838>
 80057aa:	9b06      	ldr	r3, [sp, #24]
 80057ac:	2b00      	cmp	r3, #0
 80057ae:	f000 8105 	beq.w	80059bc <_dtoa_r+0xa64>
 80057b2:	2d00      	cmp	r5, #0
 80057b4:	dd05      	ble.n	80057c2 <_dtoa_r+0x86a>
 80057b6:	4621      	mov	r1, r4
 80057b8:	462a      	mov	r2, r5
 80057ba:	4648      	mov	r0, r9
 80057bc:	f000 fc6e 	bl	800609c <__lshift>
 80057c0:	4604      	mov	r4, r0
 80057c2:	9b0b      	ldr	r3, [sp, #44]	@ 0x2c
 80057c4:	2b00      	cmp	r3, #0
 80057c6:	d057      	beq.n	8005878 <_dtoa_r+0x920>
 80057c8:	6861      	ldr	r1, [r4, #4]
 80057ca:	4648      	mov	r0, r9
 80057cc:	f000 fa0e 	bl	8005bec <_Balloc>
 80057d0:	4605      	mov	r5, r0
 80057d2:	b928      	cbnz	r0, 80057e0 <_dtoa_r+0x888>
 80057d4:	4b83      	ldr	r3, [pc, #524]	@ (80059e4 <_dtoa_r+0xa8c>)
 80057d6:	4602      	mov	r2, r0
 80057d8:	f240 21ef 	movw	r1, #751	@ 0x2ef
 80057dc:	f7ff bbd5 	b.w	8004f8a <_dtoa_r+0x32>
 80057e0:	6922      	ldr	r2, [r4, #16]
 80057e2:	3202      	adds	r2, #2
 80057e4:	0092      	lsls	r2, r2, #2
 80057e6:	f104 010c 	add.w	r1, r4, #12
 80057ea:	300c      	adds	r0, #12
 80057ec:	f7ff fb17 	bl	8004e1e <memcpy>
 80057f0:	2201      	movs	r2, #1
 80057f2:	4629      	mov	r1, r5
 80057f4:	4648      	mov	r0, r9
 80057f6:	f000 fc51 	bl	800609c <__lshift>
 80057fa:	4680      	mov	r8, r0
 80057fc:	1c7b      	adds	r3, r7, #1
 80057fe:	9302      	str	r3, [sp, #8]
 8005800:	eb07 030b 	add.w	r3, r7, fp
 8005804:	930a      	str	r3, [sp, #40]	@ 0x28
 8005806:	9b08      	ldr	r3, [sp, #32]
 8005808:	f003 0301 	and.w	r3, r3, #1
 800580c:	9307      	str	r3, [sp, #28]
 800580e:	9b02      	ldr	r3, [sp, #8]
 8005810:	9801      	ldr	r0, [sp, #4]
 8005812:	4631      	mov	r1, r6
 8005814:	f103 3bff 	add.w	fp, r3, #4294967295
 8005818:	f7ff fb16 	bl	8004e48 <quorem>
 800581c:	4621      	mov	r1, r4
 800581e:	9004      	str	r0, [sp, #16]
 8005820:	f100 0a30 	add.w	sl, r0, #48	@ 0x30
 8005824:	9801      	ldr	r0, [sp, #4]
 8005826:	f000 fca7 	bl	8006178 <__mcmp>
 800582a:	4642      	mov	r2, r8
 800582c:	9006      	str	r0, [sp, #24]
 800582e:	4631      	mov	r1, r6
 8005830:	4648      	mov	r0, r9
 8005832:	f000 fcbd 	bl	80061b0 <__mdiff>
 8005836:	68c2      	ldr	r2, [r0, #12]
 8005838:	4605      	mov	r5, r0
 800583a:	b9fa      	cbnz	r2, 800587c <_dtoa_r+0x924>
 800583c:	4601      	mov	r1, r0
 800583e:	9801      	ldr	r0, [sp, #4]
 8005840:	f000 fc9a 	bl	8006178 <__mcmp>
 8005844:	4602      	mov	r2, r0
 8005846:	4629      	mov	r1, r5
 8005848:	4648      	mov	r0, r9
 800584a:	9208      	str	r2, [sp, #32]
 800584c:	f000 fa0c 	bl	8005c68 <_Bfree>
 8005850:	9b05      	ldr	r3, [sp, #20]
 8005852:	9a08      	ldr	r2, [sp, #32]
 8005854:	9d02      	ldr	r5, [sp, #8]
 8005856:	ea42 0103 	orr.w	r1, r2, r3
 800585a:	9b07      	ldr	r3, [sp, #28]
 800585c:	4319      	orrs	r1, r3
 800585e:	d10f      	bne.n	8005880 <_dtoa_r+0x928>
 8005860:	f1ba 0f39 	cmp.w	sl, #57	@ 0x39
 8005864:	d028      	beq.n	80058b8 <_dtoa_r+0x960>
 8005866:	9b06      	ldr	r3, [sp, #24]
 8005868:	2b00      	cmp	r3, #0
 800586a:	dd02      	ble.n	8005872 <_dtoa_r+0x91a>
 800586c:	9b04      	ldr	r3, [sp, #16]
 800586e:	f103 0a31 	add.w	sl, r3, #49	@ 0x31
 8005872:	f88b a000 	strb.w	sl, [fp]
 8005876:	e562      	b.n	800533e <_dtoa_r+0x3e6>
 8005878:	46a0      	mov	r8, r4
 800587a:	e7bf      	b.n	80057fc <_dtoa_r+0x8a4>
 800587c:	2201      	movs	r2, #1
 800587e:	e7e2      	b.n	8005846 <_dtoa_r+0x8ee>
 8005880:	9b06      	ldr	r3, [sp, #24]
 8005882:	2b00      	cmp	r3, #0
 8005884:	db04      	blt.n	8005890 <_dtoa_r+0x938>
 8005886:	9905      	ldr	r1, [sp, #20]
 8005888:	430b      	orrs	r3, r1
 800588a:	9907      	ldr	r1, [sp, #28]
 800588c:	430b      	orrs	r3, r1
 800588e:	d120      	bne.n	80058d2 <_dtoa_r+0x97a>
 8005890:	2a00      	cmp	r2, #0
 8005892:	ddee      	ble.n	8005872 <_dtoa_r+0x91a>
 8005894:	9901      	ldr	r1, [sp, #4]
 8005896:	2201      	movs	r2, #1
 8005898:	4648      	mov	r0, r9
 800589a:	f000 fbff 	bl	800609c <__lshift>
 800589e:	4631      	mov	r1, r6
 80058a0:	9001      	str	r0, [sp, #4]
 80058a2:	f000 fc69 	bl	8006178 <__mcmp>
 80058a6:	2800      	cmp	r0, #0
 80058a8:	dc03      	bgt.n	80058b2 <_dtoa_r+0x95a>
 80058aa:	d1e2      	bne.n	8005872 <_dtoa_r+0x91a>
 80058ac:	f01a 0f01 	tst.w	sl, #1
 80058b0:	d0df      	beq.n	8005872 <_dtoa_r+0x91a>
 80058b2:	f1ba 0f39 	cmp.w	sl, #57	@ 0x39
 80058b6:	d1d9      	bne.n	800586c <_dtoa_r+0x914>
 80058b8:	2339      	movs	r3, #57	@ 0x39
 80058ba:	f88b 3000 	strb.w	r3, [fp]
 80058be:	462b      	mov	r3, r5
 80058c0:	461d      	mov	r5, r3
 80058c2:	3b01      	subs	r3, #1
 80058c4:	f815 2c01 	ldrb.w	r2, [r5, #-1]
 80058c8:	2a39      	cmp	r2, #57	@ 0x39
 80058ca:	d056      	beq.n	800597a <_dtoa_r+0xa22>
 80058cc:	3201      	adds	r2, #1
 80058ce:	701a      	strb	r2, [r3, #0]
 80058d0:	e535      	b.n	800533e <_dtoa_r+0x3e6>
 80058d2:	2a00      	cmp	r2, #0
 80058d4:	dd07      	ble.n	80058e6 <_dtoa_r+0x98e>
 80058d6:	f1ba 0f39 	cmp.w	sl, #57	@ 0x39
 80058da:	d0ed      	beq.n	80058b8 <_dtoa_r+0x960>
 80058dc:	f10a 0301 	add.w	r3, sl, #1
 80058e0:	f88b 3000 	strb.w	r3, [fp]
 80058e4:	e52b      	b.n	800533e <_dtoa_r+0x3e6>
 80058e6:	9b02      	ldr	r3, [sp, #8]
 80058e8:	9a02      	ldr	r2, [sp, #8]
 80058ea:	f803 ac01 	strb.w	sl, [r3, #-1]
 80058ee:	9b0a      	ldr	r3, [sp, #40]	@ 0x28
 80058f0:	4293      	cmp	r3, r2
 80058f2:	d02c      	beq.n	800594e <_dtoa_r+0x9f6>
 80058f4:	9901      	ldr	r1, [sp, #4]
 80058f6:	2300      	movs	r3, #0
 80058f8:	220a      	movs	r2, #10
 80058fa:	4648      	mov	r0, r9
 80058fc:	f000 f9d6 	bl	8005cac <__multadd>
 8005900:	4544      	cmp	r4, r8
 8005902:	9001      	str	r0, [sp, #4]
 8005904:	f04f 0300 	mov.w	r3, #0
 8005908:	f04f 020a 	mov.w	r2, #10
 800590c:	4621      	mov	r1, r4
 800590e:	4648      	mov	r0, r9
 8005910:	d107      	bne.n	8005922 <_dtoa_r+0x9ca>
 8005912:	f000 f9cb 	bl	8005cac <__multadd>
 8005916:	4604      	mov	r4, r0
 8005918:	4680      	mov	r8, r0
 800591a:	9b02      	ldr	r3, [sp, #8]
 800591c:	3301      	adds	r3, #1
 800591e:	9302      	str	r3, [sp, #8]
 8005920:	e775      	b.n	800580e <_dtoa_r+0x8b6>
 8005922:	f000 f9c3 	bl	8005cac <__multadd>
 8005926:	4641      	mov	r1, r8
 8005928:	4604      	mov	r4, r0
 800592a:	2300      	movs	r3, #0
 800592c:	220a      	movs	r2, #10
 800592e:	4648      	mov	r0, r9
 8005930:	f000 f9bc 	bl	8005cac <__multadd>
 8005934:	4680      	mov	r8, r0
 8005936:	e7f0      	b.n	800591a <_dtoa_r+0x9c2>
 8005938:	f1bb 0f00 	cmp.w	fp, #0
 800593c:	f10b 35ff 	add.w	r5, fp, #4294967295
 8005940:	f107 0201 	add.w	r2, r7, #1
 8005944:	bfd8      	it	le
 8005946:	2500      	movle	r5, #0
 8005948:	46a0      	mov	r8, r4
 800594a:	4415      	add	r5, r2
 800594c:	2400      	movs	r4, #0
 800594e:	9901      	ldr	r1, [sp, #4]
 8005950:	2201      	movs	r2, #1
 8005952:	4648      	mov	r0, r9
 8005954:	f000 fba2 	bl	800609c <__lshift>
 8005958:	4631      	mov	r1, r6
 800595a:	9001      	str	r0, [sp, #4]
 800595c:	f000 fc0c 	bl	8006178 <__mcmp>
 8005960:	2800      	cmp	r0, #0
 8005962:	dcac      	bgt.n	80058be <_dtoa_r+0x966>
 8005964:	d102      	bne.n	800596c <_dtoa_r+0xa14>
 8005966:	f01a 0f01 	tst.w	sl, #1
 800596a:	d1a8      	bne.n	80058be <_dtoa_r+0x966>
 800596c:	462b      	mov	r3, r5
 800596e:	461d      	mov	r5, r3
 8005970:	f813 2d01 	ldrb.w	r2, [r3, #-1]!
 8005974:	2a30      	cmp	r2, #48	@ 0x30
 8005976:	d0fa      	beq.n	800596e <_dtoa_r+0xa16>
 8005978:	e4e1      	b.n	800533e <_dtoa_r+0x3e6>
 800597a:	429f      	cmp	r7, r3
 800597c:	d1a0      	bne.n	80058c0 <_dtoa_r+0x968>
 800597e:	9b03      	ldr	r3, [sp, #12]
 8005980:	3301      	adds	r3, #1
 8005982:	9303      	str	r3, [sp, #12]
 8005984:	2331      	movs	r3, #49	@ 0x31
 8005986:	703b      	strb	r3, [r7, #0]
 8005988:	e4d9      	b.n	800533e <_dtoa_r+0x3e6>
 800598a:	9b1d      	ldr	r3, [sp, #116]	@ 0x74
 800598c:	4f16      	ldr	r7, [pc, #88]	@ (80059e8 <_dtoa_r+0xa90>)
 800598e:	b11b      	cbz	r3, 8005998 <_dtoa_r+0xa40>
 8005990:	f107 0308 	add.w	r3, r7, #8
 8005994:	9a1d      	ldr	r2, [sp, #116]	@ 0x74
 8005996:	6013      	str	r3, [r2, #0]
 8005998:	4638      	mov	r0, r7
 800599a:	b011      	add	sp, #68	@ 0x44
 800599c:	ecbd 8b02 	vpop	{d8}
 80059a0:	e8bd 8ff0 	ldmia.w	sp!, {r4, r5, r6, r7, r8, r9, sl, fp, pc}
 80059a4:	9b05      	ldr	r3, [sp, #20]
 80059a6:	2b01      	cmp	r3, #1
 80059a8:	f77f ae29 	ble.w	80055fe <_dtoa_r+0x6a6>
 80059ac:	9b0a      	ldr	r3, [sp, #40]	@ 0x28
 80059ae:	930b      	str	r3, [sp, #44]	@ 0x2c
 80059b0:	2001      	movs	r0, #1
 80059b2:	e649      	b.n	8005648 <_dtoa_r+0x6f0>
 80059b4:	f1bb 0f00 	cmp.w	fp, #0
 80059b8:	f77f aed5 	ble.w	8005766 <_dtoa_r+0x80e>
 80059bc:	463d      	mov	r5, r7
 80059be:	9801      	ldr	r0, [sp, #4]
 80059c0:	4631      	mov	r1, r6
 80059c2:	f7ff fa41 	bl	8004e48 <quorem>
 80059c6:	f100 0a30 	add.w	sl, r0, #48	@ 0x30
 80059ca:	f805 ab01 	strb.w	sl, [r5], #1
 80059ce:	1bea      	subs	r2, r5, r7
 80059d0:	4593      	cmp	fp, r2
 80059d2:	ddb1      	ble.n	8005938 <_dtoa_r+0x9e0>
 80059d4:	9901      	ldr	r1, [sp, #4]
 80059d6:	2300      	movs	r3, #0
 80059d8:	220a      	movs	r2, #10
 80059da:	4648      	mov	r0, r9
 80059dc:	f000 f966 	bl	8005cac <__multadd>
 80059e0:	9001      	str	r0, [sp, #4]
 80059e2:	e7ec      	b.n	80059be <_dtoa_r+0xa66>
 80059e4:	080085a9 	.word	0x080085a9
 80059e8:	0800852d 	.word	0x0800852d

080059ec <_free_r>:
 80059ec:	b538      	push	{r3, r4, r5, lr}
 80059ee:	4605      	mov	r5, r0
 80059f0:	2900      	cmp	r1, #0
 80059f2:	d041      	beq.n	8005a78 <_free_r+0x8c>
 80059f4:	f851 3c04 	ldr.w	r3, [r1, #-4]
 80059f8:	1f0c      	subs	r4, r1, #4
 80059fa:	2b00      	cmp	r3, #0
 80059fc:	bfb8      	it	lt
 80059fe:	18e4      	addlt	r4, r4, r3
 8005a00:	f000 f8e8 	bl	8005bd4 <__malloc_lock>
 8005a04:	4a1d      	ldr	r2, [pc, #116]	@ (8005a7c <_free_r+0x90>)
 8005a06:	6813      	ldr	r3, [r2, #0]
 8005a08:	b933      	cbnz	r3, 8005a18 <_free_r+0x2c>
 8005a0a:	6063      	str	r3, [r4, #4]
 8005a0c:	6014      	str	r4, [r2, #0]
 8005a0e:	4628      	mov	r0, r5
 8005a10:	e8bd 4038 	ldmia.w	sp!, {r3, r4, r5, lr}
 8005a14:	f000 b8e4 	b.w	8005be0 <__malloc_unlock>
 8005a18:	42a3      	cmp	r3, r4
 8005a1a:	d908      	bls.n	8005a2e <_free_r+0x42>
 8005a1c:	6820      	ldr	r0, [r4, #0]
 8005a1e:	1821      	adds	r1, r4, r0
 8005a20:	428b      	cmp	r3, r1
 8005a22:	bf01      	itttt	eq
 8005a24:	6819      	ldreq	r1, [r3, #0]
 8005a26:	685b      	ldreq	r3, [r3, #4]
 8005a28:	1809      	addeq	r1, r1, r0
 8005a2a:	6021      	streq	r1, [r4, #0]
 8005a2c:	e7ed      	b.n	8005a0a <_free_r+0x1e>
 8005a2e:	461a      	mov	r2, r3
 8005a30:	685b      	ldr	r3, [r3, #4]
 8005a32:	b10b      	cbz	r3, 8005a38 <_free_r+0x4c>
 8005a34:	42a3      	cmp	r3, r4
 8005a36:	d9fa      	bls.n	8005a2e <_free_r+0x42>
 8005a38:	6811      	ldr	r1, [r2, #0]
 8005a3a:	1850      	adds	r0, r2, r1
 8005a3c:	42a0      	cmp	r0, r4
 8005a3e:	d10b      	bne.n	8005a58 <_free_r+0x6c>
 8005a40:	6820      	ldr	r0, [r4, #0]
 8005a42:	4401      	add	r1, r0
 8005a44:	1850      	adds	r0, r2, r1
 8005a46:	4283      	cmp	r3, r0
 8005a48:	6011      	str	r1, [r2, #0]
 8005a4a:	d1e0      	bne.n	8005a0e <_free_r+0x22>
 8005a4c:	6818      	ldr	r0, [r3, #0]
 8005a4e:	685b      	ldr	r3, [r3, #4]
 8005a50:	6053      	str	r3, [r2, #4]
 8005a52:	4408      	add	r0, r1
 8005a54:	6010      	str	r0, [r2, #0]
 8005a56:	e7da      	b.n	8005a0e <_free_r+0x22>
 8005a58:	d902      	bls.n	8005a60 <_free_r+0x74>
 8005a5a:	230c      	movs	r3, #12
 8005a5c:	602b      	str	r3, [r5, #0]
 8005a5e:	e7d6      	b.n	8005a0e <_free_r+0x22>
 8005a60:	6820      	ldr	r0, [r4, #0]
 8005a62:	1821      	adds	r1, r4, r0
 8005a64:	428b      	cmp	r3, r1
 8005a66:	bf04      	itt	eq
 8005a68:	6819      	ldreq	r1, [r3, #0]
 8005a6a:	685b      	ldreq	r3, [r3, #4]
 8005a6c:	6063      	str	r3, [r4, #4]
 8005a6e:	bf04      	itt	eq
 8005a70:	1809      	addeq	r1, r1, r0
 8005a72:	6021      	streq	r1, [r4, #0]
 8005a74:	6054      	str	r4, [r2, #4]
 8005a76:	e7ca      	b.n	8005a0e <_free_r+0x22>
 8005a78:	bd38      	pop	{r3, r4, r5, pc}
 8005a7a:	bf00      	nop
 8005a7c:	20000344 	.word	0x20000344

08005a80 <malloc>:
 8005a80:	4b02      	ldr	r3, [pc, #8]	@ (8005a8c <malloc+0xc>)
 8005a82:	4601      	mov	r1, r0
 8005a84:	6818      	ldr	r0, [r3, #0]
 8005a86:	f000 b825 	b.w	8005ad4 <_malloc_r>
 8005a8a:	bf00      	nop
 8005a8c:	2000001c 	.word	0x2000001c

08005a90 <sbrk_aligned>:
 8005a90:	b570      	push	{r4, r5, r6, lr}
 8005a92:	4e0f      	ldr	r6, [pc, #60]	@ (8005ad0 <sbrk_aligned+0x40>)
 8005a94:	460c      	mov	r4, r1
 8005a96:	6831      	ldr	r1, [r6, #0]
 8005a98:	4605      	mov	r5, r0
 8005a9a:	b911      	cbnz	r1, 8005aa2 <sbrk_aligned+0x12>
 8005a9c:	f001 ff82 	bl	80079a4 <_sbrk_r>
 8005aa0:	6030      	str	r0, [r6, #0]
 8005aa2:	4621      	mov	r1, r4
 8005aa4:	4628      	mov	r0, r5
 8005aa6:	f001 ff7d 	bl	80079a4 <_sbrk_r>
 8005aaa:	1c43      	adds	r3, r0, #1
 8005aac:	d103      	bne.n	8005ab6 <sbrk_aligned+0x26>
 8005aae:	f04f 34ff 	mov.w	r4, #4294967295
 8005ab2:	4620      	mov	r0, r4
 8005ab4:	bd70      	pop	{r4, r5, r6, pc}
 8005ab6:	1cc4      	adds	r4, r0, #3
 8005ab8:	f024 0403 	bic.w	r4, r4, #3
 8005abc:	42a0      	cmp	r0, r4
 8005abe:	d0f8      	beq.n	8005ab2 <sbrk_aligned+0x22>
 8005ac0:	1a21      	subs	r1, r4, r0
 8005ac2:	4628      	mov	r0, r5
 8005ac4:	f001 ff6e 	bl	80079a4 <_sbrk_r>
 8005ac8:	3001      	adds	r0, #1
 8005aca:	d1f2      	bne.n	8005ab2 <sbrk_aligned+0x22>
 8005acc:	e7ef      	b.n	8005aae <sbrk_aligned+0x1e>
 8005ace:	bf00      	nop
 8005ad0:	20000340 	.word	0x20000340

08005ad4 <_malloc_r>:
 8005ad4:	e92d 43f8 	stmdb	sp!, {r3, r4, r5, r6, r7, r8, r9, lr}
 8005ad8:	1ccd      	adds	r5, r1, #3
 8005ada:	f025 0503 	bic.w	r5, r5, #3
 8005ade:	3508      	adds	r5, #8
 8005ae0:	2d0c      	cmp	r5, #12
 8005ae2:	bf38      	it	cc
 8005ae4:	250c      	movcc	r5, #12
 8005ae6:	2d00      	cmp	r5, #0
 8005ae8:	4606      	mov	r6, r0
 8005aea:	db01      	blt.n	8005af0 <_malloc_r+0x1c>
 8005aec:	42a9      	cmp	r1, r5
 8005aee:	d904      	bls.n	8005afa <_malloc_r+0x26>
 8005af0:	230c      	movs	r3, #12
 8005af2:	6033      	str	r3, [r6, #0]
 8005af4:	2000      	movs	r0, #0
 8005af6:	e8bd 83f8 	ldmia.w	sp!, {r3, r4, r5, r6, r7, r8, r9, pc}
 8005afa:	f8df 80d4 	ldr.w	r8, [pc, #212]	@ 8005bd0 <_malloc_r+0xfc>
 8005afe:	f000 f869 	bl	8005bd4 <__malloc_lock>
 8005b02:	f8d8 3000 	ldr.w	r3, [r8]
 8005b06:	461c      	mov	r4, r3
 8005b08:	bb44      	cbnz	r4, 8005b5c <_malloc_r+0x88>
 8005b0a:	4629      	mov	r1, r5
 8005b0c:	4630      	mov	r0, r6
 8005b0e:	f7ff ffbf 	bl	8005a90 <sbrk_aligned>
 8005b12:	1c43      	adds	r3, r0, #1
 8005b14:	4604      	mov	r4, r0
 8005b16:	d158      	bne.n	8005bca <_malloc_r+0xf6>
 8005b18:	f8d8 4000 	ldr.w	r4, [r8]
 8005b1c:	4627      	mov	r7, r4
 8005b1e:	2f00      	cmp	r7, #0
 8005b20:	d143      	bne.n	8005baa <_malloc_r+0xd6>
 8005b22:	2c00      	cmp	r4, #0
 8005b24:	d04b      	beq.n	8005bbe <_malloc_r+0xea>
 8005b26:	6823      	ldr	r3, [r4, #0]
 8005b28:	4639      	mov	r1, r7
 8005b2a:	4630      	mov	r0, r6
 8005b2c:	eb04 0903 	add.w	r9, r4, r3
 8005b30:	f001 ff38 	bl	80079a4 <_sbrk_r>
 8005b34:	4581      	cmp	r9, r0
 8005b36:	d142      	bne.n	8005bbe <_malloc_r+0xea>
 8005b38:	6821      	ldr	r1, [r4, #0]
 8005b3a:	1a6d      	subs	r5, r5, r1
 8005b3c:	4629      	mov	r1, r5
 8005b3e:	4630      	mov	r0, r6
 8005b40:	f7ff ffa6 	bl	8005a90 <sbrk_aligned>
 8005b44:	3001      	adds	r0, #1
 8005b46:	d03a      	beq.n	8005bbe <_malloc_r+0xea>
 8005b48:	6823      	ldr	r3, [r4, #0]
 8005b4a:	442b      	add	r3, r5
 8005b4c:	6023      	str	r3, [r4, #0]
 8005b4e:	f8d8 3000 	ldr.w	r3, [r8]
 8005b52:	685a      	ldr	r2, [r3, #4]
 8005b54:	bb62      	cbnz	r2, 8005bb0 <_malloc_r+0xdc>
 8005b56:	f8c8 7000 	str.w	r7, [r8]
 8005b5a:	e00f      	b.n	8005b7c <_malloc_r+0xa8>
 8005b5c:	6822      	ldr	r2, [r4, #0]
 8005b5e:	1b52      	subs	r2, r2, r5
 8005b60:	d420      	bmi.n	8005ba4 <_malloc_r+0xd0>
 8005b62:	2a0b      	cmp	r2, #11
 8005b64:	d917      	bls.n	8005b96 <_malloc_r+0xc2>
 8005b66:	1961      	adds	r1, r4, r5
 8005b68:	42a3      	cmp	r3, r4
 8005b6a:	6025      	str	r5, [r4, #0]
 8005b6c:	bf18      	it	ne
 8005b6e:	6059      	strne	r1, [r3, #4]
 8005b70:	6863      	ldr	r3, [r4, #4]
 8005b72:	bf08      	it	eq
 8005b74:	f8c8 1000 	streq.w	r1, [r8]
 8005b78:	5162      	str	r2, [r4, r5]
 8005b7a:	604b      	str	r3, [r1, #4]
 8005b7c:	4630      	mov	r0, r6
 8005b7e:	f000 f82f 	bl	8005be0 <__malloc_unlock>
 8005b82:	f104 000b 	add.w	r0, r4, #11
 8005b86:	1d23      	adds	r3, r4, #4
 8005b88:	f020 0007 	bic.w	r0, r0, #7
 8005b8c:	1ac2      	subs	r2, r0, r3
 8005b8e:	bf1c      	itt	ne
 8005b90:	1a1b      	subne	r3, r3, r0
 8005b92:	50a3      	strne	r3, [r4, r2]
 8005b94:	e7af      	b.n	8005af6 <_malloc_r+0x22>
 8005b96:	6862      	ldr	r2, [r4, #4]
 8005b98:	42a3      	cmp	r3, r4
 8005b9a:	bf0c      	ite	eq
 8005b9c:	f8c8 2000 	streq.w	r2, [r8]
 8005ba0:	605a      	strne	r2, [r3, #4]
 8005ba2:	e7eb      	b.n	8005b7c <_malloc_r+0xa8>
 8005ba4:	4623      	mov	r3, r4
 8005ba6:	6864      	ldr	r4, [r4, #4]
 8005ba8:	e7ae      	b.n	8005b08 <_malloc_r+0x34>
 8005baa:	463c      	mov	r4, r7
 8005bac:	687f      	ldr	r7, [r7, #4]
 8005bae:	e7b6      	b.n	8005b1e <_malloc_r+0x4a>
 8005bb0:	461a      	mov	r2, r3
 8005bb2:	685b      	ldr	r3, [r3, #4]
 8005bb4:	42a3      	cmp	r3, r4
 8005bb6:	d1fb      	bne.n	8005bb0 <_malloc_r+0xdc>
 8005bb8:	2300      	movs	r3, #0
 8005bba:	6053      	str	r3, [r2, #4]
 8005bbc:	e7de      	b.n	8005b7c <_malloc_r+0xa8>
 8005bbe:	230c      	movs	r3, #12
 8005bc0:	6033      	str	r3, [r6, #0]
 8005bc2:	4630      	mov	r0, r6
 8005bc4:	f000 f80c 	bl	8005be0 <__malloc_unlock>
 8005bc8:	e794      	b.n	8005af4 <_malloc_r+0x20>
 8005bca:	6005      	str	r5, [r0, #0]
 8005bcc:	e7d6      	b.n	8005b7c <_malloc_r+0xa8>
 8005bce:	bf00      	nop
 8005bd0:	20000344 	.word	0x20000344

08005bd4 <__malloc_lock>:
 8005bd4:	4801      	ldr	r0, [pc, #4]	@ (8005bdc <__malloc_lock+0x8>)
 8005bd6:	f7ff b920 	b.w	8004e1a <__retarget_lock_acquire_recursive>
 8005bda:	bf00      	nop
 8005bdc:	2000033c 	.word	0x2000033c

08005be0 <__malloc_unlock>:
 8005be0:	4801      	ldr	r0, [pc, #4]	@ (8005be8 <__malloc_unlock+0x8>)
 8005be2:	f7ff b91b 	b.w	8004e1c <__retarget_lock_release_recursive>
 8005be6:	bf00      	nop
 8005be8:	2000033c 	.word	0x2000033c

08005bec <_Balloc>:
 8005bec:	b570      	push	{r4, r5, r6, lr}
 8005bee:	69c4      	ldr	r4, [r0, #28]
 8005bf0:	4605      	mov	r5, r0
 8005bf2:	460e      	mov	r6, r1
 8005bf4:	b984      	cbnz	r4, 8005c18 <_Balloc+0x2c>
 8005bf6:	2010      	movs	r0, #16
 8005bf8:	f7ff ff42 	bl	8005a80 <malloc>
 8005bfc:	4604      	mov	r4, r0
 8005bfe:	61e8      	str	r0, [r5, #28]
 8005c00:	b928      	cbnz	r0, 8005c0e <_Balloc+0x22>
 8005c02:	4602      	mov	r2, r0
 8005c04:	4b16      	ldr	r3, [pc, #88]	@ (8005c60 <_Balloc+0x74>)
 8005c06:	4817      	ldr	r0, [pc, #92]	@ (8005c64 <_Balloc+0x78>)
 8005c08:	216b      	movs	r1, #107	@ 0x6b
 8005c0a:	f001 fee5 	bl	80079d8 <__assert_func>
 8005c0e:	2300      	movs	r3, #0
 8005c10:	e9c0 3301 	strd	r3, r3, [r0, #4]
 8005c14:	6003      	str	r3, [r0, #0]
 8005c16:	60c3      	str	r3, [r0, #12]
 8005c18:	68e3      	ldr	r3, [r4, #12]
 8005c1a:	b953      	cbnz	r3, 8005c32 <_Balloc+0x46>
 8005c1c:	2221      	movs	r2, #33	@ 0x21
 8005c1e:	2104      	movs	r1, #4
 8005c20:	4628      	mov	r0, r5
 8005c22:	f001 fef7 	bl	8007a14 <_calloc_r>
 8005c26:	69eb      	ldr	r3, [r5, #28]
 8005c28:	60e0      	str	r0, [r4, #12]
 8005c2a:	68db      	ldr	r3, [r3, #12]
 8005c2c:	b90b      	cbnz	r3, 8005c32 <_Balloc+0x46>
 8005c2e:	2000      	movs	r0, #0
 8005c30:	bd70      	pop	{r4, r5, r6, pc}
 8005c32:	f853 0026 	ldr.w	r0, [r3, r6, lsl #2]
 8005c36:	b130      	cbz	r0, 8005c46 <_Balloc+0x5a>
 8005c38:	6802      	ldr	r2, [r0, #0]
 8005c3a:	f843 2026 	str.w	r2, [r3, r6, lsl #2]
 8005c3e:	2300      	movs	r3, #0
 8005c40:	e9c0 3303 	strd	r3, r3, [r0, #12]
 8005c44:	e7f4      	b.n	8005c30 <_Balloc+0x44>
 8005c46:	2101      	movs	r1, #1
 8005c48:	fa01 f406 	lsl.w	r4, r1, r6
 8005c4c:	1d62      	adds	r2, r4, #5
 8005c4e:	0092      	lsls	r2, r2, #2
 8005c50:	4628      	mov	r0, r5
 8005c52:	f001 fedf 	bl	8007a14 <_calloc_r>
 8005c56:	2800      	cmp	r0, #0
 8005c58:	d0e9      	beq.n	8005c2e <_Balloc+0x42>
 8005c5a:	e9c0 6401 	strd	r6, r4, [r0, #4]
 8005c5e:	e7ee      	b.n	8005c3e <_Balloc+0x52>
 8005c60:	0800853a 	.word	0x0800853a
 8005c64:	080085ba 	.word	0x080085ba

08005c68 <_Bfree>:
 8005c68:	b570      	push	{r4, r5, r6, lr}
 8005c6a:	69c6      	ldr	r6, [r0, #28]
 8005c6c:	4605      	mov	r5, r0
 8005c6e:	460c      	mov	r4, r1
 8005c70:	b976      	cbnz	r6, 8005c90 <_Bfree+0x28>
 8005c72:	2010      	movs	r0, #16
 8005c74:	f7ff ff04 	bl	8005a80 <malloc>
 8005c78:	4602      	mov	r2, r0
 8005c7a:	61e8      	str	r0, [r5, #28]
 8005c7c:	b920      	cbnz	r0, 8005c88 <_Bfree+0x20>
 8005c7e:	4b09      	ldr	r3, [pc, #36]	@ (8005ca4 <_Bfree+0x3c>)
 8005c80:	4809      	ldr	r0, [pc, #36]	@ (8005ca8 <_Bfree+0x40>)
 8005c82:	218f      	movs	r1, #143	@ 0x8f
 8005c84:	f001 fea8 	bl	80079d8 <__assert_func>
 8005c88:	e9c0 6601 	strd	r6, r6, [r0, #4]
 8005c8c:	6006      	str	r6, [r0, #0]
 8005c8e:	60c6      	str	r6, [r0, #12]
 8005c90:	b13c      	cbz	r4, 8005ca2 <_Bfree+0x3a>
 8005c92:	69eb      	ldr	r3, [r5, #28]
 8005c94:	6862      	ldr	r2, [r4, #4]
 8005c96:	68db      	ldr	r3, [r3, #12]
 8005c98:	f853 1022 	ldr.w	r1, [r3, r2, lsl #2]
 8005c9c:	6021      	str	r1, [r4, #0]
 8005c9e:	f843 4022 	str.w	r4, [r3, r2, lsl #2]
 8005ca2:	bd70      	pop	{r4, r5, r6, pc}
 8005ca4:	0800853a 	.word	0x0800853a
 8005ca8:	080085ba 	.word	0x080085ba

08005cac <__multadd>:
 8005cac:	e92d 41f0 	stmdb	sp!, {r4, r5, r6, r7, r8, lr}
 8005cb0:	690d      	ldr	r5, [r1, #16]
 8005cb2:	4607      	mov	r7, r0
 8005cb4:	460c      	mov	r4, r1
 8005cb6:	461e      	mov	r6, r3
 8005cb8:	f101 0c14 	add.w	ip, r1, #20
 8005cbc:	2000      	movs	r0, #0
 8005cbe:	f8dc 3000 	ldr.w	r3, [ip]
 8005cc2:	b299      	uxth	r1, r3
 8005cc4:	fb02 6101 	mla	r1, r2, r1, r6
 8005cc8:	0c1e      	lsrs	r6, r3, #16
 8005cca:	0c0b      	lsrs	r3, r1, #16
 8005ccc:	fb02 3306 	mla	r3, r2, r6, r3
 8005cd0:	b289      	uxth	r1, r1
 8005cd2:	3001      	adds	r0, #1
 8005cd4:	eb01 4103 	add.w	r1, r1, r3, lsl #16
 8005cd8:	4285      	cmp	r5, r0
 8005cda:	f84c 1b04 	str.w	r1, [ip], #4
 8005cde:	ea4f 4613 	mov.w	r6, r3, lsr #16
 8005ce2:	dcec      	bgt.n	8005cbe <__multadd+0x12>
 8005ce4:	b30e      	cbz	r6, 8005d2a <__multadd+0x7e>
 8005ce6:	68a3      	ldr	r3, [r4, #8]
 8005ce8:	42ab      	cmp	r3, r5
 8005cea:	dc19      	bgt.n	8005d20 <__multadd+0x74>
 8005cec:	6861      	ldr	r1, [r4, #4]
 8005cee:	4638      	mov	r0, r7
 8005cf0:	3101      	adds	r1, #1
 8005cf2:	f7ff ff7b 	bl	8005bec <_Balloc>
 8005cf6:	4680      	mov	r8, r0
 8005cf8:	b928      	cbnz	r0, 8005d06 <__multadd+0x5a>
 8005cfa:	4602      	mov	r2, r0
 8005cfc:	4b0c      	ldr	r3, [pc, #48]	@ (8005d30 <__multadd+0x84>)
 8005cfe:	480d      	ldr	r0, [pc, #52]	@ (8005d34 <__multadd+0x88>)
 8005d00:	21ba      	movs	r1, #186	@ 0xba
 8005d02:	f001 fe69 	bl	80079d8 <__assert_func>
 8005d06:	6922      	ldr	r2, [r4, #16]
 8005d08:	3202      	adds	r2, #2
 8005d0a:	f104 010c 	add.w	r1, r4, #12
 8005d0e:	0092      	lsls	r2, r2, #2
 8005d10:	300c      	adds	r0, #12
 8005d12:	f7ff f884 	bl	8004e1e <memcpy>
 8005d16:	4621      	mov	r1, r4
 8005d18:	4638      	mov	r0, r7
 8005d1a:	f7ff ffa5 	bl	8005c68 <_Bfree>
 8005d1e:	4644      	mov	r4, r8
 8005d20:	eb04 0385 	add.w	r3, r4, r5, lsl #2
 8005d24:	3501      	adds	r5, #1
 8005d26:	615e      	str	r6, [r3, #20]
 8005d28:	6125      	str	r5, [r4, #16]
 8005d2a:	4620      	mov	r0, r4
 8005d2c:	e8bd 81f0 	ldmia.w	sp!, {r4, r5, r6, r7, r8, pc}
 8005d30:	080085a9 	.word	0x080085a9
 8005d34:	080085ba 	.word	0x080085ba

08005d38 <__s2b>:
 8005d38:	e92d 43f8 	stmdb	sp!, {r3, r4, r5, r6, r7, r8, r9, lr}
 8005d3c:	460c      	mov	r4, r1
 8005d3e:	4615      	mov	r5, r2
 8005d40:	461f      	mov	r7, r3
 8005d42:	2209      	movs	r2, #9
 8005d44:	3308      	adds	r3, #8
 8005d46:	4606      	mov	r6, r0
 8005d48:	fb93 f3f2 	sdiv	r3, r3, r2
 8005d4c:	2100      	movs	r1, #0
 8005d4e:	2201      	movs	r2, #1
 8005d50:	429a      	cmp	r2, r3
 8005d52:	db09      	blt.n	8005d68 <__s2b+0x30>
 8005d54:	4630      	mov	r0, r6
 8005d56:	f7ff ff49 	bl	8005bec <_Balloc>
 8005d5a:	b940      	cbnz	r0, 8005d6e <__s2b+0x36>
 8005d5c:	4602      	mov	r2, r0
 8005d5e:	4b19      	ldr	r3, [pc, #100]	@ (8005dc4 <__s2b+0x8c>)
 8005d60:	4819      	ldr	r0, [pc, #100]	@ (8005dc8 <__s2b+0x90>)
 8005d62:	21d3      	movs	r1, #211	@ 0xd3
 8005d64:	f001 fe38 	bl	80079d8 <__assert_func>
 8005d68:	0052      	lsls	r2, r2, #1
 8005d6a:	3101      	adds	r1, #1
 8005d6c:	e7f0      	b.n	8005d50 <__s2b+0x18>
 8005d6e:	9b08      	ldr	r3, [sp, #32]
 8005d70:	6143      	str	r3, [r0, #20]
 8005d72:	2d09      	cmp	r5, #9
 8005d74:	f04f 0301 	mov.w	r3, #1
 8005d78:	6103      	str	r3, [r0, #16]
 8005d7a:	dd16      	ble.n	8005daa <__s2b+0x72>
 8005d7c:	f104 0809 	add.w	r8, r4, #9
 8005d80:	46c1      	mov	r9, r8
 8005d82:	442c      	add	r4, r5
 8005d84:	f819 3b01 	ldrb.w	r3, [r9], #1
 8005d88:	4601      	mov	r1, r0
 8005d8a:	3b30      	subs	r3, #48	@ 0x30
 8005d8c:	220a      	movs	r2, #10
 8005d8e:	4630      	mov	r0, r6
 8005d90:	f7ff ff8c 	bl	8005cac <__multadd>
 8005d94:	45a1      	cmp	r9, r4
 8005d96:	d1f5      	bne.n	8005d84 <__s2b+0x4c>
 8005d98:	44a8      	add	r8, r5
 8005d9a:	f1a8 0408 	sub.w	r4, r8, #8
 8005d9e:	1b2d      	subs	r5, r5, r4
 8005da0:	1963      	adds	r3, r4, r5
 8005da2:	429f      	cmp	r7, r3
 8005da4:	dc04      	bgt.n	8005db0 <__s2b+0x78>
 8005da6:	e8bd 83f8 	ldmia.w	sp!, {r3, r4, r5, r6, r7, r8, r9, pc}
 8005daa:	340a      	adds	r4, #10
 8005dac:	2509      	movs	r5, #9
 8005dae:	e7f6      	b.n	8005d9e <__s2b+0x66>
 8005db0:	f814 3b01 	ldrb.w	r3, [r4], #1
 8005db4:	4601      	mov	r1, r0
 8005db6:	3b30      	subs	r3, #48	@ 0x30
 8005db8:	220a      	movs	r2, #10
 8005dba:	4630      	mov	r0, r6
 8005dbc:	f7ff ff76 	bl	8005cac <__multadd>
 8005dc0:	e7ee      	b.n	8005da0 <__s2b+0x68>
 8005dc2:	bf00      	nop
 8005dc4:	080085a9 	.word	0x080085a9
 8005dc8:	080085ba 	.word	0x080085ba

08005dcc <__hi0bits>:
 8005dcc:	f5b0 3f80 	cmp.w	r0, #65536	@ 0x10000
 8005dd0:	4603      	mov	r3, r0
 8005dd2:	bf36      	itet	cc
 8005dd4:	0403      	lslcc	r3, r0, #16
 8005dd6:	2000      	movcs	r0, #0
 8005dd8:	2010      	movcc	r0, #16
 8005dda:	f1b3 7f80 	cmp.w	r3, #16777216	@ 0x1000000
 8005dde:	bf3c      	itt	cc
 8005de0:	021b      	lslcc	r3, r3, #8
 8005de2:	3008      	addcc	r0, #8
 8005de4:	f1b3 5f80 	cmp.w	r3, #268435456	@ 0x10000000
 8005de8:	bf3c      	itt	cc
 8005dea:	011b      	lslcc	r3, r3, #4
 8005dec:	3004      	addcc	r0, #4
 8005dee:	f1b3 4f80 	cmp.w	r3, #1073741824	@ 0x40000000
 8005df2:	bf3c      	itt	cc
 8005df4:	009b      	lslcc	r3, r3, #2
 8005df6:	3002      	addcc	r0, #2
 8005df8:	2b00      	cmp	r3, #0
 8005dfa:	db05      	blt.n	8005e08 <__hi0bits+0x3c>
 8005dfc:	f013 4f80 	tst.w	r3, #1073741824	@ 0x40000000
 8005e00:	f100 0001 	add.w	r0, r0, #1
 8005e04:	bf08      	it	eq
 8005e06:	2020      	moveq	r0, #32
 8005e08:	4770      	bx	lr

08005e0a <__lo0bits>:
 8005e0a:	6803      	ldr	r3, [r0, #0]
 8005e0c:	4602      	mov	r2, r0
 8005e0e:	f013 0007 	ands.w	r0, r3, #7
 8005e12:	d00b      	beq.n	8005e2c <__lo0bits+0x22>
 8005e14:	07d9      	lsls	r1, r3, #31
 8005e16:	d421      	bmi.n	8005e5c <__lo0bits+0x52>
 8005e18:	0798      	lsls	r0, r3, #30
 8005e1a:	bf49      	itett	mi
 8005e1c:	085b      	lsrmi	r3, r3, #1
 8005e1e:	089b      	lsrpl	r3, r3, #2
 8005e20:	2001      	movmi	r0, #1
 8005e22:	6013      	strmi	r3, [r2, #0]
 8005e24:	bf5c      	itt	pl
 8005e26:	6013      	strpl	r3, [r2, #0]
 8005e28:	2002      	movpl	r0, #2
 8005e2a:	4770      	bx	lr
 8005e2c:	b299      	uxth	r1, r3
 8005e2e:	b909      	cbnz	r1, 8005e34 <__lo0bits+0x2a>
 8005e30:	0c1b      	lsrs	r3, r3, #16
 8005e32:	2010      	movs	r0, #16
 8005e34:	b2d9      	uxtb	r1, r3
 8005e36:	b909      	cbnz	r1, 8005e3c <__lo0bits+0x32>
 8005e38:	3008      	adds	r0, #8
 8005e3a:	0a1b      	lsrs	r3, r3, #8
 8005e3c:	0719      	lsls	r1, r3, #28
 8005e3e:	bf04      	itt	eq
 8005e40:	091b      	lsreq	r3, r3, #4
 8005e42:	3004      	addeq	r0, #4
 8005e44:	0799      	lsls	r1, r3, #30
 8005e46:	bf04      	itt	eq
 8005e48:	089b      	lsreq	r3, r3, #2
 8005e4a:	3002      	addeq	r0, #2
 8005e4c:	07d9      	lsls	r1, r3, #31
 8005e4e:	d403      	bmi.n	8005e58 <__lo0bits+0x4e>
 8005e50:	085b      	lsrs	r3, r3, #1
 8005e52:	f100 0001 	add.w	r0, r0, #1
 8005e56:	d003      	beq.n	8005e60 <__lo0bits+0x56>
 8005e58:	6013      	str	r3, [r2, #0]
 8005e5a:	4770      	bx	lr
 8005e5c:	2000      	movs	r0, #0
 8005e5e:	4770      	bx	lr
 8005e60:	2020      	movs	r0, #32
 8005e62:	4770      	bx	lr

08005e64 <__i2b>:
 8005e64:	b510      	push	{r4, lr}
 8005e66:	460c      	mov	r4, r1
 8005e68:	2101      	movs	r1, #1
 8005e6a:	f7ff febf 	bl	8005bec <_Balloc>
 8005e6e:	4602      	mov	r2, r0
 8005e70:	b928      	cbnz	r0, 8005e7e <__i2b+0x1a>
 8005e72:	4b05      	ldr	r3, [pc, #20]	@ (8005e88 <__i2b+0x24>)
 8005e74:	4805      	ldr	r0, [pc, #20]	@ (8005e8c <__i2b+0x28>)
 8005e76:	f240 1145 	movw	r1, #325	@ 0x145
 8005e7a:	f001 fdad 	bl	80079d8 <__assert_func>
 8005e7e:	2301      	movs	r3, #1
 8005e80:	6144      	str	r4, [r0, #20]
 8005e82:	6103      	str	r3, [r0, #16]
 8005e84:	bd10      	pop	{r4, pc}
 8005e86:	bf00      	nop
 8005e88:	080085a9 	.word	0x080085a9
 8005e8c:	080085ba 	.word	0x080085ba

08005e90 <__multiply>:
 8005e90:	e92d 4ff0 	stmdb	sp!, {r4, r5, r6, r7, r8, r9, sl, fp, lr}
 8005e94:	f8d1 9010 	ldr.w	r9, [r1, #16]
 8005e98:	f8d2 a010 	ldr.w	sl, [r2, #16]
 8005e9c:	45d1      	cmp	r9, sl
 8005e9e:	b085      	sub	sp, #20
 8005ea0:	4688      	mov	r8, r1
 8005ea2:	4614      	mov	r4, r2
 8005ea4:	db04      	blt.n	8005eb0 <__multiply+0x20>
 8005ea6:	4653      	mov	r3, sl
 8005ea8:	460c      	mov	r4, r1
 8005eaa:	46ca      	mov	sl, r9
 8005eac:	4690      	mov	r8, r2
 8005eae:	4699      	mov	r9, r3
 8005eb0:	68a3      	ldr	r3, [r4, #8]
 8005eb2:	6861      	ldr	r1, [r4, #4]
 8005eb4:	eb0a 0609 	add.w	r6, sl, r9
 8005eb8:	42b3      	cmp	r3, r6
 8005eba:	bfb8      	it	lt
 8005ebc:	3101      	addlt	r1, #1
 8005ebe:	f7ff fe95 	bl	8005bec <_Balloc>
 8005ec2:	b930      	cbnz	r0, 8005ed2 <__multiply+0x42>
 8005ec4:	4602      	mov	r2, r0
 8005ec6:	4b45      	ldr	r3, [pc, #276]	@ (8005fdc <__multiply+0x14c>)
 8005ec8:	4845      	ldr	r0, [pc, #276]	@ (8005fe0 <__multiply+0x150>)
 8005eca:	f44f 71b1 	mov.w	r1, #354	@ 0x162
 8005ece:	f001 fd83 	bl	80079d8 <__assert_func>
 8005ed2:	f100 0514 	add.w	r5, r0, #20
 8005ed6:	eb05 0786 	add.w	r7, r5, r6, lsl #2
 8005eda:	462b      	mov	r3, r5
 8005edc:	2200      	movs	r2, #0
 8005ede:	42bb      	cmp	r3, r7
 8005ee0:	d31f      	bcc.n	8005f22 <__multiply+0x92>
 8005ee2:	f104 0c14 	add.w	ip, r4, #20
 8005ee6:	f108 0114 	add.w	r1, r8, #20
 8005eea:	eb0c 038a 	add.w	r3, ip, sl, lsl #2
 8005eee:	eb01 0289 	add.w	r2, r1, r9, lsl #2
 8005ef2:	9202      	str	r2, [sp, #8]
 8005ef4:	1b1a      	subs	r2, r3, r4
 8005ef6:	3a15      	subs	r2, #21
 8005ef8:	f022 0203 	bic.w	r2, r2, #3
 8005efc:	3415      	adds	r4, #21
 8005efe:	429c      	cmp	r4, r3
 8005f00:	bf88      	it	hi
 8005f02:	2200      	movhi	r2, #0
 8005f04:	9201      	str	r2, [sp, #4]
 8005f06:	9a02      	ldr	r2, [sp, #8]
 8005f08:	9103      	str	r1, [sp, #12]
 8005f0a:	428a      	cmp	r2, r1
 8005f0c:	d80c      	bhi.n	8005f28 <__multiply+0x98>
 8005f0e:	2e00      	cmp	r6, #0
 8005f10:	dd03      	ble.n	8005f1a <__multiply+0x8a>
 8005f12:	f857 3d04 	ldr.w	r3, [r7, #-4]!
 8005f16:	2b00      	cmp	r3, #0
 8005f18:	d05d      	beq.n	8005fd6 <__multiply+0x146>
 8005f1a:	6106      	str	r6, [r0, #16]
 8005f1c:	b005      	add	sp, #20
 8005f1e:	e8bd 8ff0 	ldmia.w	sp!, {r4, r5, r6, r7, r8, r9, sl, fp, pc}
 8005f22:	f843 2b04 	str.w	r2, [r3], #4
 8005f26:	e7da      	b.n	8005ede <__multiply+0x4e>
 8005f28:	f8b1 a000 	ldrh.w	sl, [r1]
 8005f2c:	f1ba 0f00 	cmp.w	sl, #0
 8005f30:	d024      	beq.n	8005f7c <__multiply+0xec>
 8005f32:	46e0      	mov	r8, ip
 8005f34:	46a9      	mov	r9, r5
 8005f36:	f04f 0e00 	mov.w	lr, #0
 8005f3a:	f858 2b04 	ldr.w	r2, [r8], #4
 8005f3e:	f8d9 4000 	ldr.w	r4, [r9]
 8005f42:	fa1f fb82 	uxth.w	fp, r2
 8005f46:	b2a4      	uxth	r4, r4
 8005f48:	fb0a 440b 	mla	r4, sl, fp, r4
 8005f4c:	ea4f 4b12 	mov.w	fp, r2, lsr #16
 8005f50:	f8d9 2000 	ldr.w	r2, [r9]
 8005f54:	4474      	add	r4, lr
 8005f56:	ea4f 4e12 	mov.w	lr, r2, lsr #16
 8005f5a:	fb0a e20b 	mla	r2, sl, fp, lr
 8005f5e:	eb02 4214 	add.w	r2, r2, r4, lsr #16
 8005f62:	b2a4      	uxth	r4, r4
 8005f64:	ea44 4402 	orr.w	r4, r4, r2, lsl #16
 8005f68:	4543      	cmp	r3, r8
 8005f6a:	f849 4b04 	str.w	r4, [r9], #4
 8005f6e:	ea4f 4e12 	mov.w	lr, r2, lsr #16
 8005f72:	d8e2      	bhi.n	8005f3a <__multiply+0xaa>
 8005f74:	9a01      	ldr	r2, [sp, #4]
 8005f76:	18aa      	adds	r2, r5, r2
 8005f78:	f8c2 e004 	str.w	lr, [r2, #4]
 8005f7c:	9a03      	ldr	r2, [sp, #12]
 8005f7e:	f8b2 8002 	ldrh.w	r8, [r2, #2]
 8005f82:	3104      	adds	r1, #4
 8005f84:	f1b8 0f00 	cmp.w	r8, #0
 8005f88:	d023      	beq.n	8005fd2 <__multiply+0x142>
 8005f8a:	682a      	ldr	r2, [r5, #0]
 8005f8c:	46e6      	mov	lr, ip
 8005f8e:	4691      	mov	r9, r2
 8005f90:	46aa      	mov	sl, r5
 8005f92:	f04f 0b00 	mov.w	fp, #0
 8005f96:	f8be 4000 	ldrh.w	r4, [lr]
 8005f9a:	fb08 b404 	mla	r4, r8, r4, fp
 8005f9e:	eb04 4419 	add.w	r4, r4, r9, lsr #16
 8005fa2:	b292      	uxth	r2, r2
 8005fa4:	ea42 4204 	orr.w	r2, r2, r4, lsl #16
 8005fa8:	f84a 2b04 	str.w	r2, [sl], #4
 8005fac:	f85e 2b04 	ldr.w	r2, [lr], #4
 8005fb0:	f8da 9000 	ldr.w	r9, [sl]
 8005fb4:	ea4f 4b12 	mov.w	fp, r2, lsr #16
 8005fb8:	fa1f f289 	uxth.w	r2, r9
 8005fbc:	fb08 220b 	mla	r2, r8, fp, r2
 8005fc0:	eb02 4214 	add.w	r2, r2, r4, lsr #16
 8005fc4:	4573      	cmp	r3, lr
 8005fc6:	ea4f 4b12 	mov.w	fp, r2, lsr #16
 8005fca:	d8e4      	bhi.n	8005f96 <__multiply+0x106>
 8005fcc:	9c01      	ldr	r4, [sp, #4]
 8005fce:	192c      	adds	r4, r5, r4
 8005fd0:	6062      	str	r2, [r4, #4]
 8005fd2:	3504      	adds	r5, #4
 8005fd4:	e797      	b.n	8005f06 <__multiply+0x76>
 8005fd6:	3e01      	subs	r6, #1
 8005fd8:	e799      	b.n	8005f0e <__multiply+0x7e>
 8005fda:	bf00      	nop
 8005fdc:	080085a9 	.word	0x080085a9
 8005fe0:	080085ba 	.word	0x080085ba

08005fe4 <__pow5mult>:
 8005fe4:	e92d 43f8 	stmdb	sp!, {r3, r4, r5, r6, r7, r8, r9, lr}
 8005fe8:	4617      	mov	r7, r2
 8005fea:	f012 0203 	ands.w	r2, r2, #3
 8005fee:	4680      	mov	r8, r0
 8005ff0:	460d      	mov	r5, r1
 8005ff2:	d007      	beq.n	8006004 <__pow5mult+0x20>
 8005ff4:	4c26      	ldr	r4, [pc, #152]	@ (8006090 <__pow5mult+0xac>)
 8005ff6:	3a01      	subs	r2, #1
 8005ff8:	2300      	movs	r3, #0
 8005ffa:	f854 2022 	ldr.w	r2, [r4, r2, lsl #2]
 8005ffe:	f7ff fe55 	bl	8005cac <__multadd>
 8006002:	4605      	mov	r5, r0
 8006004:	10bf      	asrs	r7, r7, #2
 8006006:	d03f      	beq.n	8006088 <__pow5mult+0xa4>
 8006008:	f8d8 401c 	ldr.w	r4, [r8, #28]
 800600c:	b994      	cbnz	r4, 8006034 <__pow5mult+0x50>
 800600e:	2010      	movs	r0, #16
 8006010:	f7ff fd36 	bl	8005a80 <malloc>
 8006014:	4604      	mov	r4, r0
 8006016:	f8c8 001c 	str.w	r0, [r8, #28]
 800601a:	b930      	cbnz	r0, 800602a <__pow5mult+0x46>
 800601c:	4602      	mov	r2, r0
 800601e:	4b1d      	ldr	r3, [pc, #116]	@ (8006094 <__pow5mult+0xb0>)
 8006020:	481d      	ldr	r0, [pc, #116]	@ (8006098 <__pow5mult+0xb4>)
 8006022:	f240 11b3 	movw	r1, #435	@ 0x1b3
 8006026:	f001 fcd7 	bl	80079d8 <__assert_func>
 800602a:	2300      	movs	r3, #0
 800602c:	e9c0 3301 	strd	r3, r3, [r0, #4]
 8006030:	6003      	str	r3, [r0, #0]
 8006032:	60c3      	str	r3, [r0, #12]
 8006034:	68a6      	ldr	r6, [r4, #8]
 8006036:	b946      	cbnz	r6, 800604a <__pow5mult+0x66>
 8006038:	f240 2171 	movw	r1, #625	@ 0x271
 800603c:	4640      	mov	r0, r8
 800603e:	f7ff ff11 	bl	8005e64 <__i2b>
 8006042:	2300      	movs	r3, #0
 8006044:	60a0      	str	r0, [r4, #8]
 8006046:	4606      	mov	r6, r0
 8006048:	6003      	str	r3, [r0, #0]
 800604a:	462c      	mov	r4, r5
 800604c:	f04f 0900 	mov.w	r9, #0
 8006050:	f007 0301 	and.w	r3, r7, #1
 8006054:	107f      	asrs	r7, r7, #1
 8006056:	b153      	cbz	r3, 800606e <__pow5mult+0x8a>
 8006058:	4629      	mov	r1, r5
 800605a:	4632      	mov	r2, r6
 800605c:	4640      	mov	r0, r8
 800605e:	f7ff ff17 	bl	8005e90 <__multiply>
 8006062:	4621      	mov	r1, r4
 8006064:	4605      	mov	r5, r0
 8006066:	4640      	mov	r0, r8
 8006068:	f7ff fdfe 	bl	8005c68 <_Bfree>
 800606c:	b167      	cbz	r7, 8006088 <__pow5mult+0xa4>
 800606e:	6830      	ldr	r0, [r6, #0]
 8006070:	b938      	cbnz	r0, 8006082 <__pow5mult+0x9e>
 8006072:	4632      	mov	r2, r6
 8006074:	4631      	mov	r1, r6
 8006076:	4640      	mov	r0, r8
 8006078:	f7ff ff0a 	bl	8005e90 <__multiply>
 800607c:	6030      	str	r0, [r6, #0]
 800607e:	f8c0 9000 	str.w	r9, [r0]
 8006082:	4606      	mov	r6, r0
 8006084:	462c      	mov	r4, r5
 8006086:	e7e3      	b.n	8006050 <__pow5mult+0x6c>
 8006088:	4628      	mov	r0, r5
 800608a:	e8bd 83f8 	ldmia.w	sp!, {r3, r4, r5, r6, r7, r8, r9, pc}
 800608e:	bf00      	nop
 8006090:	080086cc 	.word	0x080086cc
 8006094:	0800853a 	.word	0x0800853a
 8006098:	080085ba 	.word	0x080085ba

0800609c <__lshift>:
 800609c:	e92d 4ff8 	stmdb	sp!, {r3, r4, r5, r6, r7, r8, r9, sl, fp, lr}
 80060a0:	460c      	mov	r4, r1
 80060a2:	6849      	ldr	r1, [r1, #4]
 80060a4:	6923      	ldr	r3, [r4, #16]
 80060a6:	eb03 1862 	add.w	r8, r3, r2, asr #5
 80060aa:	68a3      	ldr	r3, [r4, #8]
 80060ac:	4607      	mov	r7, r0
 80060ae:	4615      	mov	r5, r2
 80060b0:	ea4f 1a62 	mov.w	sl, r2, asr #5
 80060b4:	f108 0901 	add.w	r9, r8, #1
 80060b8:	454b      	cmp	r3, r9
 80060ba:	db0b      	blt.n	80060d4 <__lshift+0x38>
 80060bc:	4638      	mov	r0, r7
 80060be:	f7ff fd95 	bl	8005bec <_Balloc>
 80060c2:	4606      	mov	r6, r0
 80060c4:	b948      	cbnz	r0, 80060da <__lshift+0x3e>
 80060c6:	4602      	mov	r2, r0
 80060c8:	4b29      	ldr	r3, [pc, #164]	@ (8006170 <__lshift+0xd4>)
 80060ca:	482a      	ldr	r0, [pc, #168]	@ (8006174 <__lshift+0xd8>)
 80060cc:	f44f 71ef 	mov.w	r1, #478	@ 0x1de
 80060d0:	f001 fc82 	bl	80079d8 <__assert_func>
 80060d4:	3101      	adds	r1, #1
 80060d6:	005b      	lsls	r3, r3, #1
 80060d8:	e7ee      	b.n	80060b8 <__lshift+0x1c>
 80060da:	2300      	movs	r3, #0
 80060dc:	f100 0c14 	add.w	ip, r0, #20
 80060e0:	f100 0210 	add.w	r2, r0, #16
 80060e4:	4619      	mov	r1, r3
 80060e6:	4553      	cmp	r3, sl
 80060e8:	db35      	blt.n	8006156 <__lshift+0xba>
 80060ea:	6922      	ldr	r2, [r4, #16]
 80060ec:	ea2a 7aea 	bic.w	sl, sl, sl, asr #31
 80060f0:	eb0c 0c8a 	add.w	ip, ip, sl, lsl #2
 80060f4:	f104 0314 	add.w	r3, r4, #20
 80060f8:	f015 0e1f 	ands.w	lr, r5, #31
 80060fc:	4661      	mov	r1, ip
 80060fe:	eb03 0282 	add.w	r2, r3, r2, lsl #2
 8006102:	d02c      	beq.n	800615e <__lshift+0xc2>
 8006104:	f1ce 0a20 	rsb	sl, lr, #32
 8006108:	2500      	movs	r5, #0
 800610a:	6818      	ldr	r0, [r3, #0]
 800610c:	468b      	mov	fp, r1
 800610e:	fa00 f00e 	lsl.w	r0, r0, lr
 8006112:	4328      	orrs	r0, r5
 8006114:	f8cb 0000 	str.w	r0, [fp]
 8006118:	f853 5b04 	ldr.w	r5, [r3], #4
 800611c:	429a      	cmp	r2, r3
 800611e:	f101 0104 	add.w	r1, r1, #4
 8006122:	fa25 f50a 	lsr.w	r5, r5, sl
 8006126:	d8f0      	bhi.n	800610a <__lshift+0x6e>
 8006128:	1b13      	subs	r3, r2, r4
 800612a:	3b15      	subs	r3, #21
 800612c:	f023 0303 	bic.w	r3, r3, #3
 8006130:	f104 0115 	add.w	r1, r4, #21
 8006134:	428a      	cmp	r2, r1
 8006136:	bf38      	it	cc
 8006138:	2300      	movcc	r3, #0
 800613a:	449c      	add	ip, r3
 800613c:	f8cc 5004 	str.w	r5, [ip, #4]
 8006140:	b905      	cbnz	r5, 8006144 <__lshift+0xa8>
 8006142:	46c1      	mov	r9, r8
 8006144:	4638      	mov	r0, r7
 8006146:	f8c6 9010 	str.w	r9, [r6, #16]
 800614a:	4621      	mov	r1, r4
 800614c:	f7ff fd8c 	bl	8005c68 <_Bfree>
 8006150:	4630      	mov	r0, r6
 8006152:	e8bd 8ff8 	ldmia.w	sp!, {r3, r4, r5, r6, r7, r8, r9, sl, fp, pc}
 8006156:	f842 1f04 	str.w	r1, [r2, #4]!
 800615a:	3301      	adds	r3, #1
 800615c:	e7c3      	b.n	80060e6 <__lshift+0x4a>
 800615e:	f853 5b04 	ldr.w	r5, [r3], #4
 8006162:	600d      	str	r5, [r1, #0]
 8006164:	429a      	cmp	r2, r3
 8006166:	f101 0104 	add.w	r1, r1, #4
 800616a:	d8f8      	bhi.n	800615e <__lshift+0xc2>
 800616c:	e7e9      	b.n	8006142 <__lshift+0xa6>
 800616e:	bf00      	nop
 8006170:	080085a9 	.word	0x080085a9
 8006174:	080085ba 	.word	0x080085ba

08006178 <__mcmp>:
 8006178:	690a      	ldr	r2, [r1, #16]
 800617a:	4603      	mov	r3, r0
 800617c:	6900      	ldr	r0, [r0, #16]
 800617e:	1a80      	subs	r0, r0, r2
 8006180:	b530      	push	{r4, r5, lr}
 8006182:	d10e      	bne.n	80061a2 <__mcmp+0x2a>
 8006184:	3314      	adds	r3, #20
 8006186:	3114      	adds	r1, #20
 8006188:	eb03 0482 	add.w	r4, r3, r2, lsl #2
 800618c:	eb01 0182 	add.w	r1, r1, r2, lsl #2
 8006190:	f854 5d04 	ldr.w	r5, [r4, #-4]!
 8006194:	f851 2d04 	ldr.w	r2, [r1, #-4]!
 8006198:	4295      	cmp	r5, r2
 800619a:	d003      	beq.n	80061a4 <__mcmp+0x2c>
 800619c:	d205      	bcs.n	80061aa <__mcmp+0x32>
 800619e:	f04f 30ff 	mov.w	r0, #4294967295
 80061a2:	bd30      	pop	{r4, r5, pc}
 80061a4:	42a3      	cmp	r3, r4
 80061a6:	d3f3      	bcc.n	8006190 <__mcmp+0x18>
 80061a8:	e7fb      	b.n	80061a2 <__mcmp+0x2a>
 80061aa:	2001      	movs	r0, #1
 80061ac:	e7f9      	b.n	80061a2 <__mcmp+0x2a>
	...

080061b0 <__mdiff>:
 80061b0:	e92d 4ff7 	stmdb	sp!, {r0, r1, r2, r4, r5, r6, r7, r8, r9, sl, fp, lr}
 80061b4:	468a      	mov	sl, r1
 80061b6:	4606      	mov	r6, r0
 80061b8:	4611      	mov	r1, r2
 80061ba:	4650      	mov	r0, sl
 80061bc:	4614      	mov	r4, r2
 80061be:	f7ff ffdb 	bl	8006178 <__mcmp>
 80061c2:	1e05      	subs	r5, r0, #0
 80061c4:	d112      	bne.n	80061ec <__mdiff+0x3c>
 80061c6:	4629      	mov	r1, r5
 80061c8:	4630      	mov	r0, r6
 80061ca:	f7ff fd0f 	bl	8005bec <_Balloc>
 80061ce:	4602      	mov	r2, r0
 80061d0:	b928      	cbnz	r0, 80061de <__mdiff+0x2e>
 80061d2:	4b41      	ldr	r3, [pc, #260]	@ (80062d8 <__mdiff+0x128>)
 80061d4:	f240 2137 	movw	r1, #567	@ 0x237
 80061d8:	4840      	ldr	r0, [pc, #256]	@ (80062dc <__mdiff+0x12c>)
 80061da:	f001 fbfd 	bl	80079d8 <__assert_func>
 80061de:	2301      	movs	r3, #1
 80061e0:	e9c0 3504 	strd	r3, r5, [r0, #16]
 80061e4:	4610      	mov	r0, r2
 80061e6:	b003      	add	sp, #12
 80061e8:	e8bd 8ff0 	ldmia.w	sp!, {r4, r5, r6, r7, r8, r9, sl, fp, pc}
 80061ec:	bfbc      	itt	lt
 80061ee:	4653      	movlt	r3, sl
 80061f0:	46a2      	movlt	sl, r4
 80061f2:	4630      	mov	r0, r6
 80061f4:	f8da 1004 	ldr.w	r1, [sl, #4]
 80061f8:	bfba      	itte	lt
 80061fa:	461c      	movlt	r4, r3
 80061fc:	2501      	movlt	r5, #1
 80061fe:	2500      	movge	r5, #0
 8006200:	f7ff fcf4 	bl	8005bec <_Balloc>
 8006204:	4602      	mov	r2, r0
 8006206:	b918      	cbnz	r0, 8006210 <__mdiff+0x60>
 8006208:	4b33      	ldr	r3, [pc, #204]	@ (80062d8 <__mdiff+0x128>)
 800620a:	f240 2145 	movw	r1, #581	@ 0x245
 800620e:	e7e3      	b.n	80061d8 <__mdiff+0x28>
 8006210:	f8da 7010 	ldr.w	r7, [sl, #16]
 8006214:	6926      	ldr	r6, [r4, #16]
 8006216:	60c5      	str	r5, [r0, #12]
 8006218:	f10a 0914 	add.w	r9, sl, #20
 800621c:	f104 0e14 	add.w	lr, r4, #20
 8006220:	f100 0514 	add.w	r5, r0, #20
 8006224:	f10a 0310 	add.w	r3, sl, #16
 8006228:	eb09 0887 	add.w	r8, r9, r7, lsl #2
 800622c:	eb0e 0686 	add.w	r6, lr, r6, lsl #2
 8006230:	9301      	str	r3, [sp, #4]
 8006232:	46ab      	mov	fp, r5
 8006234:	f04f 0c00 	mov.w	ip, #0
 8006238:	9b01      	ldr	r3, [sp, #4]
 800623a:	f85e 0b04 	ldr.w	r0, [lr], #4
 800623e:	f853 af04 	ldr.w	sl, [r3, #4]!
 8006242:	9301      	str	r3, [sp, #4]
 8006244:	fa1f f38a 	uxth.w	r3, sl
 8006248:	4619      	mov	r1, r3
 800624a:	b283      	uxth	r3, r0
 800624c:	1acb      	subs	r3, r1, r3
 800624e:	0c00      	lsrs	r0, r0, #16
 8006250:	4463      	add	r3, ip
 8006252:	ebc0 401a 	rsb	r0, r0, sl, lsr #16
 8006256:	eb00 4023 	add.w	r0, r0, r3, asr #16
 800625a:	b29b      	uxth	r3, r3
 800625c:	ea43 4300 	orr.w	r3, r3, r0, lsl #16
 8006260:	4576      	cmp	r6, lr
 8006262:	f84b 3b04 	str.w	r3, [fp], #4
 8006266:	ea4f 4c20 	mov.w	ip, r0, asr #16
 800626a:	d8e5      	bhi.n	8006238 <__mdiff+0x88>
 800626c:	1b33      	subs	r3, r6, r4
 800626e:	3b15      	subs	r3, #21
 8006270:	3415      	adds	r4, #21
 8006272:	f023 0303 	bic.w	r3, r3, #3
 8006276:	42a6      	cmp	r6, r4
 8006278:	bf38      	it	cc
 800627a:	2300      	movcc	r3, #0
 800627c:	18e8      	adds	r0, r5, r3
 800627e:	444b      	add	r3, r9
 8006280:	1d1c      	adds	r4, r3, #4
 8006282:	3004      	adds	r0, #4
 8006284:	4626      	mov	r6, r4
 8006286:	eba5 0509 	sub.w	r5, r5, r9
 800628a:	4546      	cmp	r6, r8
 800628c:	eb06 0e05 	add.w	lr, r6, r5
 8006290:	d30e      	bcc.n	80062b0 <__mdiff+0x100>
 8006292:	f108 0103 	add.w	r1, r8, #3
 8006296:	1b09      	subs	r1, r1, r4
 8006298:	f021 0103 	bic.w	r1, r1, #3
 800629c:	3301      	adds	r3, #1
 800629e:	4598      	cmp	r8, r3
 80062a0:	bf38      	it	cc
 80062a2:	2100      	movcc	r1, #0
 80062a4:	4401      	add	r1, r0
 80062a6:	f851 3d04 	ldr.w	r3, [r1, #-4]!
 80062aa:	b19b      	cbz	r3, 80062d4 <__mdiff+0x124>
 80062ac:	6117      	str	r7, [r2, #16]
 80062ae:	e799      	b.n	80061e4 <__mdiff+0x34>
 80062b0:	f856 1b04 	ldr.w	r1, [r6], #4
 80062b4:	46e2      	mov	sl, ip
 80062b6:	ea4f 4911 	mov.w	r9, r1, lsr #16
 80062ba:	fa1c fc81 	uxtah	ip, ip, r1
 80062be:	4451      	add	r1, sl
 80062c0:	eb09 492c 	add.w	r9, r9, ip, asr #16
 80062c4:	b289      	uxth	r1, r1
 80062c6:	ea41 4109 	orr.w	r1, r1, r9, lsl #16
 80062ca:	ea4f 4c29 	mov.w	ip, r9, asr #16
 80062ce:	f8ce 1000 	str.w	r1, [lr]
 80062d2:	e7da      	b.n	800628a <__mdiff+0xda>
 80062d4:	3f01      	subs	r7, #1
 80062d6:	e7e6      	b.n	80062a6 <__mdiff+0xf6>
 80062d8:	080085a9 	.word	0x080085a9
 80062dc:	080085ba 	.word	0x080085ba

080062e0 <__ulp>:
 80062e0:	b082      	sub	sp, #8
 80062e2:	ed8d 0b00 	vstr	d0, [sp]
 80062e6:	9a01      	ldr	r2, [sp, #4]
 80062e8:	4b0f      	ldr	r3, [pc, #60]	@ (8006328 <__ulp+0x48>)
 80062ea:	4013      	ands	r3, r2
 80062ec:	f1a3 7350 	sub.w	r3, r3, #54525952	@ 0x3400000
 80062f0:	2b00      	cmp	r3, #0
 80062f2:	dc08      	bgt.n	8006306 <__ulp+0x26>
 80062f4:	425b      	negs	r3, r3
 80062f6:	f1b3 7fa0 	cmp.w	r3, #20971520	@ 0x1400000
 80062fa:	ea4f 5223 	mov.w	r2, r3, asr #20
 80062fe:	da04      	bge.n	800630a <__ulp+0x2a>
 8006300:	f44f 2300 	mov.w	r3, #524288	@ 0x80000
 8006304:	4113      	asrs	r3, r2
 8006306:	2200      	movs	r2, #0
 8006308:	e008      	b.n	800631c <__ulp+0x3c>
 800630a:	f1a2 0314 	sub.w	r3, r2, #20
 800630e:	2b1e      	cmp	r3, #30
 8006310:	bfda      	itte	le
 8006312:	f04f 4200 	movle.w	r2, #2147483648	@ 0x80000000
 8006316:	40da      	lsrle	r2, r3
 8006318:	2201      	movgt	r2, #1
 800631a:	2300      	movs	r3, #0
 800631c:	4619      	mov	r1, r3
 800631e:	4610      	mov	r0, r2
 8006320:	ec41 0b10 	vmov	d0, r0, r1
 8006324:	b002      	add	sp, #8
 8006326:	4770      	bx	lr
 8006328:	7ff00000 	.word	0x7ff00000

0800632c <__b2d>:
 800632c:	e92d 41f0 	stmdb	sp!, {r4, r5, r6, r7, r8, lr}
 8006330:	6906      	ldr	r6, [r0, #16]
 8006332:	f100 0814 	add.w	r8, r0, #20
 8006336:	eb08 0686 	add.w	r6, r8, r6, lsl #2
 800633a:	1f37      	subs	r7, r6, #4
 800633c:	f856 2c04 	ldr.w	r2, [r6, #-4]
 8006340:	4610      	mov	r0, r2
 8006342:	f7ff fd43 	bl	8005dcc <__hi0bits>
 8006346:	f1c0 0320 	rsb	r3, r0, #32
 800634a:	280a      	cmp	r0, #10
 800634c:	600b      	str	r3, [r1, #0]
 800634e:	491b      	ldr	r1, [pc, #108]	@ (80063bc <__b2d+0x90>)
 8006350:	dc15      	bgt.n	800637e <__b2d+0x52>
 8006352:	f1c0 0c0b 	rsb	ip, r0, #11
 8006356:	fa22 f30c 	lsr.w	r3, r2, ip
 800635a:	45b8      	cmp	r8, r7
 800635c:	ea43 0501 	orr.w	r5, r3, r1
 8006360:	bf34      	ite	cc
 8006362:	f856 3c08 	ldrcc.w	r3, [r6, #-8]
 8006366:	2300      	movcs	r3, #0
 8006368:	3015      	adds	r0, #21
 800636a:	fa02 f000 	lsl.w	r0, r2, r0
 800636e:	fa23 f30c 	lsr.w	r3, r3, ip
 8006372:	4303      	orrs	r3, r0
 8006374:	461c      	mov	r4, r3
 8006376:	ec45 4b10 	vmov	d0, r4, r5
 800637a:	e8bd 81f0 	ldmia.w	sp!, {r4, r5, r6, r7, r8, pc}
 800637e:	45b8      	cmp	r8, r7
 8006380:	bf3a      	itte	cc
 8006382:	f856 3c08 	ldrcc.w	r3, [r6, #-8]
 8006386:	f1a6 0708 	subcc.w	r7, r6, #8
 800638a:	2300      	movcs	r3, #0
 800638c:	380b      	subs	r0, #11
 800638e:	d012      	beq.n	80063b6 <__b2d+0x8a>
 8006390:	f1c0 0120 	rsb	r1, r0, #32
 8006394:	fa23 f401 	lsr.w	r4, r3, r1
 8006398:	4082      	lsls	r2, r0
 800639a:	4322      	orrs	r2, r4
 800639c:	4547      	cmp	r7, r8
 800639e:	f042 557f 	orr.w	r5, r2, #1069547520	@ 0x3fc00000
 80063a2:	bf8c      	ite	hi
 80063a4:	f857 2c04 	ldrhi.w	r2, [r7, #-4]
 80063a8:	2200      	movls	r2, #0
 80063aa:	4083      	lsls	r3, r0
 80063ac:	40ca      	lsrs	r2, r1
 80063ae:	f445 1540 	orr.w	r5, r5, #3145728	@ 0x300000
 80063b2:	4313      	orrs	r3, r2
 80063b4:	e7de      	b.n	8006374 <__b2d+0x48>
 80063b6:	ea42 0501 	orr.w	r5, r2, r1
 80063ba:	e7db      	b.n	8006374 <__b2d+0x48>
 80063bc:	3ff00000 	.word	0x3ff00000

080063c0 <__d2b>:
 80063c0:	e92d 43f7 	stmdb	sp!, {r0, r1, r2, r4, r5, r6, r7, r8, r9, lr}
 80063c4:	460f      	mov	r7, r1
 80063c6:	2101      	movs	r1, #1
 80063c8:	ec59 8b10 	vmov	r8, r9, d0
 80063cc:	4616      	mov	r6, r2
 80063ce:	f7ff fc0d 	bl	8005bec <_Balloc>
 80063d2:	4604      	mov	r4, r0
 80063d4:	b930      	cbnz	r0, 80063e4 <__d2b+0x24>
 80063d6:	4602      	mov	r2, r0
 80063d8:	4b23      	ldr	r3, [pc, #140]	@ (8006468 <__d2b+0xa8>)
 80063da:	4824      	ldr	r0, [pc, #144]	@ (800646c <__d2b+0xac>)
 80063dc:	f240 310f 	movw	r1, #783	@ 0x30f
 80063e0:	f001 fafa 	bl	80079d8 <__assert_func>
 80063e4:	f3c9 550a 	ubfx	r5, r9, #20, #11
 80063e8:	f3c9 0313 	ubfx	r3, r9, #0, #20
 80063ec:	b10d      	cbz	r5, 80063f2 <__d2b+0x32>
 80063ee:	f443 1380 	orr.w	r3, r3, #1048576	@ 0x100000
 80063f2:	9301      	str	r3, [sp, #4]
 80063f4:	f1b8 0300 	subs.w	r3, r8, #0
 80063f8:	d023      	beq.n	8006442 <__d2b+0x82>
 80063fa:	4668      	mov	r0, sp
 80063fc:	9300      	str	r3, [sp, #0]
 80063fe:	f7ff fd04 	bl	8005e0a <__lo0bits>
 8006402:	9900      	ldr	r1, [sp, #0]
 8006404:	b1d8      	cbz	r0, 800643e <__d2b+0x7e>
 8006406:	9a01      	ldr	r2, [sp, #4]
 8006408:	f1c0 0320 	rsb	r3, r0, #32
 800640c:	fa02 f303 	lsl.w	r3, r2, r3
 8006410:	430b      	orrs	r3, r1
 8006412:	40c2      	lsrs	r2, r0
 8006414:	6163      	str	r3, [r4, #20]
 8006416:	9201      	str	r2, [sp, #4]
 8006418:	9b01      	ldr	r3, [sp, #4]
 800641a:	61a3      	str	r3, [r4, #24]
 800641c:	2b00      	cmp	r3, #0
 800641e:	bf0c      	ite	eq
 8006420:	2201      	moveq	r2, #1
 8006422:	2202      	movne	r2, #2
 8006424:	6122      	str	r2, [r4, #16]
 8006426:	b1a5      	cbz	r5, 8006452 <__d2b+0x92>
 8006428:	f2a5 4533 	subw	r5, r5, #1075	@ 0x433
 800642c:	4405      	add	r5, r0
 800642e:	603d      	str	r5, [r7, #0]
 8006430:	f1c0 0035 	rsb	r0, r0, #53	@ 0x35
 8006434:	6030      	str	r0, [r6, #0]
 8006436:	4620      	mov	r0, r4
 8006438:	b003      	add	sp, #12
 800643a:	e8bd 83f0 	ldmia.w	sp!, {r4, r5, r6, r7, r8, r9, pc}
 800643e:	6161      	str	r1, [r4, #20]
 8006440:	e7ea      	b.n	8006418 <__d2b+0x58>
 8006442:	a801      	add	r0, sp, #4
 8006444:	f7ff fce1 	bl	8005e0a <__lo0bits>
 8006448:	9b01      	ldr	r3, [sp, #4]
 800644a:	6163      	str	r3, [r4, #20]
 800644c:	3020      	adds	r0, #32
 800644e:	2201      	movs	r2, #1
 8006450:	e7e8      	b.n	8006424 <__d2b+0x64>
 8006452:	eb04 0382 	add.w	r3, r4, r2, lsl #2
 8006456:	f2a0 4032 	subw	r0, r0, #1074	@ 0x432
 800645a:	6038      	str	r0, [r7, #0]
 800645c:	6918      	ldr	r0, [r3, #16]
 800645e:	f7ff fcb5 	bl	8005dcc <__hi0bits>
 8006462:	ebc0 1042 	rsb	r0, r0, r2, lsl #5
 8006466:	e7e5      	b.n	8006434 <__d2b+0x74>
 8006468:	080085a9 	.word	0x080085a9
 800646c:	080085ba 	.word	0x080085ba

08006470 <__ratio>:
 8006470:	e92d 4ff7 	stmdb	sp!, {r0, r1, r2, r4, r5, r6, r7, r8, r9, sl, fp, lr}
 8006474:	4688      	mov	r8, r1
 8006476:	4669      	mov	r1, sp
 8006478:	4681      	mov	r9, r0
 800647a:	f7ff ff57 	bl	800632c <__b2d>
 800647e:	a901      	add	r1, sp, #4
 8006480:	4640      	mov	r0, r8
 8006482:	ec55 4b10 	vmov	r4, r5, d0
 8006486:	f7ff ff51 	bl	800632c <__b2d>
 800648a:	f8d8 3010 	ldr.w	r3, [r8, #16]
 800648e:	f8d9 2010 	ldr.w	r2, [r9, #16]
 8006492:	1ad2      	subs	r2, r2, r3
 8006494:	e9dd 3100 	ldrd	r3, r1, [sp]
 8006498:	1a5b      	subs	r3, r3, r1
 800649a:	eb03 1342 	add.w	r3, r3, r2, lsl #5
 800649e:	ec57 6b10 	vmov	r6, r7, d0
 80064a2:	2b00      	cmp	r3, #0
 80064a4:	bfd6      	itet	le
 80064a6:	ebc3 3303 	rsble	r3, r3, r3, lsl #12
 80064aa:	462a      	movgt	r2, r5
 80064ac:	463a      	movle	r2, r7
 80064ae:	46ab      	mov	fp, r5
 80064b0:	46a2      	mov	sl, r4
 80064b2:	bfce      	itee	gt
 80064b4:	eb02 5b03 	addgt.w	fp, r2, r3, lsl #20
 80064b8:	eb02 5303 	addle.w	r3, r2, r3, lsl #20
 80064bc:	ee00 3a90 	vmovle	s1, r3
 80064c0:	ec4b ab17 	vmov	d7, sl, fp
 80064c4:	ee87 0b00 	vdiv.f64	d0, d7, d0
 80064c8:	b003      	add	sp, #12
 80064ca:	e8bd 8ff0 	ldmia.w	sp!, {r4, r5, r6, r7, r8, r9, sl, fp, pc}

080064ce <__copybits>:
 80064ce:	3901      	subs	r1, #1
 80064d0:	b570      	push	{r4, r5, r6, lr}
 80064d2:	1149      	asrs	r1, r1, #5
 80064d4:	6914      	ldr	r4, [r2, #16]
 80064d6:	3101      	adds	r1, #1
 80064d8:	f102 0314 	add.w	r3, r2, #20
 80064dc:	eb00 0181 	add.w	r1, r0, r1, lsl #2
 80064e0:	eb03 0484 	add.w	r4, r3, r4, lsl #2
 80064e4:	1f05      	subs	r5, r0, #4
 80064e6:	42a3      	cmp	r3, r4
 80064e8:	d30c      	bcc.n	8006504 <__copybits+0x36>
 80064ea:	1aa3      	subs	r3, r4, r2
 80064ec:	3b11      	subs	r3, #17
 80064ee:	f023 0303 	bic.w	r3, r3, #3
 80064f2:	3211      	adds	r2, #17
 80064f4:	4294      	cmp	r4, r2
 80064f6:	bf38      	it	cc
 80064f8:	2300      	movcc	r3, #0
 80064fa:	4418      	add	r0, r3
 80064fc:	2300      	movs	r3, #0
 80064fe:	4288      	cmp	r0, r1
 8006500:	d305      	bcc.n	800650e <__copybits+0x40>
 8006502:	bd70      	pop	{r4, r5, r6, pc}
 8006504:	f853 6b04 	ldr.w	r6, [r3], #4
 8006508:	f845 6f04 	str.w	r6, [r5, #4]!
 800650c:	e7eb      	b.n	80064e6 <__copybits+0x18>
 800650e:	f840 3b04 	str.w	r3, [r0], #4
 8006512:	e7f4      	b.n	80064fe <__copybits+0x30>

08006514 <__any_on>:
 8006514:	f100 0214 	add.w	r2, r0, #20
 8006518:	6900      	ldr	r0, [r0, #16]
 800651a:	114b      	asrs	r3, r1, #5
 800651c:	4298      	cmp	r0, r3
 800651e:	b510      	push	{r4, lr}
 8006520:	db11      	blt.n	8006546 <__any_on+0x32>
 8006522:	dd0a      	ble.n	800653a <__any_on+0x26>
 8006524:	f011 011f 	ands.w	r1, r1, #31
 8006528:	d007      	beq.n	800653a <__any_on+0x26>
 800652a:	f852 4023 	ldr.w	r4, [r2, r3, lsl #2]
 800652e:	fa24 f001 	lsr.w	r0, r4, r1
 8006532:	fa00 f101 	lsl.w	r1, r0, r1
 8006536:	428c      	cmp	r4, r1
 8006538:	d10b      	bne.n	8006552 <__any_on+0x3e>
 800653a:	eb02 0383 	add.w	r3, r2, r3, lsl #2
 800653e:	4293      	cmp	r3, r2
 8006540:	d803      	bhi.n	800654a <__any_on+0x36>
 8006542:	2000      	movs	r0, #0
 8006544:	bd10      	pop	{r4, pc}
 8006546:	4603      	mov	r3, r0
 8006548:	e7f7      	b.n	800653a <__any_on+0x26>
 800654a:	f853 1d04 	ldr.w	r1, [r3, #-4]!
 800654e:	2900      	cmp	r1, #0
 8006550:	d0f5      	beq.n	800653e <__any_on+0x2a>
 8006552:	2001      	movs	r0, #1
 8006554:	e7f6      	b.n	8006544 <__any_on+0x30>

08006556 <sulp>:
 8006556:	b570      	push	{r4, r5, r6, lr}
 8006558:	4604      	mov	r4, r0
 800655a:	460d      	mov	r5, r1
 800655c:	4616      	mov	r6, r2
 800655e:	ec45 4b10 	vmov	d0, r4, r5
 8006562:	f7ff febd 	bl	80062e0 <__ulp>
 8006566:	b17e      	cbz	r6, 8006588 <sulp+0x32>
 8006568:	f3c5 530a 	ubfx	r3, r5, #20, #11
 800656c:	f1c3 036b 	rsb	r3, r3, #107	@ 0x6b
 8006570:	2b00      	cmp	r3, #0
 8006572:	dd09      	ble.n	8006588 <sulp+0x32>
 8006574:	051b      	lsls	r3, r3, #20
 8006576:	f103 517f 	add.w	r1, r3, #1069547520	@ 0x3fc00000
 800657a:	2000      	movs	r0, #0
 800657c:	f501 1140 	add.w	r1, r1, #3145728	@ 0x300000
 8006580:	ec41 0b17 	vmov	d7, r0, r1
 8006584:	ee20 0b07 	vmul.f64	d0, d0, d7
 8006588:	bd70      	pop	{r4, r5, r6, pc}
 800658a:	0000      	movs	r0, r0
 800658c:	0000      	movs	r0, r0
	...

08006590 <_strtod_l>:
 8006590:	e92d 4ff0 	stmdb	sp!, {r4, r5, r6, r7, r8, r9, sl, fp, lr}
 8006594:	ed2d 8b0a 	vpush	{d8-d12}
 8006598:	b097      	sub	sp, #92	@ 0x5c
 800659a:	4681      	mov	r9, r0
 800659c:	920e      	str	r2, [sp, #56]	@ 0x38
 800659e:	2200      	movs	r2, #0
 80065a0:	9105      	str	r1, [sp, #20]
 80065a2:	9212      	str	r2, [sp, #72]	@ 0x48
 80065a4:	f04f 0a00 	mov.w	sl, #0
 80065a8:	f04f 0b00 	mov.w	fp, #0
 80065ac:	9111      	str	r1, [sp, #68]	@ 0x44
 80065ae:	780a      	ldrb	r2, [r1, #0]
 80065b0:	2a2b      	cmp	r2, #43	@ 0x2b
 80065b2:	460c      	mov	r4, r1
 80065b4:	f101 0101 	add.w	r1, r1, #1
 80065b8:	d01d      	beq.n	80065f6 <_strtod_l+0x66>
 80065ba:	d80a      	bhi.n	80065d2 <_strtod_l+0x42>
 80065bc:	2a0d      	cmp	r2, #13
 80065be:	d805      	bhi.n	80065cc <_strtod_l+0x3c>
 80065c0:	2a08      	cmp	r2, #8
 80065c2:	d8f3      	bhi.n	80065ac <_strtod_l+0x1c>
 80065c4:	b172      	cbz	r2, 80065e4 <_strtod_l+0x54>
 80065c6:	2300      	movs	r3, #0
 80065c8:	9306      	str	r3, [sp, #24]
 80065ca:	e084      	b.n	80066d6 <_strtod_l+0x146>
 80065cc:	2a20      	cmp	r2, #32
 80065ce:	d0ed      	beq.n	80065ac <_strtod_l+0x1c>
 80065d0:	e7f9      	b.n	80065c6 <_strtod_l+0x36>
 80065d2:	2a2d      	cmp	r2, #45	@ 0x2d
 80065d4:	d111      	bne.n	80065fa <_strtod_l+0x6a>
 80065d6:	2201      	movs	r2, #1
 80065d8:	1c61      	adds	r1, r4, #1
 80065da:	9111      	str	r1, [sp, #68]	@ 0x44
 80065dc:	9206      	str	r2, [sp, #24]
 80065de:	7862      	ldrb	r2, [r4, #1]
 80065e0:	2a00      	cmp	r2, #0
 80065e2:	d139      	bne.n	8006658 <_strtod_l+0xc8>
 80065e4:	9b05      	ldr	r3, [sp, #20]
 80065e6:	9311      	str	r3, [sp, #68]	@ 0x44
 80065e8:	9b0e      	ldr	r3, [sp, #56]	@ 0x38
 80065ea:	2b00      	cmp	r3, #0
 80065ec:	f040 8546 	bne.w	800707c <_strtod_l+0xaec>
 80065f0:	ec4b ab10 	vmov	d0, sl, fp
 80065f4:	e02b      	b.n	800664e <_strtod_l+0xbe>
 80065f6:	2200      	movs	r2, #0
 80065f8:	e7ee      	b.n	80065d8 <_strtod_l+0x48>
 80065fa:	2100      	movs	r1, #0
 80065fc:	9106      	str	r1, [sp, #24]
 80065fe:	2a30      	cmp	r2, #48	@ 0x30
 8006600:	f040 809f 	bne.w	8006742 <_strtod_l+0x1b2>
 8006604:	7862      	ldrb	r2, [r4, #1]
 8006606:	f002 02df 	and.w	r2, r2, #223	@ 0xdf
 800660a:	2a58      	cmp	r2, #88	@ 0x58
 800660c:	d15b      	bne.n	80066c6 <_strtod_l+0x136>
 800660e:	9302      	str	r3, [sp, #8]
 8006610:	9b06      	ldr	r3, [sp, #24]
 8006612:	9301      	str	r3, [sp, #4]
 8006614:	ab12      	add	r3, sp, #72	@ 0x48
 8006616:	9300      	str	r3, [sp, #0]
 8006618:	4a80      	ldr	r2, [pc, #512]	@ (800681c <_strtod_l+0x28c>)
 800661a:	ab13      	add	r3, sp, #76	@ 0x4c
 800661c:	a911      	add	r1, sp, #68	@ 0x44
 800661e:	4648      	mov	r0, r9
 8006620:	f001 fa74 	bl	8007b0c <__gethex>
 8006624:	f010 050f 	ands.w	r5, r0, #15
 8006628:	4606      	mov	r6, r0
 800662a:	d005      	beq.n	8006638 <_strtod_l+0xa8>
 800662c:	2d06      	cmp	r5, #6
 800662e:	d115      	bne.n	800665c <_strtod_l+0xcc>
 8006630:	3401      	adds	r4, #1
 8006632:	2300      	movs	r3, #0
 8006634:	9411      	str	r4, [sp, #68]	@ 0x44
 8006636:	9306      	str	r3, [sp, #24]
 8006638:	9b0e      	ldr	r3, [sp, #56]	@ 0x38
 800663a:	2b00      	cmp	r3, #0
 800663c:	f040 8520 	bne.w	8007080 <_strtod_l+0xaf0>
 8006640:	9b06      	ldr	r3, [sp, #24]
 8006642:	2b00      	cmp	r3, #0
 8006644:	d0d4      	beq.n	80065f0 <_strtod_l+0x60>
 8006646:	ec4b ab17 	vmov	d7, sl, fp
 800664a:	eeb1 0b47 	vneg.f64	d0, d7
 800664e:	b017      	add	sp, #92	@ 0x5c
 8006650:	ecbd 8b0a 	vpop	{d8-d12}
 8006654:	e8bd 8ff0 	ldmia.w	sp!, {r4, r5, r6, r7, r8, r9, sl, fp, pc}
 8006658:	460c      	mov	r4, r1
 800665a:	e7d0      	b.n	80065fe <_strtod_l+0x6e>
 800665c:	9a12      	ldr	r2, [sp, #72]	@ 0x48
 800665e:	b13a      	cbz	r2, 8006670 <_strtod_l+0xe0>
 8006660:	2135      	movs	r1, #53	@ 0x35
 8006662:	a814      	add	r0, sp, #80	@ 0x50
 8006664:	f7ff ff33 	bl	80064ce <__copybits>
 8006668:	9912      	ldr	r1, [sp, #72]	@ 0x48
 800666a:	4648      	mov	r0, r9
 800666c:	f7ff fafc 	bl	8005c68 <_Bfree>
 8006670:	3d01      	subs	r5, #1
 8006672:	2d04      	cmp	r5, #4
 8006674:	d806      	bhi.n	8006684 <_strtod_l+0xf4>
 8006676:	e8df f005 	tbb	[pc, r5]
 800667a:	0314      	.short	0x0314
 800667c:	211e      	.short	0x211e
 800667e:	14          	.byte	0x14
 800667f:	00          	.byte	0x00
 8006680:	e9dd ab14 	ldrd	sl, fp, [sp, #80]	@ 0x50
 8006684:	05f3      	lsls	r3, r6, #23
 8006686:	bf48      	it	mi
 8006688:	f04b 4b00 	orrmi.w	fp, fp, #2147483648	@ 0x80000000
 800668c:	f02b 4300 	bic.w	r3, fp, #2147483648	@ 0x80000000
 8006690:	0d1b      	lsrs	r3, r3, #20
 8006692:	051b      	lsls	r3, r3, #20
 8006694:	2b00      	cmp	r3, #0
 8006696:	d1cf      	bne.n	8006638 <_strtod_l+0xa8>
 8006698:	f7fe fb94 	bl	8004dc4 <__errno>
 800669c:	2322      	movs	r3, #34	@ 0x22
 800669e:	6003      	str	r3, [r0, #0]
 80066a0:	e7ca      	b.n	8006638 <_strtod_l+0xa8>
 80066a2:	e9dd a314 	ldrd	sl, r3, [sp, #80]	@ 0x50
 80066a6:	9a13      	ldr	r2, [sp, #76]	@ 0x4c
 80066a8:	f423 1380 	bic.w	r3, r3, #1048576	@ 0x100000
 80066ac:	f202 4233 	addw	r2, r2, #1075	@ 0x433
 80066b0:	ea43 5b02 	orr.w	fp, r3, r2, lsl #20
 80066b4:	e7e6      	b.n	8006684 <_strtod_l+0xf4>
 80066b6:	f8df b16c 	ldr.w	fp, [pc, #364]	@ 8006824 <_strtod_l+0x294>
 80066ba:	e7e3      	b.n	8006684 <_strtod_l+0xf4>
 80066bc:	f06f 4b00 	mvn.w	fp, #2147483648	@ 0x80000000
 80066c0:	f04f 3aff 	mov.w	sl, #4294967295
 80066c4:	e7de      	b.n	8006684 <_strtod_l+0xf4>
 80066c6:	3401      	adds	r4, #1
 80066c8:	9411      	str	r4, [sp, #68]	@ 0x44
 80066ca:	7823      	ldrb	r3, [r4, #0]
 80066cc:	2b30      	cmp	r3, #48	@ 0x30
 80066ce:	d0fa      	beq.n	80066c6 <_strtod_l+0x136>
 80066d0:	2b00      	cmp	r3, #0
 80066d2:	d0b1      	beq.n	8006638 <_strtod_l+0xa8>
 80066d4:	2301      	movs	r3, #1
 80066d6:	2700      	movs	r7, #0
 80066d8:	9308      	str	r3, [sp, #32]
 80066da:	9707      	str	r7, [sp, #28]
 80066dc:	4623      	mov	r3, r4
 80066de:	463e      	mov	r6, r7
 80066e0:	210a      	movs	r1, #10
 80066e2:	4618      	mov	r0, r3
 80066e4:	f813 5b01 	ldrb.w	r5, [r3], #1
 80066e8:	f1a5 0230 	sub.w	r2, r5, #48	@ 0x30
 80066ec:	2a09      	cmp	r2, #9
 80066ee:	d92a      	bls.n	8006746 <_strtod_l+0x1b6>
 80066f0:	494b      	ldr	r1, [pc, #300]	@ (8006820 <_strtod_l+0x290>)
 80066f2:	2201      	movs	r2, #1
 80066f4:	f001 f922 	bl	800793c <strncmp>
 80066f8:	2800      	cmp	r0, #0
 80066fa:	d034      	beq.n	8006766 <_strtod_l+0x1d6>
 80066fc:	2000      	movs	r0, #0
 80066fe:	462a      	mov	r2, r5
 8006700:	4633      	mov	r3, r6
 8006702:	4680      	mov	r8, r0
 8006704:	4684      	mov	ip, r0
 8006706:	2a65      	cmp	r2, #101	@ 0x65
 8006708:	d001      	beq.n	800670e <_strtod_l+0x17e>
 800670a:	2a45      	cmp	r2, #69	@ 0x45
 800670c:	d117      	bne.n	800673e <_strtod_l+0x1ae>
 800670e:	b923      	cbnz	r3, 800671a <_strtod_l+0x18a>
 8006710:	9b08      	ldr	r3, [sp, #32]
 8006712:	4303      	orrs	r3, r0
 8006714:	f43f af66 	beq.w	80065e4 <_strtod_l+0x54>
 8006718:	2300      	movs	r3, #0
 800671a:	9a11      	ldr	r2, [sp, #68]	@ 0x44
 800671c:	9205      	str	r2, [sp, #20]
 800671e:	3201      	adds	r2, #1
 8006720:	9211      	str	r2, [sp, #68]	@ 0x44
 8006722:	9a05      	ldr	r2, [sp, #20]
 8006724:	7852      	ldrb	r2, [r2, #1]
 8006726:	2a2b      	cmp	r2, #43	@ 0x2b
 8006728:	d06d      	beq.n	8006806 <_strtod_l+0x276>
 800672a:	2a2d      	cmp	r2, #45	@ 0x2d
 800672c:	d073      	beq.n	8006816 <_strtod_l+0x286>
 800672e:	2100      	movs	r1, #0
 8006730:	9109      	str	r1, [sp, #36]	@ 0x24
 8006732:	f1a2 0130 	sub.w	r1, r2, #48	@ 0x30
 8006736:	2909      	cmp	r1, #9
 8006738:	d97a      	bls.n	8006830 <_strtod_l+0x2a0>
 800673a:	9905      	ldr	r1, [sp, #20]
 800673c:	9111      	str	r1, [sp, #68]	@ 0x44
 800673e:	2500      	movs	r5, #0
 8006740:	e094      	b.n	800686c <_strtod_l+0x2dc>
 8006742:	2300      	movs	r3, #0
 8006744:	e7c7      	b.n	80066d6 <_strtod_l+0x146>
 8006746:	2e08      	cmp	r6, #8
 8006748:	bfd8      	it	le
 800674a:	9a07      	ldrle	r2, [sp, #28]
 800674c:	9311      	str	r3, [sp, #68]	@ 0x44
 800674e:	bfdb      	ittet	le
 8006750:	fb01 5202 	mlale	r2, r1, r2, r5
 8006754:	3a30      	suble	r2, #48	@ 0x30
 8006756:	fb01 5207 	mlagt	r2, r1, r7, r5
 800675a:	9207      	strle	r2, [sp, #28]
 800675c:	bfc8      	it	gt
 800675e:	f1a2 0730 	subgt.w	r7, r2, #48	@ 0x30
 8006762:	3601      	adds	r6, #1
 8006764:	e7bd      	b.n	80066e2 <_strtod_l+0x152>
 8006766:	9b11      	ldr	r3, [sp, #68]	@ 0x44
 8006768:	1c5a      	adds	r2, r3, #1
 800676a:	9211      	str	r2, [sp, #68]	@ 0x44
 800676c:	785a      	ldrb	r2, [r3, #1]
 800676e:	b38e      	cbz	r6, 80067d4 <_strtod_l+0x244>
 8006770:	4680      	mov	r8, r0
 8006772:	4633      	mov	r3, r6
 8006774:	f1a2 0130 	sub.w	r1, r2, #48	@ 0x30
 8006778:	2909      	cmp	r1, #9
 800677a:	d912      	bls.n	80067a2 <_strtod_l+0x212>
 800677c:	f04f 0c01 	mov.w	ip, #1
 8006780:	e7c1      	b.n	8006706 <_strtod_l+0x176>
 8006782:	9b11      	ldr	r3, [sp, #68]	@ 0x44
 8006784:	1c5a      	adds	r2, r3, #1
 8006786:	9211      	str	r2, [sp, #68]	@ 0x44
 8006788:	785a      	ldrb	r2, [r3, #1]
 800678a:	3001      	adds	r0, #1
 800678c:	2a30      	cmp	r2, #48	@ 0x30
 800678e:	d0f8      	beq.n	8006782 <_strtod_l+0x1f2>
 8006790:	f1a2 0331 	sub.w	r3, r2, #49	@ 0x31
 8006794:	2b08      	cmp	r3, #8
 8006796:	f200 8478 	bhi.w	800708a <_strtod_l+0xafa>
 800679a:	4680      	mov	r8, r0
 800679c:	9c11      	ldr	r4, [sp, #68]	@ 0x44
 800679e:	2000      	movs	r0, #0
 80067a0:	4603      	mov	r3, r0
 80067a2:	3a30      	subs	r2, #48	@ 0x30
 80067a4:	f100 0101 	add.w	r1, r0, #1
 80067a8:	d00e      	beq.n	80067c8 <_strtod_l+0x238>
 80067aa:	4488      	add	r8, r1
 80067ac:	4418      	add	r0, r3
 80067ae:	210a      	movs	r1, #10
 80067b0:	4298      	cmp	r0, r3
 80067b2:	d111      	bne.n	80067d8 <_strtod_l+0x248>
 80067b4:	2808      	cmp	r0, #8
 80067b6:	f100 0301 	add.w	r3, r0, #1
 80067ba:	dc19      	bgt.n	80067f0 <_strtod_l+0x260>
 80067bc:	9807      	ldr	r0, [sp, #28]
 80067be:	210a      	movs	r1, #10
 80067c0:	fb01 2200 	mla	r2, r1, r0, r2
 80067c4:	9207      	str	r2, [sp, #28]
 80067c6:	2100      	movs	r1, #0
 80067c8:	9a11      	ldr	r2, [sp, #68]	@ 0x44
 80067ca:	1c50      	adds	r0, r2, #1
 80067cc:	9011      	str	r0, [sp, #68]	@ 0x44
 80067ce:	7852      	ldrb	r2, [r2, #1]
 80067d0:	4608      	mov	r0, r1
 80067d2:	e7cf      	b.n	8006774 <_strtod_l+0x1e4>
 80067d4:	4630      	mov	r0, r6
 80067d6:	e7d9      	b.n	800678c <_strtod_l+0x1fc>
 80067d8:	2b08      	cmp	r3, #8
 80067da:	f103 0301 	add.w	r3, r3, #1
 80067de:	dc03      	bgt.n	80067e8 <_strtod_l+0x258>
 80067e0:	9d07      	ldr	r5, [sp, #28]
 80067e2:	434d      	muls	r5, r1
 80067e4:	9507      	str	r5, [sp, #28]
 80067e6:	e7e3      	b.n	80067b0 <_strtod_l+0x220>
 80067e8:	2b10      	cmp	r3, #16
 80067ea:	bfd8      	it	le
 80067ec:	434f      	mulle	r7, r1
 80067ee:	e7df      	b.n	80067b0 <_strtod_l+0x220>
 80067f0:	280f      	cmp	r0, #15
 80067f2:	bfdc      	itt	le
 80067f4:	210a      	movle	r1, #10
 80067f6:	fb01 2707 	mlale	r7, r1, r7, r2
 80067fa:	e7e4      	b.n	80067c6 <_strtod_l+0x236>
 80067fc:	f04f 0800 	mov.w	r8, #0
 8006800:	f04f 0c01 	mov.w	ip, #1
 8006804:	e784      	b.n	8006710 <_strtod_l+0x180>
 8006806:	2200      	movs	r2, #0
 8006808:	9209      	str	r2, [sp, #36]	@ 0x24
 800680a:	9a05      	ldr	r2, [sp, #20]
 800680c:	3202      	adds	r2, #2
 800680e:	9211      	str	r2, [sp, #68]	@ 0x44
 8006810:	9a05      	ldr	r2, [sp, #20]
 8006812:	7892      	ldrb	r2, [r2, #2]
 8006814:	e78d      	b.n	8006732 <_strtod_l+0x1a2>
 8006816:	2201      	movs	r2, #1
 8006818:	e7f6      	b.n	8006808 <_strtod_l+0x278>
 800681a:	bf00      	nop
 800681c:	080087dc 	.word	0x080087dc
 8006820:	08008613 	.word	0x08008613
 8006824:	7ff00000 	.word	0x7ff00000
 8006828:	9a11      	ldr	r2, [sp, #68]	@ 0x44
 800682a:	1c51      	adds	r1, r2, #1
 800682c:	9111      	str	r1, [sp, #68]	@ 0x44
 800682e:	7852      	ldrb	r2, [r2, #1]
 8006830:	2a30      	cmp	r2, #48	@ 0x30
 8006832:	d0f9      	beq.n	8006828 <_strtod_l+0x298>
 8006834:	f1a2 0131 	sub.w	r1, r2, #49	@ 0x31
 8006838:	2908      	cmp	r1, #8
 800683a:	d880      	bhi.n	800673e <_strtod_l+0x1ae>
 800683c:	f1a2 0e30 	sub.w	lr, r2, #48	@ 0x30
 8006840:	9a11      	ldr	r2, [sp, #68]	@ 0x44
 8006842:	920a      	str	r2, [sp, #40]	@ 0x28
 8006844:	4611      	mov	r1, r2
 8006846:	3101      	adds	r1, #1
 8006848:	9111      	str	r1, [sp, #68]	@ 0x44
 800684a:	780a      	ldrb	r2, [r1, #0]
 800684c:	f1a2 0530 	sub.w	r5, r2, #48	@ 0x30
 8006850:	2d09      	cmp	r5, #9
 8006852:	d937      	bls.n	80068c4 <_strtod_l+0x334>
 8006854:	9d0a      	ldr	r5, [sp, #40]	@ 0x28
 8006856:	1b49      	subs	r1, r1, r5
 8006858:	2908      	cmp	r1, #8
 800685a:	f644 651f 	movw	r5, #19999	@ 0x4e1f
 800685e:	dc02      	bgt.n	8006866 <_strtod_l+0x2d6>
 8006860:	4575      	cmp	r5, lr
 8006862:	bfa8      	it	ge
 8006864:	4675      	movge	r5, lr
 8006866:	9909      	ldr	r1, [sp, #36]	@ 0x24
 8006868:	b101      	cbz	r1, 800686c <_strtod_l+0x2dc>
 800686a:	426d      	negs	r5, r5
 800686c:	2b00      	cmp	r3, #0
 800686e:	d14e      	bne.n	800690e <_strtod_l+0x37e>
 8006870:	9b08      	ldr	r3, [sp, #32]
 8006872:	4303      	orrs	r3, r0
 8006874:	f47f aee0 	bne.w	8006638 <_strtod_l+0xa8>
 8006878:	f1bc 0f00 	cmp.w	ip, #0
 800687c:	f47f aeb2 	bne.w	80065e4 <_strtod_l+0x54>
 8006880:	2a69      	cmp	r2, #105	@ 0x69
 8006882:	d027      	beq.n	80068d4 <_strtod_l+0x344>
 8006884:	dc24      	bgt.n	80068d0 <_strtod_l+0x340>
 8006886:	2a49      	cmp	r2, #73	@ 0x49
 8006888:	d024      	beq.n	80068d4 <_strtod_l+0x344>
 800688a:	2a4e      	cmp	r2, #78	@ 0x4e
 800688c:	f47f aeaa 	bne.w	80065e4 <_strtod_l+0x54>
 8006890:	499b      	ldr	r1, [pc, #620]	@ (8006b00 <_strtod_l+0x570>)
 8006892:	a811      	add	r0, sp, #68	@ 0x44
 8006894:	f001 fb5c 	bl	8007f50 <__match>
 8006898:	2800      	cmp	r0, #0
 800689a:	f43f aea3 	beq.w	80065e4 <_strtod_l+0x54>
 800689e:	9b11      	ldr	r3, [sp, #68]	@ 0x44
 80068a0:	781b      	ldrb	r3, [r3, #0]
 80068a2:	2b28      	cmp	r3, #40	@ 0x28
 80068a4:	d12d      	bne.n	8006902 <_strtod_l+0x372>
 80068a6:	4997      	ldr	r1, [pc, #604]	@ (8006b04 <_strtod_l+0x574>)
 80068a8:	aa14      	add	r2, sp, #80	@ 0x50
 80068aa:	a811      	add	r0, sp, #68	@ 0x44
 80068ac:	f001 fb64 	bl	8007f78 <__hexnan>
 80068b0:	2805      	cmp	r0, #5
 80068b2:	d126      	bne.n	8006902 <_strtod_l+0x372>
 80068b4:	9b15      	ldr	r3, [sp, #84]	@ 0x54
 80068b6:	f8dd a050 	ldr.w	sl, [sp, #80]	@ 0x50
 80068ba:	f043 4bff 	orr.w	fp, r3, #2139095040	@ 0x7f800000
 80068be:	f44b 0be0 	orr.w	fp, fp, #7340032	@ 0x700000
 80068c2:	e6b9      	b.n	8006638 <_strtod_l+0xa8>
 80068c4:	250a      	movs	r5, #10
 80068c6:	fb05 2e0e 	mla	lr, r5, lr, r2
 80068ca:	f1ae 0e30 	sub.w	lr, lr, #48	@ 0x30
 80068ce:	e7ba      	b.n	8006846 <_strtod_l+0x2b6>
 80068d0:	2a6e      	cmp	r2, #110	@ 0x6e
 80068d2:	e7db      	b.n	800688c <_strtod_l+0x2fc>
 80068d4:	498c      	ldr	r1, [pc, #560]	@ (8006b08 <_strtod_l+0x578>)
 80068d6:	a811      	add	r0, sp, #68	@ 0x44
 80068d8:	f001 fb3a 	bl	8007f50 <__match>
 80068dc:	2800      	cmp	r0, #0
 80068de:	f43f ae81 	beq.w	80065e4 <_strtod_l+0x54>
 80068e2:	9b11      	ldr	r3, [sp, #68]	@ 0x44
 80068e4:	4989      	ldr	r1, [pc, #548]	@ (8006b0c <_strtod_l+0x57c>)
 80068e6:	3b01      	subs	r3, #1
 80068e8:	a811      	add	r0, sp, #68	@ 0x44
 80068ea:	9311      	str	r3, [sp, #68]	@ 0x44
 80068ec:	f001 fb30 	bl	8007f50 <__match>
 80068f0:	b910      	cbnz	r0, 80068f8 <_strtod_l+0x368>
 80068f2:	9b11      	ldr	r3, [sp, #68]	@ 0x44
 80068f4:	3301      	adds	r3, #1
 80068f6:	9311      	str	r3, [sp, #68]	@ 0x44
 80068f8:	f8df b224 	ldr.w	fp, [pc, #548]	@ 8006b20 <_strtod_l+0x590>
 80068fc:	f04f 0a00 	mov.w	sl, #0
 8006900:	e69a      	b.n	8006638 <_strtod_l+0xa8>
 8006902:	4883      	ldr	r0, [pc, #524]	@ (8006b10 <_strtod_l+0x580>)
 8006904:	f001 f860 	bl	80079c8 <nan>
 8006908:	ec5b ab10 	vmov	sl, fp, d0
 800690c:	e694      	b.n	8006638 <_strtod_l+0xa8>
 800690e:	eddd 7a07 	vldr	s15, [sp, #28]
 8006912:	eba5 0208 	sub.w	r2, r5, r8
 8006916:	eeb8 7b67 	vcvt.f64.u32	d7, s15
 800691a:	2e00      	cmp	r6, #0
 800691c:	bf08      	it	eq
 800691e:	461e      	moveq	r6, r3
 8006920:	2b10      	cmp	r3, #16
 8006922:	9209      	str	r2, [sp, #36]	@ 0x24
 8006924:	461a      	mov	r2, r3
 8006926:	bfa8      	it	ge
 8006928:	2210      	movge	r2, #16
 800692a:	2b09      	cmp	r3, #9
 800692c:	ec5b ab17 	vmov	sl, fp, d7
 8006930:	dc16      	bgt.n	8006960 <_strtod_l+0x3d0>
 8006932:	eba5 0108 	sub.w	r1, r5, r8
 8006936:	2900      	cmp	r1, #0
 8006938:	f43f ae7e 	beq.w	8006638 <_strtod_l+0xa8>
 800693c:	eba5 0108 	sub.w	r1, r5, r8
 8006940:	dd6e      	ble.n	8006a20 <_strtod_l+0x490>
 8006942:	2916      	cmp	r1, #22
 8006944:	dc54      	bgt.n	80069f0 <_strtod_l+0x460>
 8006946:	4b73      	ldr	r3, [pc, #460]	@ (8006b14 <_strtod_l+0x584>)
 8006948:	9a09      	ldr	r2, [sp, #36]	@ 0x24
 800694a:	eb03 03c2 	add.w	r3, r3, r2, lsl #3
 800694e:	ed93 7b00 	vldr	d7, [r3]
 8006952:	ec4b ab16 	vmov	d6, sl, fp
 8006956:	ee27 7b06 	vmul.f64	d7, d7, d6
 800695a:	ec5b ab17 	vmov	sl, fp, d7
 800695e:	e66b      	b.n	8006638 <_strtod_l+0xa8>
 8006960:	496c      	ldr	r1, [pc, #432]	@ (8006b14 <_strtod_l+0x584>)
 8006962:	eb01 01c2 	add.w	r1, r1, r2, lsl #3
 8006966:	ed11 5b12 	vldr	d5, [r1, #-72]	@ 0xffffffb8
 800696a:	ee06 7a90 	vmov	s13, r7
 800696e:	2b0f      	cmp	r3, #15
 8006970:	eeb8 6b66 	vcvt.f64.u32	d6, s13
 8006974:	eea7 6b05 	vfma.f64	d6, d7, d5
 8006978:	ec5b ab16 	vmov	sl, fp, d6
 800697c:	ddd9      	ble.n	8006932 <_strtod_l+0x3a2>
 800697e:	1a9a      	subs	r2, r3, r2
 8006980:	eba5 0108 	sub.w	r1, r5, r8
 8006984:	440a      	add	r2, r1
 8006986:	2a00      	cmp	r2, #0
 8006988:	f340 8098 	ble.w	8006abc <_strtod_l+0x52c>
 800698c:	f022 010f 	bic.w	r1, r2, #15
 8006990:	f012 020f 	ands.w	r2, r2, #15
 8006994:	d152      	bne.n	8006a3c <_strtod_l+0x4ac>
 8006996:	f5b1 7f9a 	cmp.w	r1, #308	@ 0x134
 800699a:	dc5f      	bgt.n	8006a5c <_strtod_l+0x4cc>
 800699c:	2000      	movs	r0, #0
 800699e:	ec4b ab17 	vmov	d7, sl, fp
 80069a2:	4f5d      	ldr	r7, [pc, #372]	@ (8006b18 <_strtod_l+0x588>)
 80069a4:	110a      	asrs	r2, r1, #4
 80069a6:	4601      	mov	r1, r0
 80069a8:	2a01      	cmp	r2, #1
 80069aa:	d17b      	bne.n	8006aa4 <_strtod_l+0x514>
 80069ac:	b108      	cbz	r0, 80069b2 <_strtod_l+0x422>
 80069ae:	ec5b ab17 	vmov	sl, fp, d7
 80069b2:	4a59      	ldr	r2, [pc, #356]	@ (8006b18 <_strtod_l+0x588>)
 80069b4:	4859      	ldr	r0, [pc, #356]	@ (8006b1c <_strtod_l+0x58c>)
 80069b6:	eb02 02c1 	add.w	r2, r2, r1, lsl #3
 80069ba:	ed92 7b00 	vldr	d7, [r2]
 80069be:	f1ab 7b54 	sub.w	fp, fp, #55574528	@ 0x3500000
 80069c2:	ec4b ab16 	vmov	d6, sl, fp
 80069c6:	4a56      	ldr	r2, [pc, #344]	@ (8006b20 <_strtod_l+0x590>)
 80069c8:	ee27 7b06 	vmul.f64	d7, d7, d6
 80069cc:	ee17 1a90 	vmov	r1, s15
 80069d0:	400a      	ands	r2, r1
 80069d2:	4282      	cmp	r2, r0
 80069d4:	ec5b ab17 	vmov	sl, fp, d7
 80069d8:	d840      	bhi.n	8006a5c <_strtod_l+0x4cc>
 80069da:	f5a0 1080 	sub.w	r0, r0, #1048576	@ 0x100000
 80069de:	4282      	cmp	r2, r0
 80069e0:	bf86      	itte	hi
 80069e2:	f8df b140 	ldrhi.w	fp, [pc, #320]	@ 8006b24 <_strtod_l+0x594>
 80069e6:	f04f 3aff 	movhi.w	sl, #4294967295
 80069ea:	f101 7b54 	addls.w	fp, r1, #55574528	@ 0x3500000
 80069ee:	e032      	b.n	8006a56 <_strtod_l+0x4c6>
 80069f0:	f1c3 0125 	rsb	r1, r3, #37	@ 0x25
 80069f4:	eba5 0008 	sub.w	r0, r5, r8
 80069f8:	4281      	cmp	r1, r0
 80069fa:	dbc0      	blt.n	800697e <_strtod_l+0x3ee>
 80069fc:	4a45      	ldr	r2, [pc, #276]	@ (8006b14 <_strtod_l+0x584>)
 80069fe:	f1c3 030f 	rsb	r3, r3, #15
 8006a02:	eb02 01c3 	add.w	r1, r2, r3, lsl #3
 8006a06:	ed91 7b00 	vldr	d7, [r1]
 8006a0a:	9909      	ldr	r1, [sp, #36]	@ 0x24
 8006a0c:	ec4b ab16 	vmov	d6, sl, fp
 8006a10:	1acb      	subs	r3, r1, r3
 8006a12:	eb02 02c3 	add.w	r2, r2, r3, lsl #3
 8006a16:	ee27 7b06 	vmul.f64	d7, d7, d6
 8006a1a:	ed92 6b00 	vldr	d6, [r2]
 8006a1e:	e79a      	b.n	8006956 <_strtod_l+0x3c6>
 8006a20:	3116      	adds	r1, #22
 8006a22:	dbac      	blt.n	800697e <_strtod_l+0x3ee>
 8006a24:	4b3b      	ldr	r3, [pc, #236]	@ (8006b14 <_strtod_l+0x584>)
 8006a26:	eba8 0505 	sub.w	r5, r8, r5
 8006a2a:	eb03 05c5 	add.w	r5, r3, r5, lsl #3
 8006a2e:	ed95 7b00 	vldr	d7, [r5]
 8006a32:	ec4b ab16 	vmov	d6, sl, fp
 8006a36:	ee86 7b07 	vdiv.f64	d7, d6, d7
 8006a3a:	e78e      	b.n	800695a <_strtod_l+0x3ca>
 8006a3c:	4835      	ldr	r0, [pc, #212]	@ (8006b14 <_strtod_l+0x584>)
 8006a3e:	eb00 02c2 	add.w	r2, r0, r2, lsl #3
 8006a42:	ed92 7b00 	vldr	d7, [r2]
 8006a46:	ec4b ab16 	vmov	d6, sl, fp
 8006a4a:	ee27 7b06 	vmul.f64	d7, d7, d6
 8006a4e:	ec5b ab17 	vmov	sl, fp, d7
 8006a52:	2900      	cmp	r1, #0
 8006a54:	d19f      	bne.n	8006996 <_strtod_l+0x406>
 8006a56:	2200      	movs	r2, #0
 8006a58:	9205      	str	r2, [sp, #20]
 8006a5a:	e09c      	b.n	8006b96 <_strtod_l+0x606>
 8006a5c:	2400      	movs	r4, #0
 8006a5e:	4625      	mov	r5, r4
 8006a60:	9407      	str	r4, [sp, #28]
 8006a62:	4626      	mov	r6, r4
 8006a64:	2322      	movs	r3, #34	@ 0x22
 8006a66:	f8df b0b8 	ldr.w	fp, [pc, #184]	@ 8006b20 <_strtod_l+0x590>
 8006a6a:	f8c9 3000 	str.w	r3, [r9]
 8006a6e:	f04f 0a00 	mov.w	sl, #0
 8006a72:	9b07      	ldr	r3, [sp, #28]
 8006a74:	2b00      	cmp	r3, #0
 8006a76:	f43f addf 	beq.w	8006638 <_strtod_l+0xa8>
 8006a7a:	9912      	ldr	r1, [sp, #72]	@ 0x48
 8006a7c:	4648      	mov	r0, r9
 8006a7e:	f7ff f8f3 	bl	8005c68 <_Bfree>
 8006a82:	4631      	mov	r1, r6
 8006a84:	4648      	mov	r0, r9
 8006a86:	f7ff f8ef 	bl	8005c68 <_Bfree>
 8006a8a:	4629      	mov	r1, r5
 8006a8c:	4648      	mov	r0, r9
 8006a8e:	f7ff f8eb 	bl	8005c68 <_Bfree>
 8006a92:	9907      	ldr	r1, [sp, #28]
 8006a94:	4648      	mov	r0, r9
 8006a96:	f7ff f8e7 	bl	8005c68 <_Bfree>
 8006a9a:	4621      	mov	r1, r4
 8006a9c:	4648      	mov	r0, r9
 8006a9e:	f7ff f8e3 	bl	8005c68 <_Bfree>
 8006aa2:	e5c9      	b.n	8006638 <_strtod_l+0xa8>
 8006aa4:	f012 0f01 	tst.w	r2, #1
 8006aa8:	d004      	beq.n	8006ab4 <_strtod_l+0x524>
 8006aaa:	ed97 6b00 	vldr	d6, [r7]
 8006aae:	2001      	movs	r0, #1
 8006ab0:	ee27 7b06 	vmul.f64	d7, d7, d6
 8006ab4:	3101      	adds	r1, #1
 8006ab6:	1052      	asrs	r2, r2, #1
 8006ab8:	3708      	adds	r7, #8
 8006aba:	e775      	b.n	80069a8 <_strtod_l+0x418>
 8006abc:	d0cb      	beq.n	8006a56 <_strtod_l+0x4c6>
 8006abe:	4252      	negs	r2, r2
 8006ac0:	1111      	asrs	r1, r2, #4
 8006ac2:	f012 020f 	ands.w	r2, r2, #15
 8006ac6:	d10d      	bne.n	8006ae4 <_strtod_l+0x554>
 8006ac8:	291f      	cmp	r1, #31
 8006aca:	dd2d      	ble.n	8006b28 <_strtod_l+0x598>
 8006acc:	2400      	movs	r4, #0
 8006ace:	4625      	mov	r5, r4
 8006ad0:	9407      	str	r4, [sp, #28]
 8006ad2:	4626      	mov	r6, r4
 8006ad4:	2322      	movs	r3, #34	@ 0x22
 8006ad6:	f04f 0a00 	mov.w	sl, #0
 8006ada:	f04f 0b00 	mov.w	fp, #0
 8006ade:	f8c9 3000 	str.w	r3, [r9]
 8006ae2:	e7c6      	b.n	8006a72 <_strtod_l+0x4e2>
 8006ae4:	480b      	ldr	r0, [pc, #44]	@ (8006b14 <_strtod_l+0x584>)
 8006ae6:	eb00 02c2 	add.w	r2, r0, r2, lsl #3
 8006aea:	ed92 7b00 	vldr	d7, [r2]
 8006aee:	ec4b ab16 	vmov	d6, sl, fp
 8006af2:	ee86 7b07 	vdiv.f64	d7, d6, d7
 8006af6:	ec5b ab17 	vmov	sl, fp, d7
 8006afa:	2900      	cmp	r1, #0
 8006afc:	d0ab      	beq.n	8006a56 <_strtod_l+0x4c6>
 8006afe:	e7e3      	b.n	8006ac8 <_strtod_l+0x538>
 8006b00:	08008501 	.word	0x08008501
 8006b04:	080087c8 	.word	0x080087c8
 8006b08:	080084f9 	.word	0x080084f9
 8006b0c:	08008530 	.word	0x08008530
 8006b10:	08008669 	.word	0x08008669
 8006b14:	08008700 	.word	0x08008700
 8006b18:	080086d8 	.word	0x080086d8
 8006b1c:	7ca00000 	.word	0x7ca00000
 8006b20:	7ff00000 	.word	0x7ff00000
 8006b24:	7fefffff 	.word	0x7fefffff
 8006b28:	f011 0210 	ands.w	r2, r1, #16
 8006b2c:	bf18      	it	ne
 8006b2e:	226a      	movne	r2, #106	@ 0x6a
 8006b30:	9205      	str	r2, [sp, #20]
 8006b32:	ec4b ab17 	vmov	d7, sl, fp
 8006b36:	4ab0      	ldr	r2, [pc, #704]	@ (8006df8 <_strtod_l+0x868>)
 8006b38:	2000      	movs	r0, #0
 8006b3a:	07cf      	lsls	r7, r1, #31
 8006b3c:	d504      	bpl.n	8006b48 <_strtod_l+0x5b8>
 8006b3e:	ed92 6b00 	vldr	d6, [r2]
 8006b42:	2001      	movs	r0, #1
 8006b44:	ee27 7b06 	vmul.f64	d7, d7, d6
 8006b48:	1049      	asrs	r1, r1, #1
 8006b4a:	f102 0208 	add.w	r2, r2, #8
 8006b4e:	d1f4      	bne.n	8006b3a <_strtod_l+0x5aa>
 8006b50:	b108      	cbz	r0, 8006b56 <_strtod_l+0x5c6>
 8006b52:	ec5b ab17 	vmov	sl, fp, d7
 8006b56:	9a05      	ldr	r2, [sp, #20]
 8006b58:	b1b2      	cbz	r2, 8006b88 <_strtod_l+0x5f8>
 8006b5a:	f3cb 510a 	ubfx	r1, fp, #20, #11
 8006b5e:	f1c1 026b 	rsb	r2, r1, #107	@ 0x6b
 8006b62:	2a00      	cmp	r2, #0
 8006b64:	4658      	mov	r0, fp
 8006b66:	dd0f      	ble.n	8006b88 <_strtod_l+0x5f8>
 8006b68:	2a1f      	cmp	r2, #31
 8006b6a:	dd54      	ble.n	8006c16 <_strtod_l+0x686>
 8006b6c:	2a34      	cmp	r2, #52	@ 0x34
 8006b6e:	bfde      	ittt	le
 8006b70:	f04f 32ff 	movle.w	r2, #4294967295
 8006b74:	f1c1 014b 	rsble	r1, r1, #75	@ 0x4b
 8006b78:	408a      	lslle	r2, r1
 8006b7a:	f04f 0a00 	mov.w	sl, #0
 8006b7e:	bfcc      	ite	gt
 8006b80:	f04f 7b5c 	movgt.w	fp, #57671680	@ 0x3700000
 8006b84:	ea02 0b00 	andle.w	fp, r2, r0
 8006b88:	ec4b ab17 	vmov	d7, sl, fp
 8006b8c:	eeb5 7b40 	vcmp.f64	d7, #0.0
 8006b90:	eef1 fa10 	vmrs	APSR_nzcv, fpscr
 8006b94:	d09a      	beq.n	8006acc <_strtod_l+0x53c>
 8006b96:	9a07      	ldr	r2, [sp, #28]
 8006b98:	9200      	str	r2, [sp, #0]
 8006b9a:	4621      	mov	r1, r4
 8006b9c:	4632      	mov	r2, r6
 8006b9e:	4648      	mov	r0, r9
 8006ba0:	f7ff f8ca 	bl	8005d38 <__s2b>
 8006ba4:	9007      	str	r0, [sp, #28]
 8006ba6:	2800      	cmp	r0, #0
 8006ba8:	f43f af58 	beq.w	8006a5c <_strtod_l+0x4cc>
 8006bac:	9a09      	ldr	r2, [sp, #36]	@ 0x24
 8006bae:	2a00      	cmp	r2, #0
 8006bb0:	eba8 0305 	sub.w	r3, r8, r5
 8006bb4:	ed9f bb8c 	vldr	d11, [pc, #560]	@ 8006de8 <_strtod_l+0x858>
 8006bb8:	bfa8      	it	ge
 8006bba:	2300      	movge	r3, #0
 8006bbc:	930a      	str	r3, [sp, #40]	@ 0x28
 8006bbe:	2400      	movs	r4, #0
 8006bc0:	ea22 73e2 	bic.w	r3, r2, r2, asr #31
 8006bc4:	930d      	str	r3, [sp, #52]	@ 0x34
 8006bc6:	4625      	mov	r5, r4
 8006bc8:	9b07      	ldr	r3, [sp, #28]
 8006bca:	4648      	mov	r0, r9
 8006bcc:	6859      	ldr	r1, [r3, #4]
 8006bce:	f7ff f80d 	bl	8005bec <_Balloc>
 8006bd2:	4606      	mov	r6, r0
 8006bd4:	2800      	cmp	r0, #0
 8006bd6:	f43f af45 	beq.w	8006a64 <_strtod_l+0x4d4>
 8006bda:	9b07      	ldr	r3, [sp, #28]
 8006bdc:	691a      	ldr	r2, [r3, #16]
 8006bde:	ec4b ab19 	vmov	d9, sl, fp
 8006be2:	3202      	adds	r2, #2
 8006be4:	f103 010c 	add.w	r1, r3, #12
 8006be8:	0092      	lsls	r2, r2, #2
 8006bea:	300c      	adds	r0, #12
 8006bec:	f7fe f917 	bl	8004e1e <memcpy>
 8006bf0:	eeb0 0b49 	vmov.f64	d0, d9
 8006bf4:	aa14      	add	r2, sp, #80	@ 0x50
 8006bf6:	a913      	add	r1, sp, #76	@ 0x4c
 8006bf8:	4648      	mov	r0, r9
 8006bfa:	f7ff fbe1 	bl	80063c0 <__d2b>
 8006bfe:	9012      	str	r0, [sp, #72]	@ 0x48
 8006c00:	2800      	cmp	r0, #0
 8006c02:	f43f af2f 	beq.w	8006a64 <_strtod_l+0x4d4>
 8006c06:	2101      	movs	r1, #1
 8006c08:	4648      	mov	r0, r9
 8006c0a:	f7ff f92b 	bl	8005e64 <__i2b>
 8006c0e:	4605      	mov	r5, r0
 8006c10:	b940      	cbnz	r0, 8006c24 <_strtod_l+0x694>
 8006c12:	2500      	movs	r5, #0
 8006c14:	e726      	b.n	8006a64 <_strtod_l+0x4d4>
 8006c16:	f04f 31ff 	mov.w	r1, #4294967295
 8006c1a:	fa01 f202 	lsl.w	r2, r1, r2
 8006c1e:	ea02 0a0a 	and.w	sl, r2, sl
 8006c22:	e7b1      	b.n	8006b88 <_strtod_l+0x5f8>
 8006c24:	9f13      	ldr	r7, [sp, #76]	@ 0x4c
 8006c26:	9a14      	ldr	r2, [sp, #80]	@ 0x50
 8006c28:	2f00      	cmp	r7, #0
 8006c2a:	bfb1      	iteee	lt
 8006c2c:	9b0d      	ldrlt	r3, [sp, #52]	@ 0x34
 8006c2e:	9b0a      	ldrge	r3, [sp, #40]	@ 0x28
 8006c30:	f8dd 8034 	ldrge.w	r8, [sp, #52]	@ 0x34
 8006c34:	18fb      	addge	r3, r7, r3
 8006c36:	bfbb      	ittet	lt
 8006c38:	eba3 0807 	sublt.w	r8, r3, r7
 8006c3c:	9b0a      	ldrlt	r3, [sp, #40]	@ 0x28
 8006c3e:	9308      	strge	r3, [sp, #32]
 8006c40:	9308      	strlt	r3, [sp, #32]
 8006c42:	9b05      	ldr	r3, [sp, #20]
 8006c44:	1aff      	subs	r7, r7, r3
 8006c46:	4417      	add	r7, r2
 8006c48:	f1c2 0336 	rsb	r3, r2, #54	@ 0x36
 8006c4c:	4a6b      	ldr	r2, [pc, #428]	@ (8006dfc <_strtod_l+0x86c>)
 8006c4e:	3f01      	subs	r7, #1
 8006c50:	4297      	cmp	r7, r2
 8006c52:	da51      	bge.n	8006cf8 <_strtod_l+0x768>
 8006c54:	1bd1      	subs	r1, r2, r7
 8006c56:	291f      	cmp	r1, #31
 8006c58:	eba3 0301 	sub.w	r3, r3, r1
 8006c5c:	f04f 0201 	mov.w	r2, #1
 8006c60:	dc3e      	bgt.n	8006ce0 <_strtod_l+0x750>
 8006c62:	408a      	lsls	r2, r1
 8006c64:	920c      	str	r2, [sp, #48]	@ 0x30
 8006c66:	2200      	movs	r2, #0
 8006c68:	920b      	str	r2, [sp, #44]	@ 0x2c
 8006c6a:	9a08      	ldr	r2, [sp, #32]
 8006c6c:	4498      	add	r8, r3
 8006c6e:	18d7      	adds	r7, r2, r3
 8006c70:	9b05      	ldr	r3, [sp, #20]
 8006c72:	42ba      	cmp	r2, r7
 8006c74:	4498      	add	r8, r3
 8006c76:	4613      	mov	r3, r2
 8006c78:	bfa8      	it	ge
 8006c7a:	463b      	movge	r3, r7
 8006c7c:	4543      	cmp	r3, r8
 8006c7e:	bfa8      	it	ge
 8006c80:	4643      	movge	r3, r8
 8006c82:	2b00      	cmp	r3, #0
 8006c84:	bfc1      	itttt	gt
 8006c86:	1aff      	subgt	r7, r7, r3
 8006c88:	eba8 0803 	subgt.w	r8, r8, r3
 8006c8c:	1ad3      	subgt	r3, r2, r3
 8006c8e:	9308      	strgt	r3, [sp, #32]
 8006c90:	9b0a      	ldr	r3, [sp, #40]	@ 0x28
 8006c92:	2b00      	cmp	r3, #0
 8006c94:	dd16      	ble.n	8006cc4 <_strtod_l+0x734>
 8006c96:	4629      	mov	r1, r5
 8006c98:	461a      	mov	r2, r3
 8006c9a:	4648      	mov	r0, r9
 8006c9c:	f7ff f9a2 	bl	8005fe4 <__pow5mult>
 8006ca0:	4605      	mov	r5, r0
 8006ca2:	2800      	cmp	r0, #0
 8006ca4:	d0b5      	beq.n	8006c12 <_strtod_l+0x682>
 8006ca6:	4601      	mov	r1, r0
 8006ca8:	9a12      	ldr	r2, [sp, #72]	@ 0x48
 8006caa:	4648      	mov	r0, r9
 8006cac:	f7ff f8f0 	bl	8005e90 <__multiply>
 8006cb0:	900f      	str	r0, [sp, #60]	@ 0x3c
 8006cb2:	2800      	cmp	r0, #0
 8006cb4:	f43f aed6 	beq.w	8006a64 <_strtod_l+0x4d4>
 8006cb8:	9912      	ldr	r1, [sp, #72]	@ 0x48
 8006cba:	4648      	mov	r0, r9
 8006cbc:	f7fe ffd4 	bl	8005c68 <_Bfree>
 8006cc0:	9b0f      	ldr	r3, [sp, #60]	@ 0x3c
 8006cc2:	9312      	str	r3, [sp, #72]	@ 0x48
 8006cc4:	2f00      	cmp	r7, #0
 8006cc6:	dc1b      	bgt.n	8006d00 <_strtod_l+0x770>
 8006cc8:	9b09      	ldr	r3, [sp, #36]	@ 0x24
 8006cca:	2b00      	cmp	r3, #0
 8006ccc:	dd21      	ble.n	8006d12 <_strtod_l+0x782>
 8006cce:	4631      	mov	r1, r6
 8006cd0:	9a0d      	ldr	r2, [sp, #52]	@ 0x34
 8006cd2:	4648      	mov	r0, r9
 8006cd4:	f7ff f986 	bl	8005fe4 <__pow5mult>
 8006cd8:	4606      	mov	r6, r0
 8006cda:	b9d0      	cbnz	r0, 8006d12 <_strtod_l+0x782>
 8006cdc:	2600      	movs	r6, #0
 8006cde:	e6c1      	b.n	8006a64 <_strtod_l+0x4d4>
 8006ce0:	f1c7 477f 	rsb	r7, r7, #4278190080	@ 0xff000000
 8006ce4:	f507 077f 	add.w	r7, r7, #16711680	@ 0xff0000
 8006ce8:	f507 477b 	add.w	r7, r7, #64256	@ 0xfb00
 8006cec:	37e2      	adds	r7, #226	@ 0xe2
 8006cee:	fa02 f107 	lsl.w	r1, r2, r7
 8006cf2:	910b      	str	r1, [sp, #44]	@ 0x2c
 8006cf4:	920c      	str	r2, [sp, #48]	@ 0x30
 8006cf6:	e7b8      	b.n	8006c6a <_strtod_l+0x6da>
 8006cf8:	2200      	movs	r2, #0
 8006cfa:	920b      	str	r2, [sp, #44]	@ 0x2c
 8006cfc:	2201      	movs	r2, #1
 8006cfe:	e7f9      	b.n	8006cf4 <_strtod_l+0x764>
 8006d00:	9912      	ldr	r1, [sp, #72]	@ 0x48
 8006d02:	463a      	mov	r2, r7
 8006d04:	4648      	mov	r0, r9
 8006d06:	f7ff f9c9 	bl	800609c <__lshift>
 8006d0a:	9012      	str	r0, [sp, #72]	@ 0x48
 8006d0c:	2800      	cmp	r0, #0
 8006d0e:	d1db      	bne.n	8006cc8 <_strtod_l+0x738>
 8006d10:	e6a8      	b.n	8006a64 <_strtod_l+0x4d4>
 8006d12:	f1b8 0f00 	cmp.w	r8, #0
 8006d16:	dd07      	ble.n	8006d28 <_strtod_l+0x798>
 8006d18:	4631      	mov	r1, r6
 8006d1a:	4642      	mov	r2, r8
 8006d1c:	4648      	mov	r0, r9
 8006d1e:	f7ff f9bd 	bl	800609c <__lshift>
 8006d22:	4606      	mov	r6, r0
 8006d24:	2800      	cmp	r0, #0
 8006d26:	d0d9      	beq.n	8006cdc <_strtod_l+0x74c>
 8006d28:	9b08      	ldr	r3, [sp, #32]
 8006d2a:	2b00      	cmp	r3, #0
 8006d2c:	dd08      	ble.n	8006d40 <_strtod_l+0x7b0>
 8006d2e:	4629      	mov	r1, r5
 8006d30:	461a      	mov	r2, r3
 8006d32:	4648      	mov	r0, r9
 8006d34:	f7ff f9b2 	bl	800609c <__lshift>
 8006d38:	4605      	mov	r5, r0
 8006d3a:	2800      	cmp	r0, #0
 8006d3c:	f43f ae92 	beq.w	8006a64 <_strtod_l+0x4d4>
 8006d40:	9912      	ldr	r1, [sp, #72]	@ 0x48
 8006d42:	4632      	mov	r2, r6
 8006d44:	4648      	mov	r0, r9
 8006d46:	f7ff fa33 	bl	80061b0 <__mdiff>
 8006d4a:	4604      	mov	r4, r0
 8006d4c:	2800      	cmp	r0, #0
 8006d4e:	f43f ae89 	beq.w	8006a64 <_strtod_l+0x4d4>
 8006d52:	68c3      	ldr	r3, [r0, #12]
 8006d54:	9308      	str	r3, [sp, #32]
 8006d56:	2300      	movs	r3, #0
 8006d58:	60c3      	str	r3, [r0, #12]
 8006d5a:	4629      	mov	r1, r5
 8006d5c:	f7ff fa0c 	bl	8006178 <__mcmp>
 8006d60:	2800      	cmp	r0, #0
 8006d62:	da4f      	bge.n	8006e04 <_strtod_l+0x874>
 8006d64:	9b08      	ldr	r3, [sp, #32]
 8006d66:	ea53 030a 	orrs.w	r3, r3, sl
 8006d6a:	d173      	bne.n	8006e54 <_strtod_l+0x8c4>
 8006d6c:	f3cb 0313 	ubfx	r3, fp, #0, #20
 8006d70:	46d8      	mov	r8, fp
 8006d72:	2b00      	cmp	r3, #0
 8006d74:	d16e      	bne.n	8006e54 <_strtod_l+0x8c4>
 8006d76:	f02b 4300 	bic.w	r3, fp, #2147483648	@ 0x80000000
 8006d7a:	0d1b      	lsrs	r3, r3, #20
 8006d7c:	051b      	lsls	r3, r3, #20
 8006d7e:	f1b3 6fd6 	cmp.w	r3, #112197632	@ 0x6b00000
 8006d82:	d967      	bls.n	8006e54 <_strtod_l+0x8c4>
 8006d84:	6963      	ldr	r3, [r4, #20]
 8006d86:	b913      	cbnz	r3, 8006d8e <_strtod_l+0x7fe>
 8006d88:	6923      	ldr	r3, [r4, #16]
 8006d8a:	2b01      	cmp	r3, #1
 8006d8c:	dd62      	ble.n	8006e54 <_strtod_l+0x8c4>
 8006d8e:	4621      	mov	r1, r4
 8006d90:	2201      	movs	r2, #1
 8006d92:	4648      	mov	r0, r9
 8006d94:	f7ff f982 	bl	800609c <__lshift>
 8006d98:	4629      	mov	r1, r5
 8006d9a:	4604      	mov	r4, r0
 8006d9c:	f7ff f9ec 	bl	8006178 <__mcmp>
 8006da0:	2800      	cmp	r0, #0
 8006da2:	dd57      	ble.n	8006e54 <_strtod_l+0x8c4>
 8006da4:	4b16      	ldr	r3, [pc, #88]	@ (8006e00 <_strtod_l+0x870>)
 8006da6:	9a05      	ldr	r2, [sp, #20]
 8006da8:	ea08 0303 	and.w	r3, r8, r3
 8006dac:	2a00      	cmp	r2, #0
 8006dae:	d06e      	beq.n	8006e8e <_strtod_l+0x8fe>
 8006db0:	f1b3 6fd6 	cmp.w	r3, #112197632	@ 0x6b00000
 8006db4:	d86b      	bhi.n	8006e8e <_strtod_l+0x8fe>
 8006db6:	f1b3 7f5c 	cmp.w	r3, #57671680	@ 0x3700000
 8006dba:	f67f ae8b 	bls.w	8006ad4 <_strtod_l+0x544>
 8006dbe:	ed9f 7b0c 	vldr	d7, [pc, #48]	@ 8006df0 <_strtod_l+0x860>
 8006dc2:	ec4b ab16 	vmov	d6, sl, fp
 8006dc6:	4b0e      	ldr	r3, [pc, #56]	@ (8006e00 <_strtod_l+0x870>)
 8006dc8:	ee26 7b07 	vmul.f64	d7, d6, d7
 8006dcc:	ee17 2a90 	vmov	r2, s15
 8006dd0:	4013      	ands	r3, r2
 8006dd2:	ec5b ab17 	vmov	sl, fp, d7
 8006dd6:	2b00      	cmp	r3, #0
 8006dd8:	f47f ae4f 	bne.w	8006a7a <_strtod_l+0x4ea>
 8006ddc:	2322      	movs	r3, #34	@ 0x22
 8006dde:	f8c9 3000 	str.w	r3, [r9]
 8006de2:	e64a      	b.n	8006a7a <_strtod_l+0x4ea>
 8006de4:	f3af 8000 	nop.w
 8006de8:	ffc00000 	.word	0xffc00000
 8006dec:	41dfffff 	.word	0x41dfffff
 8006df0:	00000000 	.word	0x00000000
 8006df4:	39500000 	.word	0x39500000
 8006df8:	080087f0 	.word	0x080087f0
 8006dfc:	fffffc02 	.word	0xfffffc02
 8006e00:	7ff00000 	.word	0x7ff00000
 8006e04:	46d8      	mov	r8, fp
 8006e06:	d15b      	bne.n	8006ec0 <_strtod_l+0x930>
 8006e08:	9a08      	ldr	r2, [sp, #32]
 8006e0a:	f3cb 0313 	ubfx	r3, fp, #0, #20
 8006e0e:	b352      	cbz	r2, 8006e66 <_strtod_l+0x8d6>
 8006e10:	4aa9      	ldr	r2, [pc, #676]	@ (80070b8 <_strtod_l+0xb28>)
 8006e12:	4293      	cmp	r3, r2
 8006e14:	d12a      	bne.n	8006e6c <_strtod_l+0x8dc>
 8006e16:	9b05      	ldr	r3, [sp, #20]
 8006e18:	4652      	mov	r2, sl
 8006e1a:	b1fb      	cbz	r3, 8006e5c <_strtod_l+0x8cc>
 8006e1c:	4ba7      	ldr	r3, [pc, #668]	@ (80070bc <_strtod_l+0xb2c>)
 8006e1e:	ea0b 0303 	and.w	r3, fp, r3
 8006e22:	f1b3 6fd4 	cmp.w	r3, #111149056	@ 0x6a00000
 8006e26:	f04f 31ff 	mov.w	r1, #4294967295
 8006e2a:	d81a      	bhi.n	8006e62 <_strtod_l+0x8d2>
 8006e2c:	0d1b      	lsrs	r3, r3, #20
 8006e2e:	f1c3 036b 	rsb	r3, r3, #107	@ 0x6b
 8006e32:	fa01 f303 	lsl.w	r3, r1, r3
 8006e36:	429a      	cmp	r2, r3
 8006e38:	d118      	bne.n	8006e6c <_strtod_l+0x8dc>
 8006e3a:	4ba1      	ldr	r3, [pc, #644]	@ (80070c0 <_strtod_l+0xb30>)
 8006e3c:	4598      	cmp	r8, r3
 8006e3e:	d102      	bne.n	8006e46 <_strtod_l+0x8b6>
 8006e40:	3201      	adds	r2, #1
 8006e42:	f43f ae0f 	beq.w	8006a64 <_strtod_l+0x4d4>
 8006e46:	4b9d      	ldr	r3, [pc, #628]	@ (80070bc <_strtod_l+0xb2c>)
 8006e48:	ea08 0303 	and.w	r3, r8, r3
 8006e4c:	f503 1b80 	add.w	fp, r3, #1048576	@ 0x100000
 8006e50:	f04f 0a00 	mov.w	sl, #0
 8006e54:	9b05      	ldr	r3, [sp, #20]
 8006e56:	2b00      	cmp	r3, #0
 8006e58:	d1b1      	bne.n	8006dbe <_strtod_l+0x82e>
 8006e5a:	e60e      	b.n	8006a7a <_strtod_l+0x4ea>
 8006e5c:	f04f 33ff 	mov.w	r3, #4294967295
 8006e60:	e7e9      	b.n	8006e36 <_strtod_l+0x8a6>
 8006e62:	460b      	mov	r3, r1
 8006e64:	e7e7      	b.n	8006e36 <_strtod_l+0x8a6>
 8006e66:	ea53 030a 	orrs.w	r3, r3, sl
 8006e6a:	d09b      	beq.n	8006da4 <_strtod_l+0x814>
 8006e6c:	9b0b      	ldr	r3, [sp, #44]	@ 0x2c
 8006e6e:	b1bb      	cbz	r3, 8006ea0 <_strtod_l+0x910>
 8006e70:	ea13 0f08 	tst.w	r3, r8
 8006e74:	d0ee      	beq.n	8006e54 <_strtod_l+0x8c4>
 8006e76:	9b08      	ldr	r3, [sp, #32]
 8006e78:	9a05      	ldr	r2, [sp, #20]
 8006e7a:	4650      	mov	r0, sl
 8006e7c:	4659      	mov	r1, fp
 8006e7e:	b19b      	cbz	r3, 8006ea8 <_strtod_l+0x918>
 8006e80:	f7ff fb69 	bl	8006556 <sulp>
 8006e84:	ee39 7b00 	vadd.f64	d7, d9, d0
 8006e88:	ec5b ab17 	vmov	sl, fp, d7
 8006e8c:	e7e2      	b.n	8006e54 <_strtod_l+0x8c4>
 8006e8e:	f5a3 1380 	sub.w	r3, r3, #1048576	@ 0x100000
 8006e92:	ea6f 5b13 	mvn.w	fp, r3, lsr #20
 8006e96:	ea6f 5b0b 	mvn.w	fp, fp, lsl #20
 8006e9a:	f04f 3aff 	mov.w	sl, #4294967295
 8006e9e:	e7d9      	b.n	8006e54 <_strtod_l+0x8c4>
 8006ea0:	9b0c      	ldr	r3, [sp, #48]	@ 0x30
 8006ea2:	ea13 0f0a 	tst.w	r3, sl
 8006ea6:	e7e5      	b.n	8006e74 <_strtod_l+0x8e4>
 8006ea8:	f7ff fb55 	bl	8006556 <sulp>
 8006eac:	ee39 0b40 	vsub.f64	d0, d9, d0
 8006eb0:	eeb5 0b40 	vcmp.f64	d0, #0.0
 8006eb4:	eef1 fa10 	vmrs	APSR_nzcv, fpscr
 8006eb8:	ec5b ab10 	vmov	sl, fp, d0
 8006ebc:	d1ca      	bne.n	8006e54 <_strtod_l+0x8c4>
 8006ebe:	e609      	b.n	8006ad4 <_strtod_l+0x544>
 8006ec0:	4629      	mov	r1, r5
 8006ec2:	4620      	mov	r0, r4
 8006ec4:	f7ff fad4 	bl	8006470 <__ratio>
 8006ec8:	eeb0 7b00 	vmov.f64	d7, #0	@ 0x40000000  2.0
 8006ecc:	eeb4 0bc7 	vcmpe.f64	d0, d7
 8006ed0:	eef1 fa10 	vmrs	APSR_nzcv, fpscr
 8006ed4:	d85d      	bhi.n	8006f92 <_strtod_l+0xa02>
 8006ed6:	9b08      	ldr	r3, [sp, #32]
 8006ed8:	2b00      	cmp	r3, #0
 8006eda:	d164      	bne.n	8006fa6 <_strtod_l+0xa16>
 8006edc:	f1ba 0f00 	cmp.w	sl, #0
 8006ee0:	d14b      	bne.n	8006f7a <_strtod_l+0x9ea>
 8006ee2:	f3cb 0313 	ubfx	r3, fp, #0, #20
 8006ee6:	eeb7 8b00 	vmov.f64	d8, #112	@ 0x3f800000  1.0
 8006eea:	2b00      	cmp	r3, #0
 8006eec:	d160      	bne.n	8006fb0 <_strtod_l+0xa20>
 8006eee:	eeb4 0bc8 	vcmpe.f64	d0, d8
 8006ef2:	eeb6 8b00 	vmov.f64	d8, #96	@ 0x3f000000  0.5
 8006ef6:	eef1 fa10 	vmrs	APSR_nzcv, fpscr
 8006efa:	d401      	bmi.n	8006f00 <_strtod_l+0x970>
 8006efc:	ee20 8b08 	vmul.f64	d8, d0, d8
 8006f00:	eeb1 ab48 	vneg.f64	d10, d8
 8006f04:	4f6d      	ldr	r7, [pc, #436]	@ (80070bc <_strtod_l+0xb2c>)
 8006f06:	496f      	ldr	r1, [pc, #444]	@ (80070c4 <_strtod_l+0xb34>)
 8006f08:	ea08 0007 	and.w	r0, r8, r7
 8006f0c:	4288      	cmp	r0, r1
 8006f0e:	ec53 2b1a 	vmov	r2, r3, d10
 8006f12:	d17c      	bne.n	800700e <_strtod_l+0xa7e>
 8006f14:	f1a8 7b54 	sub.w	fp, r8, #55574528	@ 0x3500000
 8006f18:	ec4b ab1c 	vmov	d12, sl, fp
 8006f1c:	eeb0 0b4c 	vmov.f64	d0, d12
 8006f20:	900b      	str	r0, [sp, #44]	@ 0x2c
 8006f22:	f7ff f9dd 	bl	80062e0 <__ulp>
 8006f26:	eea0 cb0a 	vfma.f64	d12, d0, d10
 8006f2a:	ee1c 3a90 	vmov	r3, s25
 8006f2e:	4a66      	ldr	r2, [pc, #408]	@ (80070c8 <_strtod_l+0xb38>)
 8006f30:	980b      	ldr	r0, [sp, #44]	@ 0x2c
 8006f32:	401f      	ands	r7, r3
 8006f34:	4297      	cmp	r7, r2
 8006f36:	ec5b ab1c 	vmov	sl, fp, d12
 8006f3a:	d93c      	bls.n	8006fb6 <_strtod_l+0xa26>
 8006f3c:	ee19 2a90 	vmov	r2, s19
 8006f40:	4b5f      	ldr	r3, [pc, #380]	@ (80070c0 <_strtod_l+0xb30>)
 8006f42:	429a      	cmp	r2, r3
 8006f44:	d104      	bne.n	8006f50 <_strtod_l+0x9c0>
 8006f46:	ee19 3a10 	vmov	r3, s18
 8006f4a:	3301      	adds	r3, #1
 8006f4c:	f43f ad8a 	beq.w	8006a64 <_strtod_l+0x4d4>
 8006f50:	f8df b16c 	ldr.w	fp, [pc, #364]	@ 80070c0 <_strtod_l+0xb30>
 8006f54:	f04f 3aff 	mov.w	sl, #4294967295
 8006f58:	9912      	ldr	r1, [sp, #72]	@ 0x48
 8006f5a:	4648      	mov	r0, r9
 8006f5c:	f7fe fe84 	bl	8005c68 <_Bfree>
 8006f60:	4631      	mov	r1, r6
 8006f62:	4648      	mov	r0, r9
 8006f64:	f7fe fe80 	bl	8005c68 <_Bfree>
 8006f68:	4629      	mov	r1, r5
 8006f6a:	4648      	mov	r0, r9
 8006f6c:	f7fe fe7c 	bl	8005c68 <_Bfree>
 8006f70:	4621      	mov	r1, r4
 8006f72:	4648      	mov	r0, r9
 8006f74:	f7fe fe78 	bl	8005c68 <_Bfree>
 8006f78:	e626      	b.n	8006bc8 <_strtod_l+0x638>
 8006f7a:	f1ba 0f01 	cmp.w	sl, #1
 8006f7e:	d103      	bne.n	8006f88 <_strtod_l+0x9f8>
 8006f80:	f1bb 0f00 	cmp.w	fp, #0
 8006f84:	f43f ada6 	beq.w	8006ad4 <_strtod_l+0x544>
 8006f88:	eebf ab00 	vmov.f64	d10, #240	@ 0xbf800000 -1.0
 8006f8c:	eeb7 8b00 	vmov.f64	d8, #112	@ 0x3f800000  1.0
 8006f90:	e7b8      	b.n	8006f04 <_strtod_l+0x974>
 8006f92:	9b08      	ldr	r3, [sp, #32]
 8006f94:	eeb6 8b00 	vmov.f64	d8, #96	@ 0x3f000000  0.5
 8006f98:	ee20 8b08 	vmul.f64	d8, d0, d8
 8006f9c:	2b00      	cmp	r3, #0
 8006f9e:	d0af      	beq.n	8006f00 <_strtod_l+0x970>
 8006fa0:	eeb0 ab48 	vmov.f64	d10, d8
 8006fa4:	e7ae      	b.n	8006f04 <_strtod_l+0x974>
 8006fa6:	eeb7 ab00 	vmov.f64	d10, #112	@ 0x3f800000  1.0
 8006faa:	eeb0 8b4a 	vmov.f64	d8, d10
 8006fae:	e7a9      	b.n	8006f04 <_strtod_l+0x974>
 8006fb0:	eebf ab00 	vmov.f64	d10, #240	@ 0xbf800000 -1.0
 8006fb4:	e7a6      	b.n	8006f04 <_strtod_l+0x974>
 8006fb6:	f103 7b54 	add.w	fp, r3, #55574528	@ 0x3500000
 8006fba:	9b05      	ldr	r3, [sp, #20]
 8006fbc:	2b00      	cmp	r3, #0
 8006fbe:	d1cb      	bne.n	8006f58 <_strtod_l+0x9c8>
 8006fc0:	f02b 4300 	bic.w	r3, fp, #2147483648	@ 0x80000000
 8006fc4:	0d1b      	lsrs	r3, r3, #20
 8006fc6:	051b      	lsls	r3, r3, #20
 8006fc8:	4298      	cmp	r0, r3
 8006fca:	d1c5      	bne.n	8006f58 <_strtod_l+0x9c8>
 8006fcc:	ec51 0b18 	vmov	r0, r1, d8
 8006fd0:	f7f9 ffa2 	bl	8000f18 <__aeabi_d2lz>
 8006fd4:	f7f9 ff5a 	bl	8000e8c <__aeabi_l2d>
 8006fd8:	9a08      	ldr	r2, [sp, #32]
 8006fda:	f3cb 0313 	ubfx	r3, fp, #0, #20
 8006fde:	ec41 0b17 	vmov	d7, r0, r1
 8006fe2:	ea43 030a 	orr.w	r3, r3, sl
 8006fe6:	4313      	orrs	r3, r2
 8006fe8:	ee38 8b47 	vsub.f64	d8, d8, d7
 8006fec:	d03d      	beq.n	800706a <_strtod_l+0xada>
 8006fee:	ed9f 7b2c 	vldr	d7, [pc, #176]	@ 80070a0 <_strtod_l+0xb10>
 8006ff2:	eeb4 8bc7 	vcmpe.f64	d8, d7
 8006ff6:	eef1 fa10 	vmrs	APSR_nzcv, fpscr
 8006ffa:	f53f ad3e 	bmi.w	8006a7a <_strtod_l+0x4ea>
 8006ffe:	ed9f 7b2a 	vldr	d7, [pc, #168]	@ 80070a8 <_strtod_l+0xb18>
 8007002:	eeb4 8bc7 	vcmpe.f64	d8, d7
 8007006:	eef1 fa10 	vmrs	APSR_nzcv, fpscr
 800700a:	dda5      	ble.n	8006f58 <_strtod_l+0x9c8>
 800700c:	e535      	b.n	8006a7a <_strtod_l+0x4ea>
 800700e:	9905      	ldr	r1, [sp, #20]
 8007010:	b1d9      	cbz	r1, 800704a <_strtod_l+0xaba>
 8007012:	f1b0 6fd4 	cmp.w	r0, #111149056	@ 0x6a00000
 8007016:	d818      	bhi.n	800704a <_strtod_l+0xaba>
 8007018:	eeb4 8bcb 	vcmpe.f64	d8, d11
 800701c:	eef1 fa10 	vmrs	APSR_nzcv, fpscr
 8007020:	d810      	bhi.n	8007044 <_strtod_l+0xab4>
 8007022:	eebc 8bc8 	vcvt.u32.f64	s16, d8
 8007026:	ee18 3a10 	vmov	r3, s16
 800702a:	2b01      	cmp	r3, #1
 800702c:	bf38      	it	cc
 800702e:	2301      	movcc	r3, #1
 8007030:	ee08 3a10 	vmov	s16, r3
 8007034:	9b08      	ldr	r3, [sp, #32]
 8007036:	eeb8 8b48 	vcvt.f64.u32	d8, s16
 800703a:	b99b      	cbnz	r3, 8007064 <_strtod_l+0xad4>
 800703c:	eeb1 7b48 	vneg.f64	d7, d8
 8007040:	ec53 2b17 	vmov	r2, r3, d7
 8007044:	f103 61d6 	add.w	r1, r3, #112197632	@ 0x6b00000
 8007048:	1a0b      	subs	r3, r1, r0
 800704a:	eeb0 0b49 	vmov.f64	d0, d9
 800704e:	ec43 2b1a 	vmov	d10, r2, r3
 8007052:	900b      	str	r0, [sp, #44]	@ 0x2c
 8007054:	f7ff f944 	bl	80062e0 <__ulp>
 8007058:	980b      	ldr	r0, [sp, #44]	@ 0x2c
 800705a:	eeaa 9b00 	vfma.f64	d9, d10, d0
 800705e:	ec5b ab19 	vmov	sl, fp, d9
 8007062:	e7aa      	b.n	8006fba <_strtod_l+0xa2a>
 8007064:	eeb0 7b48 	vmov.f64	d7, d8
 8007068:	e7ea      	b.n	8007040 <_strtod_l+0xab0>
 800706a:	ed9f 7b11 	vldr	d7, [pc, #68]	@ 80070b0 <_strtod_l+0xb20>
 800706e:	eeb4 8bc7 	vcmpe.f64	d8, d7
 8007072:	eef1 fa10 	vmrs	APSR_nzcv, fpscr
 8007076:	f57f af6f 	bpl.w	8006f58 <_strtod_l+0x9c8>
 800707a:	e4fe      	b.n	8006a7a <_strtod_l+0x4ea>
 800707c:	2300      	movs	r3, #0
 800707e:	9306      	str	r3, [sp, #24]
 8007080:	9a0e      	ldr	r2, [sp, #56]	@ 0x38
 8007082:	9b11      	ldr	r3, [sp, #68]	@ 0x44
 8007084:	6013      	str	r3, [r2, #0]
 8007086:	f7ff badb 	b.w	8006640 <_strtod_l+0xb0>
 800708a:	2a65      	cmp	r2, #101	@ 0x65
 800708c:	f43f abb6 	beq.w	80067fc <_strtod_l+0x26c>
 8007090:	2a45      	cmp	r2, #69	@ 0x45
 8007092:	f43f abb3 	beq.w	80067fc <_strtod_l+0x26c>
 8007096:	f04f 0c01 	mov.w	ip, #1
 800709a:	f7ff bbe9 	b.w	8006870 <_strtod_l+0x2e0>
 800709e:	bf00      	nop
 80070a0:	94a03595 	.word	0x94a03595
 80070a4:	3fdfffff 	.word	0x3fdfffff
 80070a8:	35afe535 	.word	0x35afe535
 80070ac:	3fe00000 	.word	0x3fe00000
 80070b0:	94a03595 	.word	0x94a03595
 80070b4:	3fcfffff 	.word	0x3fcfffff
 80070b8:	000fffff 	.word	0x000fffff
 80070bc:	7ff00000 	.word	0x7ff00000
 80070c0:	7fefffff 	.word	0x7fefffff
 80070c4:	7fe00000 	.word	0x7fe00000
 80070c8:	7c9fffff 	.word	0x7c9fffff

080070cc <_strtod_r>:
 80070cc:	4b01      	ldr	r3, [pc, #4]	@ (80070d4 <_strtod_r+0x8>)
 80070ce:	f7ff ba5f 	b.w	8006590 <_strtod_l>
 80070d2:	bf00      	nop
 80070d4:	2000006c 	.word	0x2000006c

080070d8 <_strtol_l.isra.0>:
 80070d8:	2b24      	cmp	r3, #36	@ 0x24
 80070da:	e92d 47f0 	stmdb	sp!, {r4, r5, r6, r7, r8, r9, sl, lr}
 80070de:	4686      	mov	lr, r0
 80070e0:	4690      	mov	r8, r2
 80070e2:	d801      	bhi.n	80070e8 <_strtol_l.isra.0+0x10>
 80070e4:	2b01      	cmp	r3, #1
 80070e6:	d106      	bne.n	80070f6 <_strtol_l.isra.0+0x1e>
 80070e8:	f7fd fe6c 	bl	8004dc4 <__errno>
 80070ec:	2316      	movs	r3, #22
 80070ee:	6003      	str	r3, [r0, #0]
 80070f0:	2000      	movs	r0, #0
 80070f2:	e8bd 87f0 	ldmia.w	sp!, {r4, r5, r6, r7, r8, r9, sl, pc}
 80070f6:	4834      	ldr	r0, [pc, #208]	@ (80071c8 <_strtol_l.isra.0+0xf0>)
 80070f8:	460d      	mov	r5, r1
 80070fa:	462a      	mov	r2, r5
 80070fc:	f815 4b01 	ldrb.w	r4, [r5], #1
 8007100:	5d06      	ldrb	r6, [r0, r4]
 8007102:	f016 0608 	ands.w	r6, r6, #8
 8007106:	d1f8      	bne.n	80070fa <_strtol_l.isra.0+0x22>
 8007108:	2c2d      	cmp	r4, #45	@ 0x2d
 800710a:	d110      	bne.n	800712e <_strtol_l.isra.0+0x56>
 800710c:	782c      	ldrb	r4, [r5, #0]
 800710e:	2601      	movs	r6, #1
 8007110:	1c95      	adds	r5, r2, #2
 8007112:	f033 0210 	bics.w	r2, r3, #16
 8007116:	d115      	bne.n	8007144 <_strtol_l.isra.0+0x6c>
 8007118:	2c30      	cmp	r4, #48	@ 0x30
 800711a:	d10d      	bne.n	8007138 <_strtol_l.isra.0+0x60>
 800711c:	782a      	ldrb	r2, [r5, #0]
 800711e:	f002 02df 	and.w	r2, r2, #223	@ 0xdf
 8007122:	2a58      	cmp	r2, #88	@ 0x58
 8007124:	d108      	bne.n	8007138 <_strtol_l.isra.0+0x60>
 8007126:	786c      	ldrb	r4, [r5, #1]
 8007128:	3502      	adds	r5, #2
 800712a:	2310      	movs	r3, #16
 800712c:	e00a      	b.n	8007144 <_strtol_l.isra.0+0x6c>
 800712e:	2c2b      	cmp	r4, #43	@ 0x2b
 8007130:	bf04      	itt	eq
 8007132:	782c      	ldrbeq	r4, [r5, #0]
 8007134:	1c95      	addeq	r5, r2, #2
 8007136:	e7ec      	b.n	8007112 <_strtol_l.isra.0+0x3a>
 8007138:	2b00      	cmp	r3, #0
 800713a:	d1f6      	bne.n	800712a <_strtol_l.isra.0+0x52>
 800713c:	2c30      	cmp	r4, #48	@ 0x30
 800713e:	bf14      	ite	ne
 8007140:	230a      	movne	r3, #10
 8007142:	2308      	moveq	r3, #8
 8007144:	f106 4c00 	add.w	ip, r6, #2147483648	@ 0x80000000
 8007148:	f10c 3cff 	add.w	ip, ip, #4294967295
 800714c:	2200      	movs	r2, #0
 800714e:	fbbc f9f3 	udiv	r9, ip, r3
 8007152:	4610      	mov	r0, r2
 8007154:	fb03 ca19 	mls	sl, r3, r9, ip
 8007158:	f1a4 0730 	sub.w	r7, r4, #48	@ 0x30
 800715c:	2f09      	cmp	r7, #9
 800715e:	d80f      	bhi.n	8007180 <_strtol_l.isra.0+0xa8>
 8007160:	463c      	mov	r4, r7
 8007162:	42a3      	cmp	r3, r4
 8007164:	dd1b      	ble.n	800719e <_strtol_l.isra.0+0xc6>
 8007166:	1c57      	adds	r7, r2, #1
 8007168:	d007      	beq.n	800717a <_strtol_l.isra.0+0xa2>
 800716a:	4581      	cmp	r9, r0
 800716c:	d314      	bcc.n	8007198 <_strtol_l.isra.0+0xc0>
 800716e:	d101      	bne.n	8007174 <_strtol_l.isra.0+0x9c>
 8007170:	45a2      	cmp	sl, r4
 8007172:	db11      	blt.n	8007198 <_strtol_l.isra.0+0xc0>
 8007174:	fb00 4003 	mla	r0, r0, r3, r4
 8007178:	2201      	movs	r2, #1
 800717a:	f815 4b01 	ldrb.w	r4, [r5], #1
 800717e:	e7eb      	b.n	8007158 <_strtol_l.isra.0+0x80>
 8007180:	f1a4 0741 	sub.w	r7, r4, #65	@ 0x41
 8007184:	2f19      	cmp	r7, #25
 8007186:	d801      	bhi.n	800718c <_strtol_l.isra.0+0xb4>
 8007188:	3c37      	subs	r4, #55	@ 0x37
 800718a:	e7ea      	b.n	8007162 <_strtol_l.isra.0+0x8a>
 800718c:	f1a4 0761 	sub.w	r7, r4, #97	@ 0x61
 8007190:	2f19      	cmp	r7, #25
 8007192:	d804      	bhi.n	800719e <_strtol_l.isra.0+0xc6>
 8007194:	3c57      	subs	r4, #87	@ 0x57
 8007196:	e7e4      	b.n	8007162 <_strtol_l.isra.0+0x8a>
 8007198:	f04f 32ff 	mov.w	r2, #4294967295
 800719c:	e7ed      	b.n	800717a <_strtol_l.isra.0+0xa2>
 800719e:	1c53      	adds	r3, r2, #1
 80071a0:	d108      	bne.n	80071b4 <_strtol_l.isra.0+0xdc>
 80071a2:	2322      	movs	r3, #34	@ 0x22
 80071a4:	f8ce 3000 	str.w	r3, [lr]
 80071a8:	4660      	mov	r0, ip
 80071aa:	f1b8 0f00 	cmp.w	r8, #0
 80071ae:	d0a0      	beq.n	80070f2 <_strtol_l.isra.0+0x1a>
 80071b0:	1e69      	subs	r1, r5, #1
 80071b2:	e006      	b.n	80071c2 <_strtol_l.isra.0+0xea>
 80071b4:	b106      	cbz	r6, 80071b8 <_strtol_l.isra.0+0xe0>
 80071b6:	4240      	negs	r0, r0
 80071b8:	f1b8 0f00 	cmp.w	r8, #0
 80071bc:	d099      	beq.n	80070f2 <_strtol_l.isra.0+0x1a>
 80071be:	2a00      	cmp	r2, #0
 80071c0:	d1f6      	bne.n	80071b0 <_strtol_l.isra.0+0xd8>
 80071c2:	f8c8 1000 	str.w	r1, [r8]
 80071c6:	e794      	b.n	80070f2 <_strtol_l.isra.0+0x1a>
 80071c8:	08008819 	.word	0x08008819

080071cc <_strtol_r>:
 80071cc:	f7ff bf84 	b.w	80070d8 <_strtol_l.isra.0>

080071d0 <__ssputs_r>:
 80071d0:	e92d 47f0 	stmdb	sp!, {r4, r5, r6, r7, r8, r9, sl, lr}
 80071d4:	688e      	ldr	r6, [r1, #8]
 80071d6:	461f      	mov	r7, r3
 80071d8:	42be      	cmp	r6, r7
 80071da:	4682      	mov	sl, r0
 80071dc:	460c      	mov	r4, r1
 80071de:	4690      	mov	r8, r2
 80071e0:	4633      	mov	r3, r6
 80071e2:	d853      	bhi.n	800728c <__ssputs_r+0xbc>
 80071e4:	f9b1 000c 	ldrsh.w	r0, [r1, #12]
 80071e8:	f410 6f90 	tst.w	r0, #1152	@ 0x480
 80071ec:	d02b      	beq.n	8007246 <__ssputs_r+0x76>
 80071ee:	6965      	ldr	r5, [r4, #20]
 80071f0:	6823      	ldr	r3, [r4, #0]
 80071f2:	6909      	ldr	r1, [r1, #16]
 80071f4:	eb05 0545 	add.w	r5, r5, r5, lsl #1
 80071f8:	eba3 0901 	sub.w	r9, r3, r1
 80071fc:	eb05 75d5 	add.w	r5, r5, r5, lsr #31
 8007200:	1c7b      	adds	r3, r7, #1
 8007202:	106d      	asrs	r5, r5, #1
 8007204:	444b      	add	r3, r9
 8007206:	42ab      	cmp	r3, r5
 8007208:	462a      	mov	r2, r5
 800720a:	bf84      	itt	hi
 800720c:	461d      	movhi	r5, r3
 800720e:	462a      	movhi	r2, r5
 8007210:	0543      	lsls	r3, r0, #21
 8007212:	d527      	bpl.n	8007264 <__ssputs_r+0x94>
 8007214:	4611      	mov	r1, r2
 8007216:	4650      	mov	r0, sl
 8007218:	f7fe fc5c 	bl	8005ad4 <_malloc_r>
 800721c:	4606      	mov	r6, r0
 800721e:	b358      	cbz	r0, 8007278 <__ssputs_r+0xa8>
 8007220:	6921      	ldr	r1, [r4, #16]
 8007222:	464a      	mov	r2, r9
 8007224:	f7fd fdfb 	bl	8004e1e <memcpy>
 8007228:	89a3      	ldrh	r3, [r4, #12]
 800722a:	f423 6390 	bic.w	r3, r3, #1152	@ 0x480
 800722e:	f043 0380 	orr.w	r3, r3, #128	@ 0x80
 8007232:	81a3      	strh	r3, [r4, #12]
 8007234:	6126      	str	r6, [r4, #16]
 8007236:	6165      	str	r5, [r4, #20]
 8007238:	444e      	add	r6, r9
 800723a:	eba5 0509 	sub.w	r5, r5, r9
 800723e:	6026      	str	r6, [r4, #0]
 8007240:	60a5      	str	r5, [r4, #8]
 8007242:	463e      	mov	r6, r7
 8007244:	463b      	mov	r3, r7
 8007246:	461f      	mov	r7, r3
 8007248:	6820      	ldr	r0, [r4, #0]
 800724a:	463a      	mov	r2, r7
 800724c:	4641      	mov	r1, r8
 800724e:	f000 fb5c 	bl	800790a <memmove>
 8007252:	68a3      	ldr	r3, [r4, #8]
 8007254:	1b9b      	subs	r3, r3, r6
 8007256:	60a3      	str	r3, [r4, #8]
 8007258:	6823      	ldr	r3, [r4, #0]
 800725a:	443b      	add	r3, r7
 800725c:	6023      	str	r3, [r4, #0]
 800725e:	2000      	movs	r0, #0
 8007260:	e8bd 87f0 	ldmia.w	sp!, {r4, r5, r6, r7, r8, r9, sl, pc}
 8007264:	4650      	mov	r0, sl
 8007266:	f000 ff36 	bl	80080d6 <_realloc_r>
 800726a:	4606      	mov	r6, r0
 800726c:	2800      	cmp	r0, #0
 800726e:	d1e1      	bne.n	8007234 <__ssputs_r+0x64>
 8007270:	6921      	ldr	r1, [r4, #16]
 8007272:	4650      	mov	r0, sl
 8007274:	f7fe fbba 	bl	80059ec <_free_r>
 8007278:	230c      	movs	r3, #12
 800727a:	f8ca 3000 	str.w	r3, [sl]
 800727e:	89a3      	ldrh	r3, [r4, #12]
 8007280:	f043 0340 	orr.w	r3, r3, #64	@ 0x40
 8007284:	81a3      	strh	r3, [r4, #12]
 8007286:	f04f 30ff 	mov.w	r0, #4294967295
 800728a:	e7e9      	b.n	8007260 <__ssputs_r+0x90>
 800728c:	463e      	mov	r6, r7
 800728e:	e7db      	b.n	8007248 <__ssputs_r+0x78>

08007290 <_svfiprintf_r>:
 8007290:	e92d 47f0 	stmdb	sp!, {r4, r5, r6, r7, r8, r9, sl, lr}
 8007294:	461f      	mov	r7, r3
 8007296:	898b      	ldrh	r3, [r1, #12]
 8007298:	061b      	lsls	r3, r3, #24
 800729a:	b09c      	sub	sp, #112	@ 0x70
 800729c:	4606      	mov	r6, r0
 800729e:	460d      	mov	r5, r1
 80072a0:	4614      	mov	r4, r2
 80072a2:	d510      	bpl.n	80072c6 <_svfiprintf_r+0x36>
 80072a4:	690b      	ldr	r3, [r1, #16]
 80072a6:	b973      	cbnz	r3, 80072c6 <_svfiprintf_r+0x36>
 80072a8:	2140      	movs	r1, #64	@ 0x40
 80072aa:	f7fe fc13 	bl	8005ad4 <_malloc_r>
 80072ae:	6028      	str	r0, [r5, #0]
 80072b0:	6128      	str	r0, [r5, #16]
 80072b2:	b930      	cbnz	r0, 80072c2 <_svfiprintf_r+0x32>
 80072b4:	230c      	movs	r3, #12
 80072b6:	6033      	str	r3, [r6, #0]
 80072b8:	f04f 30ff 	mov.w	r0, #4294967295
 80072bc:	b01c      	add	sp, #112	@ 0x70
 80072be:	e8bd 87f0 	ldmia.w	sp!, {r4, r5, r6, r7, r8, r9, sl, pc}
 80072c2:	2340      	movs	r3, #64	@ 0x40
 80072c4:	616b      	str	r3, [r5, #20]
 80072c6:	2300      	movs	r3, #0
 80072c8:	9309      	str	r3, [sp, #36]	@ 0x24
 80072ca:	2320      	movs	r3, #32
 80072cc:	f88d 3029 	strb.w	r3, [sp, #41]	@ 0x29
 80072d0:	9703      	str	r7, [sp, #12]
 80072d2:	2330      	movs	r3, #48	@ 0x30
 80072d4:	4f65      	ldr	r7, [pc, #404]	@ (800746c <_svfiprintf_r+0x1dc>)
 80072d6:	f88d 302a 	strb.w	r3, [sp, #42]	@ 0x2a
 80072da:	f04f 0801 	mov.w	r8, #1
 80072de:	4623      	mov	r3, r4
 80072e0:	4699      	mov	r9, r3
 80072e2:	f813 2b01 	ldrb.w	r2, [r3], #1
 80072e6:	b10a      	cbz	r2, 80072ec <_svfiprintf_r+0x5c>
 80072e8:	2a25      	cmp	r2, #37	@ 0x25
 80072ea:	d1f9      	bne.n	80072e0 <_svfiprintf_r+0x50>
 80072ec:	ebb9 0a04 	subs.w	sl, r9, r4
 80072f0:	d00b      	beq.n	800730a <_svfiprintf_r+0x7a>
 80072f2:	4653      	mov	r3, sl
 80072f4:	4622      	mov	r2, r4
 80072f6:	4629      	mov	r1, r5
 80072f8:	4630      	mov	r0, r6
 80072fa:	f7ff ff69 	bl	80071d0 <__ssputs_r>
 80072fe:	3001      	adds	r0, #1
 8007300:	f000 80a4 	beq.w	800744c <_svfiprintf_r+0x1bc>
 8007304:	9a09      	ldr	r2, [sp, #36]	@ 0x24
 8007306:	4452      	add	r2, sl
 8007308:	9209      	str	r2, [sp, #36]	@ 0x24
 800730a:	f899 3000 	ldrb.w	r3, [r9]
 800730e:	2b00      	cmp	r3, #0
 8007310:	f000 809c 	beq.w	800744c <_svfiprintf_r+0x1bc>
 8007314:	2300      	movs	r3, #0
 8007316:	f04f 32ff 	mov.w	r2, #4294967295
 800731a:	e9cd 2305 	strd	r2, r3, [sp, #20]
 800731e:	f109 0901 	add.w	r9, r9, #1
 8007322:	9304      	str	r3, [sp, #16]
 8007324:	9307      	str	r3, [sp, #28]
 8007326:	f88d 3053 	strb.w	r3, [sp, #83]	@ 0x53
 800732a:	931a      	str	r3, [sp, #104]	@ 0x68
 800732c:	464c      	mov	r4, r9
 800732e:	484f      	ldr	r0, [pc, #316]	@ (800746c <_svfiprintf_r+0x1dc>)
 8007330:	f814 1b01 	ldrb.w	r1, [r4], #1
 8007334:	2205      	movs	r2, #5
 8007336:	f7f9 fbc3 	bl	8000ac0 <memchr>
 800733a:	9b04      	ldr	r3, [sp, #16]
 800733c:	b9d0      	cbnz	r0, 8007374 <_svfiprintf_r+0xe4>
 800733e:	06d8      	lsls	r0, r3, #27
 8007340:	bf44      	itt	mi
 8007342:	2220      	movmi	r2, #32
 8007344:	f88d 2053 	strbmi.w	r2, [sp, #83]	@ 0x53
 8007348:	0719      	lsls	r1, r3, #28
 800734a:	bf44      	itt	mi
 800734c:	222b      	movmi	r2, #43	@ 0x2b
 800734e:	f88d 2053 	strbmi.w	r2, [sp, #83]	@ 0x53
 8007352:	f899 2000 	ldrb.w	r2, [r9]
 8007356:	2a2a      	cmp	r2, #42	@ 0x2a
 8007358:	d013      	beq.n	8007382 <_svfiprintf_r+0xf2>
 800735a:	9a07      	ldr	r2, [sp, #28]
 800735c:	464c      	mov	r4, r9
 800735e:	2000      	movs	r0, #0
 8007360:	f04f 0c0a 	mov.w	ip, #10
 8007364:	4621      	mov	r1, r4
 8007366:	f811 3b01 	ldrb.w	r3, [r1], #1
 800736a:	3b30      	subs	r3, #48	@ 0x30
 800736c:	2b09      	cmp	r3, #9
 800736e:	d949      	bls.n	8007404 <_svfiprintf_r+0x174>
 8007370:	b968      	cbnz	r0, 800738e <_svfiprintf_r+0xfe>
 8007372:	e013      	b.n	800739c <_svfiprintf_r+0x10c>
 8007374:	1bc0      	subs	r0, r0, r7
 8007376:	fa08 f000 	lsl.w	r0, r8, r0
 800737a:	4318      	orrs	r0, r3
 800737c:	9004      	str	r0, [sp, #16]
 800737e:	46a1      	mov	r9, r4
 8007380:	e7d4      	b.n	800732c <_svfiprintf_r+0x9c>
 8007382:	9a03      	ldr	r2, [sp, #12]
 8007384:	1d11      	adds	r1, r2, #4
 8007386:	6812      	ldr	r2, [r2, #0]
 8007388:	9103      	str	r1, [sp, #12]
 800738a:	2a00      	cmp	r2, #0
 800738c:	db01      	blt.n	8007392 <_svfiprintf_r+0x102>
 800738e:	9207      	str	r2, [sp, #28]
 8007390:	e004      	b.n	800739c <_svfiprintf_r+0x10c>
 8007392:	4252      	negs	r2, r2
 8007394:	f043 0302 	orr.w	r3, r3, #2
 8007398:	9207      	str	r2, [sp, #28]
 800739a:	9304      	str	r3, [sp, #16]
 800739c:	7823      	ldrb	r3, [r4, #0]
 800739e:	2b2e      	cmp	r3, #46	@ 0x2e
 80073a0:	d10a      	bne.n	80073b8 <_svfiprintf_r+0x128>
 80073a2:	7863      	ldrb	r3, [r4, #1]
 80073a4:	2b2a      	cmp	r3, #42	@ 0x2a
 80073a6:	d132      	bne.n	800740e <_svfiprintf_r+0x17e>
 80073a8:	9b03      	ldr	r3, [sp, #12]
 80073aa:	1d1a      	adds	r2, r3, #4
 80073ac:	681b      	ldr	r3, [r3, #0]
 80073ae:	9203      	str	r2, [sp, #12]
 80073b0:	ea43 73e3 	orr.w	r3, r3, r3, asr #31
 80073b4:	3402      	adds	r4, #2
 80073b6:	9305      	str	r3, [sp, #20]
 80073b8:	f8df 90c0 	ldr.w	r9, [pc, #192]	@ 800747c <_svfiprintf_r+0x1ec>
 80073bc:	7821      	ldrb	r1, [r4, #0]
 80073be:	2203      	movs	r2, #3
 80073c0:	4648      	mov	r0, r9
 80073c2:	f7f9 fb7d 	bl	8000ac0 <memchr>
 80073c6:	b138      	cbz	r0, 80073d8 <_svfiprintf_r+0x148>
 80073c8:	9b04      	ldr	r3, [sp, #16]
 80073ca:	eba0 0009 	sub.w	r0, r0, r9
 80073ce:	2240      	movs	r2, #64	@ 0x40
 80073d0:	4082      	lsls	r2, r0
 80073d2:	4313      	orrs	r3, r2
 80073d4:	3401      	adds	r4, #1
 80073d6:	9304      	str	r3, [sp, #16]
 80073d8:	f814 1b01 	ldrb.w	r1, [r4], #1
 80073dc:	4824      	ldr	r0, [pc, #144]	@ (8007470 <_svfiprintf_r+0x1e0>)
 80073de:	f88d 1028 	strb.w	r1, [sp, #40]	@ 0x28
 80073e2:	2206      	movs	r2, #6
 80073e4:	f7f9 fb6c 	bl	8000ac0 <memchr>
 80073e8:	2800      	cmp	r0, #0
 80073ea:	d035      	beq.n	8007458 <_svfiprintf_r+0x1c8>
 80073ec:	4821      	ldr	r0, [pc, #132]	@ (8007474 <_svfiprintf_r+0x1e4>)
 80073ee:	bb18      	cbnz	r0, 8007438 <_svfiprintf_r+0x1a8>
 80073f0:	9b03      	ldr	r3, [sp, #12]
 80073f2:	3307      	adds	r3, #7
 80073f4:	f023 0307 	bic.w	r3, r3, #7
 80073f8:	3308      	adds	r3, #8
 80073fa:	9303      	str	r3, [sp, #12]
 80073fc:	9b09      	ldr	r3, [sp, #36]	@ 0x24
 80073fe:	4403      	add	r3, r0
 8007400:	9309      	str	r3, [sp, #36]	@ 0x24
 8007402:	e76c      	b.n	80072de <_svfiprintf_r+0x4e>
 8007404:	fb0c 3202 	mla	r2, ip, r2, r3
 8007408:	460c      	mov	r4, r1
 800740a:	2001      	movs	r0, #1
 800740c:	e7aa      	b.n	8007364 <_svfiprintf_r+0xd4>
 800740e:	2300      	movs	r3, #0
 8007410:	3401      	adds	r4, #1
 8007412:	9305      	str	r3, [sp, #20]
 8007414:	4619      	mov	r1, r3
 8007416:	f04f 0c0a 	mov.w	ip, #10
 800741a:	4620      	mov	r0, r4
 800741c:	f810 2b01 	ldrb.w	r2, [r0], #1
 8007420:	3a30      	subs	r2, #48	@ 0x30
 8007422:	2a09      	cmp	r2, #9
 8007424:	d903      	bls.n	800742e <_svfiprintf_r+0x19e>
 8007426:	2b00      	cmp	r3, #0
 8007428:	d0c6      	beq.n	80073b8 <_svfiprintf_r+0x128>
 800742a:	9105      	str	r1, [sp, #20]
 800742c:	e7c4      	b.n	80073b8 <_svfiprintf_r+0x128>
 800742e:	fb0c 2101 	mla	r1, ip, r1, r2
 8007432:	4604      	mov	r4, r0
 8007434:	2301      	movs	r3, #1
 8007436:	e7f0      	b.n	800741a <_svfiprintf_r+0x18a>
 8007438:	ab03      	add	r3, sp, #12
 800743a:	9300      	str	r3, [sp, #0]
 800743c:	462a      	mov	r2, r5
 800743e:	4b0e      	ldr	r3, [pc, #56]	@ (8007478 <_svfiprintf_r+0x1e8>)
 8007440:	a904      	add	r1, sp, #16
 8007442:	4630      	mov	r0, r6
 8007444:	f7fc fc8c 	bl	8003d60 <_printf_float>
 8007448:	1c42      	adds	r2, r0, #1
 800744a:	d1d7      	bne.n	80073fc <_svfiprintf_r+0x16c>
 800744c:	89ab      	ldrh	r3, [r5, #12]
 800744e:	065b      	lsls	r3, r3, #25
 8007450:	f53f af32 	bmi.w	80072b8 <_svfiprintf_r+0x28>
 8007454:	9809      	ldr	r0, [sp, #36]	@ 0x24
 8007456:	e731      	b.n	80072bc <_svfiprintf_r+0x2c>
 8007458:	ab03      	add	r3, sp, #12
 800745a:	9300      	str	r3, [sp, #0]
 800745c:	462a      	mov	r2, r5
 800745e:	4b06      	ldr	r3, [pc, #24]	@ (8007478 <_svfiprintf_r+0x1e8>)
 8007460:	a904      	add	r1, sp, #16
 8007462:	4630      	mov	r0, r6
 8007464:	f7fc ff04 	bl	8004270 <_printf_i>
 8007468:	e7ee      	b.n	8007448 <_svfiprintf_r+0x1b8>
 800746a:	bf00      	nop
 800746c:	08008615 	.word	0x08008615
 8007470:	0800861f 	.word	0x0800861f
 8007474:	08003d61 	.word	0x08003d61
 8007478:	080071d1 	.word	0x080071d1
 800747c:	0800861b 	.word	0x0800861b

08007480 <__sfputc_r>:
 8007480:	6893      	ldr	r3, [r2, #8]
 8007482:	3b01      	subs	r3, #1
 8007484:	2b00      	cmp	r3, #0
 8007486:	b410      	push	{r4}
 8007488:	6093      	str	r3, [r2, #8]
 800748a:	da08      	bge.n	800749e <__sfputc_r+0x1e>
 800748c:	6994      	ldr	r4, [r2, #24]
 800748e:	42a3      	cmp	r3, r4
 8007490:	db01      	blt.n	8007496 <__sfputc_r+0x16>
 8007492:	290a      	cmp	r1, #10
 8007494:	d103      	bne.n	800749e <__sfputc_r+0x1e>
 8007496:	f85d 4b04 	ldr.w	r4, [sp], #4
 800749a:	f7fd bbaf 	b.w	8004bfc <__swbuf_r>
 800749e:	6813      	ldr	r3, [r2, #0]
 80074a0:	1c58      	adds	r0, r3, #1
 80074a2:	6010      	str	r0, [r2, #0]
 80074a4:	7019      	strb	r1, [r3, #0]
 80074a6:	4608      	mov	r0, r1
 80074a8:	f85d 4b04 	ldr.w	r4, [sp], #4
 80074ac:	4770      	bx	lr

080074ae <__sfputs_r>:
 80074ae:	b5f8      	push	{r3, r4, r5, r6, r7, lr}
 80074b0:	4606      	mov	r6, r0
 80074b2:	460f      	mov	r7, r1
 80074b4:	4614      	mov	r4, r2
 80074b6:	18d5      	adds	r5, r2, r3
 80074b8:	42ac      	cmp	r4, r5
 80074ba:	d101      	bne.n	80074c0 <__sfputs_r+0x12>
 80074bc:	2000      	movs	r0, #0
 80074be:	e007      	b.n	80074d0 <__sfputs_r+0x22>
 80074c0:	f814 1b01 	ldrb.w	r1, [r4], #1
 80074c4:	463a      	mov	r2, r7
 80074c6:	4630      	mov	r0, r6
 80074c8:	f7ff ffda 	bl	8007480 <__sfputc_r>
 80074cc:	1c43      	adds	r3, r0, #1
 80074ce:	d1f3      	bne.n	80074b8 <__sfputs_r+0xa>
 80074d0:	bdf8      	pop	{r3, r4, r5, r6, r7, pc}
	...

080074d4 <_vfiprintf_r>:
 80074d4:	e92d 47f0 	stmdb	sp!, {r4, r5, r6, r7, r8, r9, sl, lr}
 80074d8:	460d      	mov	r5, r1
 80074da:	b09c      	sub	sp, #112	@ 0x70
 80074dc:	4614      	mov	r4, r2
 80074de:	461f      	mov	r7, r3
 80074e0:	4606      	mov	r6, r0
 80074e2:	b118      	cbz	r0, 80074ec <_vfiprintf_r+0x18>
 80074e4:	6a03      	ldr	r3, [r0, #32]
 80074e6:	b90b      	cbnz	r3, 80074ec <_vfiprintf_r+0x18>
 80074e8:	f7fd fa7c 	bl	80049e4 <__sinit>
 80074ec:	6e6b      	ldr	r3, [r5, #100]	@ 0x64
 80074ee:	07d9      	lsls	r1, r3, #31
 80074f0:	d405      	bmi.n	80074fe <_vfiprintf_r+0x2a>
 80074f2:	89ab      	ldrh	r3, [r5, #12]
 80074f4:	059a      	lsls	r2, r3, #22
 80074f6:	d402      	bmi.n	80074fe <_vfiprintf_r+0x2a>
 80074f8:	6da8      	ldr	r0, [r5, #88]	@ 0x58
 80074fa:	f7fd fc8e 	bl	8004e1a <__retarget_lock_acquire_recursive>
 80074fe:	89ab      	ldrh	r3, [r5, #12]
 8007500:	071b      	lsls	r3, r3, #28
 8007502:	d501      	bpl.n	8007508 <_vfiprintf_r+0x34>
 8007504:	692b      	ldr	r3, [r5, #16]
 8007506:	b99b      	cbnz	r3, 8007530 <_vfiprintf_r+0x5c>
 8007508:	4629      	mov	r1, r5
 800750a:	4630      	mov	r0, r6
 800750c:	f7fd fbb4 	bl	8004c78 <__swsetup_r>
 8007510:	b170      	cbz	r0, 8007530 <_vfiprintf_r+0x5c>
 8007512:	6e6b      	ldr	r3, [r5, #100]	@ 0x64
 8007514:	07dc      	lsls	r4, r3, #31
 8007516:	d504      	bpl.n	8007522 <_vfiprintf_r+0x4e>
 8007518:	f04f 30ff 	mov.w	r0, #4294967295
 800751c:	b01c      	add	sp, #112	@ 0x70
 800751e:	e8bd 87f0 	ldmia.w	sp!, {r4, r5, r6, r7, r8, r9, sl, pc}
 8007522:	89ab      	ldrh	r3, [r5, #12]
 8007524:	0598      	lsls	r0, r3, #22
 8007526:	d4f7      	bmi.n	8007518 <_vfiprintf_r+0x44>
 8007528:	6da8      	ldr	r0, [r5, #88]	@ 0x58
 800752a:	f7fd fc77 	bl	8004e1c <__retarget_lock_release_recursive>
 800752e:	e7f3      	b.n	8007518 <_vfiprintf_r+0x44>
 8007530:	2300      	movs	r3, #0
 8007532:	9309      	str	r3, [sp, #36]	@ 0x24
 8007534:	2320      	movs	r3, #32
 8007536:	f88d 3029 	strb.w	r3, [sp, #41]	@ 0x29
 800753a:	9703      	str	r7, [sp, #12]
 800753c:	2330      	movs	r3, #48	@ 0x30
 800753e:	4f6a      	ldr	r7, [pc, #424]	@ (80076e8 <_vfiprintf_r+0x214>)
 8007540:	f88d 302a 	strb.w	r3, [sp, #42]	@ 0x2a
 8007544:	f04f 0801 	mov.w	r8, #1
 8007548:	4623      	mov	r3, r4
 800754a:	4699      	mov	r9, r3
 800754c:	f813 2b01 	ldrb.w	r2, [r3], #1
 8007550:	b10a      	cbz	r2, 8007556 <_vfiprintf_r+0x82>
 8007552:	2a25      	cmp	r2, #37	@ 0x25
 8007554:	d1f9      	bne.n	800754a <_vfiprintf_r+0x76>
 8007556:	ebb9 0a04 	subs.w	sl, r9, r4
 800755a:	d00b      	beq.n	8007574 <_vfiprintf_r+0xa0>
 800755c:	4653      	mov	r3, sl
 800755e:	4622      	mov	r2, r4
 8007560:	4629      	mov	r1, r5
 8007562:	4630      	mov	r0, r6
 8007564:	f7ff ffa3 	bl	80074ae <__sfputs_r>
 8007568:	3001      	adds	r0, #1
 800756a:	f000 80a4 	beq.w	80076b6 <_vfiprintf_r+0x1e2>
 800756e:	9a09      	ldr	r2, [sp, #36]	@ 0x24
 8007570:	4452      	add	r2, sl
 8007572:	9209      	str	r2, [sp, #36]	@ 0x24
 8007574:	f899 3000 	ldrb.w	r3, [r9]
 8007578:	2b00      	cmp	r3, #0
 800757a:	f000 809c 	beq.w	80076b6 <_vfiprintf_r+0x1e2>
 800757e:	2300      	movs	r3, #0
 8007580:	f04f 32ff 	mov.w	r2, #4294967295
 8007584:	e9cd 2305 	strd	r2, r3, [sp, #20]
 8007588:	f109 0901 	add.w	r9, r9, #1
 800758c:	9304      	str	r3, [sp, #16]
 800758e:	9307      	str	r3, [sp, #28]
 8007590:	f88d 3053 	strb.w	r3, [sp, #83]	@ 0x53
 8007594:	931a      	str	r3, [sp, #104]	@ 0x68
 8007596:	464c      	mov	r4, r9
 8007598:	4853      	ldr	r0, [pc, #332]	@ (80076e8 <_vfiprintf_r+0x214>)
 800759a:	f814 1b01 	ldrb.w	r1, [r4], #1
 800759e:	2205      	movs	r2, #5
 80075a0:	f7f9 fa8e 	bl	8000ac0 <memchr>
 80075a4:	9b04      	ldr	r3, [sp, #16]
 80075a6:	b9d0      	cbnz	r0, 80075de <_vfiprintf_r+0x10a>
 80075a8:	06d9      	lsls	r1, r3, #27
 80075aa:	bf44      	itt	mi
 80075ac:	2220      	movmi	r2, #32
 80075ae:	f88d 2053 	strbmi.w	r2, [sp, #83]	@ 0x53
 80075b2:	071a      	lsls	r2, r3, #28
 80075b4:	bf44      	itt	mi
 80075b6:	222b      	movmi	r2, #43	@ 0x2b
 80075b8:	f88d 2053 	strbmi.w	r2, [sp, #83]	@ 0x53
 80075bc:	f899 2000 	ldrb.w	r2, [r9]
 80075c0:	2a2a      	cmp	r2, #42	@ 0x2a
 80075c2:	d013      	beq.n	80075ec <_vfiprintf_r+0x118>
 80075c4:	9a07      	ldr	r2, [sp, #28]
 80075c6:	464c      	mov	r4, r9
 80075c8:	2000      	movs	r0, #0
 80075ca:	f04f 0c0a 	mov.w	ip, #10
 80075ce:	4621      	mov	r1, r4
 80075d0:	f811 3b01 	ldrb.w	r3, [r1], #1
 80075d4:	3b30      	subs	r3, #48	@ 0x30
 80075d6:	2b09      	cmp	r3, #9
 80075d8:	d949      	bls.n	800766e <_vfiprintf_r+0x19a>
 80075da:	b968      	cbnz	r0, 80075f8 <_vfiprintf_r+0x124>
 80075dc:	e013      	b.n	8007606 <_vfiprintf_r+0x132>
 80075de:	1bc0      	subs	r0, r0, r7
 80075e0:	fa08 f000 	lsl.w	r0, r8, r0
 80075e4:	4318      	orrs	r0, r3
 80075e6:	9004      	str	r0, [sp, #16]
 80075e8:	46a1      	mov	r9, r4
 80075ea:	e7d4      	b.n	8007596 <_vfiprintf_r+0xc2>
 80075ec:	9a03      	ldr	r2, [sp, #12]
 80075ee:	1d11      	adds	r1, r2, #4
 80075f0:	6812      	ldr	r2, [r2, #0]
 80075f2:	9103      	str	r1, [sp, #12]
 80075f4:	2a00      	cmp	r2, #0
 80075f6:	db01      	blt.n	80075fc <_vfiprintf_r+0x128>
 80075f8:	9207      	str	r2, [sp, #28]
 80075fa:	e004      	b.n	8007606 <_vfiprintf_r+0x132>
 80075fc:	4252      	negs	r2, r2
 80075fe:	f043 0302 	orr.w	r3, r3, #2
 8007602:	9207      	str	r2, [sp, #28]
 8007604:	9304      	str	r3, [sp, #16]
 8007606:	7823      	ldrb	r3, [r4, #0]
 8007608:	2b2e      	cmp	r3, #46	@ 0x2e
 800760a:	d10a      	bne.n	8007622 <_vfiprintf_r+0x14e>
 800760c:	7863      	ldrb	r3, [r4, #1]
 800760e:	2b2a      	cmp	r3, #42	@ 0x2a
 8007610:	d132      	bne.n	8007678 <_vfiprintf_r+0x1a4>
 8007612:	9b03      	ldr	r3, [sp, #12]
 8007614:	1d1a      	adds	r2, r3, #4
 8007616:	681b      	ldr	r3, [r3, #0]
 8007618:	9203      	str	r2, [sp, #12]
 800761a:	ea43 73e3 	orr.w	r3, r3, r3, asr #31
 800761e:	3402      	adds	r4, #2
 8007620:	9305      	str	r3, [sp, #20]
 8007622:	f8df 90d4 	ldr.w	r9, [pc, #212]	@ 80076f8 <_vfiprintf_r+0x224>
 8007626:	7821      	ldrb	r1, [r4, #0]
 8007628:	2203      	movs	r2, #3
 800762a:	4648      	mov	r0, r9
 800762c:	f7f9 fa48 	bl	8000ac0 <memchr>
 8007630:	b138      	cbz	r0, 8007642 <_vfiprintf_r+0x16e>
 8007632:	9b04      	ldr	r3, [sp, #16]
 8007634:	eba0 0009 	sub.w	r0, r0, r9
 8007638:	2240      	movs	r2, #64	@ 0x40
 800763a:	4082      	lsls	r2, r0
 800763c:	4313      	orrs	r3, r2
 800763e:	3401      	adds	r4, #1
 8007640:	9304      	str	r3, [sp, #16]
 8007642:	f814 1b01 	ldrb.w	r1, [r4], #1
 8007646:	4829      	ldr	r0, [pc, #164]	@ (80076ec <_vfiprintf_r+0x218>)
 8007648:	f88d 1028 	strb.w	r1, [sp, #40]	@ 0x28
 800764c:	2206      	movs	r2, #6
 800764e:	f7f9 fa37 	bl	8000ac0 <memchr>
 8007652:	2800      	cmp	r0, #0
 8007654:	d03e      	beq.n	80076d4 <_vfiprintf_r+0x200>
 8007656:	4826      	ldr	r0, [pc, #152]	@ (80076f0 <_vfiprintf_r+0x21c>)
 8007658:	bb18      	cbnz	r0, 80076a2 <_vfiprintf_r+0x1ce>
 800765a:	9b03      	ldr	r3, [sp, #12]
 800765c:	3307      	adds	r3, #7
 800765e:	f023 0307 	bic.w	r3, r3, #7
 8007662:	3308      	adds	r3, #8
 8007664:	9303      	str	r3, [sp, #12]
 8007666:	9b09      	ldr	r3, [sp, #36]	@ 0x24
 8007668:	4403      	add	r3, r0
 800766a:	9309      	str	r3, [sp, #36]	@ 0x24
 800766c:	e76c      	b.n	8007548 <_vfiprintf_r+0x74>
 800766e:	fb0c 3202 	mla	r2, ip, r2, r3
 8007672:	460c      	mov	r4, r1
 8007674:	2001      	movs	r0, #1
 8007676:	e7aa      	b.n	80075ce <_vfiprintf_r+0xfa>
 8007678:	2300      	movs	r3, #0
 800767a:	3401      	adds	r4, #1
 800767c:	9305      	str	r3, [sp, #20]
 800767e:	4619      	mov	r1, r3
 8007680:	f04f 0c0a 	mov.w	ip, #10
 8007684:	4620      	mov	r0, r4
 8007686:	f810 2b01 	ldrb.w	r2, [r0], #1
 800768a:	3a30      	subs	r2, #48	@ 0x30
 800768c:	2a09      	cmp	r2, #9
 800768e:	d903      	bls.n	8007698 <_vfiprintf_r+0x1c4>
 8007690:	2b00      	cmp	r3, #0
 8007692:	d0c6      	beq.n	8007622 <_vfiprintf_r+0x14e>
 8007694:	9105      	str	r1, [sp, #20]
 8007696:	e7c4      	b.n	8007622 <_vfiprintf_r+0x14e>
 8007698:	fb0c 2101 	mla	r1, ip, r1, r2
 800769c:	4604      	mov	r4, r0
 800769e:	2301      	movs	r3, #1
 80076a0:	e7f0      	b.n	8007684 <_vfiprintf_r+0x1b0>
 80076a2:	ab03      	add	r3, sp, #12
 80076a4:	9300      	str	r3, [sp, #0]
 80076a6:	462a      	mov	r2, r5
 80076a8:	4b12      	ldr	r3, [pc, #72]	@ (80076f4 <_vfiprintf_r+0x220>)
 80076aa:	a904      	add	r1, sp, #16
 80076ac:	4630      	mov	r0, r6
 80076ae:	f7fc fb57 	bl	8003d60 <_printf_float>
 80076b2:	1c43      	adds	r3, r0, #1
 80076b4:	d1d7      	bne.n	8007666 <_vfiprintf_r+0x192>
 80076b6:	6e6b      	ldr	r3, [r5, #100]	@ 0x64
 80076b8:	07d9      	lsls	r1, r3, #31
 80076ba:	d405      	bmi.n	80076c8 <_vfiprintf_r+0x1f4>
 80076bc:	89ab      	ldrh	r3, [r5, #12]
 80076be:	059a      	lsls	r2, r3, #22
 80076c0:	d402      	bmi.n	80076c8 <_vfiprintf_r+0x1f4>
 80076c2:	6da8      	ldr	r0, [r5, #88]	@ 0x58
 80076c4:	f7fd fbaa 	bl	8004e1c <__retarget_lock_release_recursive>
 80076c8:	89ab      	ldrh	r3, [r5, #12]
 80076ca:	065b      	lsls	r3, r3, #25
 80076cc:	f53f af24 	bmi.w	8007518 <_vfiprintf_r+0x44>
 80076d0:	9809      	ldr	r0, [sp, #36]	@ 0x24
 80076d2:	e723      	b.n	800751c <_vfiprintf_r+0x48>
 80076d4:	ab03      	add	r3, sp, #12
 80076d6:	9300      	str	r3, [sp, #0]
 80076d8:	462a      	mov	r2, r5
 80076da:	4b06      	ldr	r3, [pc, #24]	@ (80076f4 <_vfiprintf_r+0x220>)
 80076dc:	a904      	add	r1, sp, #16
 80076de:	4630      	mov	r0, r6
 80076e0:	f7fc fdc6 	bl	8004270 <_printf_i>
 80076e4:	e7e5      	b.n	80076b2 <_vfiprintf_r+0x1de>
 80076e6:	bf00      	nop
 80076e8:	08008615 	.word	0x08008615
 80076ec:	0800861f 	.word	0x0800861f
 80076f0:	08003d61 	.word	0x08003d61
 80076f4:	080074af 	.word	0x080074af
 80076f8:	0800861b 	.word	0x0800861b

080076fc <__sflush_r>:
 80076fc:	f9b1 200c 	ldrsh.w	r2, [r1, #12]
 8007700:	e92d 41f0 	stmdb	sp!, {r4, r5, r6, r7, r8, lr}
 8007704:	0716      	lsls	r6, r2, #28
 8007706:	4605      	mov	r5, r0
 8007708:	460c      	mov	r4, r1
 800770a:	d451      	bmi.n	80077b0 <__sflush_r+0xb4>
 800770c:	684b      	ldr	r3, [r1, #4]
 800770e:	2b00      	cmp	r3, #0
 8007710:	dc02      	bgt.n	8007718 <__sflush_r+0x1c>
 8007712:	6c0b      	ldr	r3, [r1, #64]	@ 0x40
 8007714:	2b00      	cmp	r3, #0
 8007716:	dd49      	ble.n	80077ac <__sflush_r+0xb0>
 8007718:	6ae6      	ldr	r6, [r4, #44]	@ 0x2c
 800771a:	2e00      	cmp	r6, #0
 800771c:	d046      	beq.n	80077ac <__sflush_r+0xb0>
 800771e:	2300      	movs	r3, #0
 8007720:	f412 5280 	ands.w	r2, r2, #4096	@ 0x1000
 8007724:	682f      	ldr	r7, [r5, #0]
 8007726:	602b      	str	r3, [r5, #0]
 8007728:	d031      	beq.n	800778e <__sflush_r+0x92>
 800772a:	6d62      	ldr	r2, [r4, #84]	@ 0x54
 800772c:	89a3      	ldrh	r3, [r4, #12]
 800772e:	0759      	lsls	r1, r3, #29
 8007730:	d505      	bpl.n	800773e <__sflush_r+0x42>
 8007732:	6863      	ldr	r3, [r4, #4]
 8007734:	1ad2      	subs	r2, r2, r3
 8007736:	6b63      	ldr	r3, [r4, #52]	@ 0x34
 8007738:	b10b      	cbz	r3, 800773e <__sflush_r+0x42>
 800773a:	6c23      	ldr	r3, [r4, #64]	@ 0x40
 800773c:	1ad2      	subs	r2, r2, r3
 800773e:	2300      	movs	r3, #0
 8007740:	6ae6      	ldr	r6, [r4, #44]	@ 0x2c
 8007742:	6a21      	ldr	r1, [r4, #32]
 8007744:	4628      	mov	r0, r5
 8007746:	47b0      	blx	r6
 8007748:	1c42      	adds	r2, r0, #1
 800774a:	f9b4 300c 	ldrsh.w	r3, [r4, #12]
 800774e:	d106      	bne.n	800775e <__sflush_r+0x62>
 8007750:	6829      	ldr	r1, [r5, #0]
 8007752:	291d      	cmp	r1, #29
 8007754:	d846      	bhi.n	80077e4 <__sflush_r+0xe8>
 8007756:	4a29      	ldr	r2, [pc, #164]	@ (80077fc <__sflush_r+0x100>)
 8007758:	40ca      	lsrs	r2, r1
 800775a:	07d6      	lsls	r6, r2, #31
 800775c:	d542      	bpl.n	80077e4 <__sflush_r+0xe8>
 800775e:	2200      	movs	r2, #0
 8007760:	6062      	str	r2, [r4, #4]
 8007762:	04d9      	lsls	r1, r3, #19
 8007764:	6922      	ldr	r2, [r4, #16]
 8007766:	6022      	str	r2, [r4, #0]
 8007768:	d504      	bpl.n	8007774 <__sflush_r+0x78>
 800776a:	1c42      	adds	r2, r0, #1
 800776c:	d101      	bne.n	8007772 <__sflush_r+0x76>
 800776e:	682b      	ldr	r3, [r5, #0]
 8007770:	b903      	cbnz	r3, 8007774 <__sflush_r+0x78>
 8007772:	6560      	str	r0, [r4, #84]	@ 0x54
 8007774:	6b61      	ldr	r1, [r4, #52]	@ 0x34
 8007776:	602f      	str	r7, [r5, #0]
 8007778:	b1c1      	cbz	r1, 80077ac <__sflush_r+0xb0>
 800777a:	f104 0344 	add.w	r3, r4, #68	@ 0x44
 800777e:	4299      	cmp	r1, r3
 8007780:	d002      	beq.n	8007788 <__sflush_r+0x8c>
 8007782:	4628      	mov	r0, r5
 8007784:	f7fe f932 	bl	80059ec <_free_r>
 8007788:	2300      	movs	r3, #0
 800778a:	6363      	str	r3, [r4, #52]	@ 0x34
 800778c:	e00e      	b.n	80077ac <__sflush_r+0xb0>
 800778e:	6a21      	ldr	r1, [r4, #32]
 8007790:	2301      	movs	r3, #1
 8007792:	4628      	mov	r0, r5
 8007794:	47b0      	blx	r6
 8007796:	4602      	mov	r2, r0
 8007798:	1c50      	adds	r0, r2, #1
 800779a:	d1c7      	bne.n	800772c <__sflush_r+0x30>
 800779c:	682b      	ldr	r3, [r5, #0]
 800779e:	2b00      	cmp	r3, #0
 80077a0:	d0c4      	beq.n	800772c <__sflush_r+0x30>
 80077a2:	2b1d      	cmp	r3, #29
 80077a4:	d001      	beq.n	80077aa <__sflush_r+0xae>
 80077a6:	2b16      	cmp	r3, #22
 80077a8:	d11a      	bne.n	80077e0 <__sflush_r+0xe4>
 80077aa:	602f      	str	r7, [r5, #0]
 80077ac:	2000      	movs	r0, #0
 80077ae:	e01e      	b.n	80077ee <__sflush_r+0xf2>
 80077b0:	690f      	ldr	r7, [r1, #16]
 80077b2:	2f00      	cmp	r7, #0
 80077b4:	d0fa      	beq.n	80077ac <__sflush_r+0xb0>
 80077b6:	0793      	lsls	r3, r2, #30
 80077b8:	680e      	ldr	r6, [r1, #0]
 80077ba:	bf08      	it	eq
 80077bc:	694b      	ldreq	r3, [r1, #20]
 80077be:	600f      	str	r7, [r1, #0]
 80077c0:	bf18      	it	ne
 80077c2:	2300      	movne	r3, #0
 80077c4:	eba6 0807 	sub.w	r8, r6, r7
 80077c8:	608b      	str	r3, [r1, #8]
 80077ca:	f1b8 0f00 	cmp.w	r8, #0
 80077ce:	dded      	ble.n	80077ac <__sflush_r+0xb0>
 80077d0:	6a21      	ldr	r1, [r4, #32]
 80077d2:	6aa6      	ldr	r6, [r4, #40]	@ 0x28
 80077d4:	4643      	mov	r3, r8
 80077d6:	463a      	mov	r2, r7
 80077d8:	4628      	mov	r0, r5
 80077da:	47b0      	blx	r6
 80077dc:	2800      	cmp	r0, #0
 80077de:	dc08      	bgt.n	80077f2 <__sflush_r+0xf6>
 80077e0:	f9b4 300c 	ldrsh.w	r3, [r4, #12]
 80077e4:	f043 0340 	orr.w	r3, r3, #64	@ 0x40
 80077e8:	81a3      	strh	r3, [r4, #12]
 80077ea:	f04f 30ff 	mov.w	r0, #4294967295
 80077ee:	e8bd 81f0 	ldmia.w	sp!, {r4, r5, r6, r7, r8, pc}
 80077f2:	4407      	add	r7, r0
 80077f4:	eba8 0800 	sub.w	r8, r8, r0
 80077f8:	e7e7      	b.n	80077ca <__sflush_r+0xce>
 80077fa:	bf00      	nop
 80077fc:	20400001 	.word	0x20400001

08007800 <_fflush_r>:
 8007800:	b538      	push	{r3, r4, r5, lr}
 8007802:	690b      	ldr	r3, [r1, #16]
 8007804:	4605      	mov	r5, r0
 8007806:	460c      	mov	r4, r1
 8007808:	b913      	cbnz	r3, 8007810 <_fflush_r+0x10>
 800780a:	2500      	movs	r5, #0
 800780c:	4628      	mov	r0, r5
 800780e:	bd38      	pop	{r3, r4, r5, pc}
 8007810:	b118      	cbz	r0, 800781a <_fflush_r+0x1a>
 8007812:	6a03      	ldr	r3, [r0, #32]
 8007814:	b90b      	cbnz	r3, 800781a <_fflush_r+0x1a>
 8007816:	f7fd f8e5 	bl	80049e4 <__sinit>
 800781a:	f9b4 300c 	ldrsh.w	r3, [r4, #12]
 800781e:	2b00      	cmp	r3, #0
 8007820:	d0f3      	beq.n	800780a <_fflush_r+0xa>
 8007822:	6e62      	ldr	r2, [r4, #100]	@ 0x64
 8007824:	07d0      	lsls	r0, r2, #31
 8007826:	d404      	bmi.n	8007832 <_fflush_r+0x32>
 8007828:	0599      	lsls	r1, r3, #22
 800782a:	d402      	bmi.n	8007832 <_fflush_r+0x32>
 800782c:	6da0      	ldr	r0, [r4, #88]	@ 0x58
 800782e:	f7fd faf4 	bl	8004e1a <__retarget_lock_acquire_recursive>
 8007832:	4628      	mov	r0, r5
 8007834:	4621      	mov	r1, r4
 8007836:	f7ff ff61 	bl	80076fc <__sflush_r>
 800783a:	6e63      	ldr	r3, [r4, #100]	@ 0x64
 800783c:	07da      	lsls	r2, r3, #31
 800783e:	4605      	mov	r5, r0
 8007840:	d4e4      	bmi.n	800780c <_fflush_r+0xc>
 8007842:	89a3      	ldrh	r3, [r4, #12]
 8007844:	059b      	lsls	r3, r3, #22
 8007846:	d4e1      	bmi.n	800780c <_fflush_r+0xc>
 8007848:	6da0      	ldr	r0, [r4, #88]	@ 0x58
 800784a:	f7fd fae7 	bl	8004e1c <__retarget_lock_release_recursive>
 800784e:	e7dd      	b.n	800780c <_fflush_r+0xc>

08007850 <__swhatbuf_r>:
 8007850:	b570      	push	{r4, r5, r6, lr}
 8007852:	460c      	mov	r4, r1
 8007854:	f9b1 100e 	ldrsh.w	r1, [r1, #14]
 8007858:	2900      	cmp	r1, #0
 800785a:	b096      	sub	sp, #88	@ 0x58
 800785c:	4615      	mov	r5, r2
 800785e:	461e      	mov	r6, r3
 8007860:	da0a      	bge.n	8007878 <__swhatbuf_r+0x28>
 8007862:	89a1      	ldrh	r1, [r4, #12]
 8007864:	f011 0180 	ands.w	r1, r1, #128	@ 0x80
 8007868:	d113      	bne.n	8007892 <__swhatbuf_r+0x42>
 800786a:	f44f 6280 	mov.w	r2, #1024	@ 0x400
 800786e:	2000      	movs	r0, #0
 8007870:	6031      	str	r1, [r6, #0]
 8007872:	602a      	str	r2, [r5, #0]
 8007874:	b016      	add	sp, #88	@ 0x58
 8007876:	bd70      	pop	{r4, r5, r6, pc}
 8007878:	466a      	mov	r2, sp
 800787a:	f000 f871 	bl	8007960 <_fstat_r>
 800787e:	2800      	cmp	r0, #0
 8007880:	dbef      	blt.n	8007862 <__swhatbuf_r+0x12>
 8007882:	9901      	ldr	r1, [sp, #4]
 8007884:	f401 4170 	and.w	r1, r1, #61440	@ 0xf000
 8007888:	f5a1 5300 	sub.w	r3, r1, #8192	@ 0x2000
 800788c:	4259      	negs	r1, r3
 800788e:	4159      	adcs	r1, r3
 8007890:	e7eb      	b.n	800786a <__swhatbuf_r+0x1a>
 8007892:	2100      	movs	r1, #0
 8007894:	2240      	movs	r2, #64	@ 0x40
 8007896:	e7ea      	b.n	800786e <__swhatbuf_r+0x1e>

08007898 <__smakebuf_r>:
 8007898:	898b      	ldrh	r3, [r1, #12]
 800789a:	b573      	push	{r0, r1, r4, r5, r6, lr}
 800789c:	079e      	lsls	r6, r3, #30
 800789e:	4605      	mov	r5, r0
 80078a0:	460c      	mov	r4, r1
 80078a2:	d507      	bpl.n	80078b4 <__smakebuf_r+0x1c>
 80078a4:	f104 0347 	add.w	r3, r4, #71	@ 0x47
 80078a8:	6023      	str	r3, [r4, #0]
 80078aa:	6123      	str	r3, [r4, #16]
 80078ac:	2301      	movs	r3, #1
 80078ae:	6163      	str	r3, [r4, #20]
 80078b0:	b002      	add	sp, #8
 80078b2:	bd70      	pop	{r4, r5, r6, pc}
 80078b4:	ab01      	add	r3, sp, #4
 80078b6:	466a      	mov	r2, sp
 80078b8:	f7ff ffca 	bl	8007850 <__swhatbuf_r>
 80078bc:	9e00      	ldr	r6, [sp, #0]
 80078be:	4628      	mov	r0, r5
 80078c0:	4631      	mov	r1, r6
 80078c2:	f7fe f907 	bl	8005ad4 <_malloc_r>
 80078c6:	f9b4 300c 	ldrsh.w	r3, [r4, #12]
 80078ca:	b938      	cbnz	r0, 80078dc <__smakebuf_r+0x44>
 80078cc:	059a      	lsls	r2, r3, #22
 80078ce:	d4ef      	bmi.n	80078b0 <__smakebuf_r+0x18>
 80078d0:	f023 0303 	bic.w	r3, r3, #3
 80078d4:	f043 0302 	orr.w	r3, r3, #2
 80078d8:	81a3      	strh	r3, [r4, #12]
 80078da:	e7e3      	b.n	80078a4 <__smakebuf_r+0xc>
 80078dc:	f043 0380 	orr.w	r3, r3, #128	@ 0x80
 80078e0:	81a3      	strh	r3, [r4, #12]
 80078e2:	9b01      	ldr	r3, [sp, #4]
 80078e4:	6020      	str	r0, [r4, #0]
 80078e6:	e9c4 0604 	strd	r0, r6, [r4, #16]
 80078ea:	2b00      	cmp	r3, #0
 80078ec:	d0e0      	beq.n	80078b0 <__smakebuf_r+0x18>
 80078ee:	f9b4 100e 	ldrsh.w	r1, [r4, #14]
 80078f2:	4628      	mov	r0, r5
 80078f4:	f000 f846 	bl	8007984 <_isatty_r>
 80078f8:	2800      	cmp	r0, #0
 80078fa:	d0d9      	beq.n	80078b0 <__smakebuf_r+0x18>
 80078fc:	89a3      	ldrh	r3, [r4, #12]
 80078fe:	f023 0303 	bic.w	r3, r3, #3
 8007902:	f043 0301 	orr.w	r3, r3, #1
 8007906:	81a3      	strh	r3, [r4, #12]
 8007908:	e7d2      	b.n	80078b0 <__smakebuf_r+0x18>

0800790a <memmove>:
 800790a:	4288      	cmp	r0, r1
 800790c:	b510      	push	{r4, lr}
 800790e:	eb01 0402 	add.w	r4, r1, r2
 8007912:	d902      	bls.n	800791a <memmove+0x10>
 8007914:	4284      	cmp	r4, r0
 8007916:	4623      	mov	r3, r4
 8007918:	d807      	bhi.n	800792a <memmove+0x20>
 800791a:	1e43      	subs	r3, r0, #1
 800791c:	42a1      	cmp	r1, r4
 800791e:	d007      	beq.n	8007930 <memmove+0x26>
 8007920:	f811 2b01 	ldrb.w	r2, [r1], #1
 8007924:	f803 2f01 	strb.w	r2, [r3, #1]!
 8007928:	e7f8      	b.n	800791c <memmove+0x12>
 800792a:	4402      	add	r2, r0
 800792c:	4282      	cmp	r2, r0
 800792e:	d100      	bne.n	8007932 <memmove+0x28>
 8007930:	bd10      	pop	{r4, pc}
 8007932:	f813 1d01 	ldrb.w	r1, [r3, #-1]!
 8007936:	f802 1d01 	strb.w	r1, [r2, #-1]!
 800793a:	e7f7      	b.n	800792c <memmove+0x22>

0800793c <strncmp>:
 800793c:	b510      	push	{r4, lr}
 800793e:	b16a      	cbz	r2, 800795c <strncmp+0x20>
 8007940:	3901      	subs	r1, #1
 8007942:	1884      	adds	r4, r0, r2
 8007944:	f810 2b01 	ldrb.w	r2, [r0], #1
 8007948:	f811 3f01 	ldrb.w	r3, [r1, #1]!
 800794c:	429a      	cmp	r2, r3
 800794e:	d103      	bne.n	8007958 <strncmp+0x1c>
 8007950:	42a0      	cmp	r0, r4
 8007952:	d001      	beq.n	8007958 <strncmp+0x1c>
 8007954:	2a00      	cmp	r2, #0
 8007956:	d1f5      	bne.n	8007944 <strncmp+0x8>
 8007958:	1ad0      	subs	r0, r2, r3
 800795a:	bd10      	pop	{r4, pc}
 800795c:	4610      	mov	r0, r2
 800795e:	e7fc      	b.n	800795a <strncmp+0x1e>

08007960 <_fstat_r>:
 8007960:	b538      	push	{r3, r4, r5, lr}
 8007962:	4d07      	ldr	r5, [pc, #28]	@ (8007980 <_fstat_r+0x20>)
 8007964:	2300      	movs	r3, #0
 8007966:	4604      	mov	r4, r0
 8007968:	4608      	mov	r0, r1
 800796a:	4611      	mov	r1, r2
 800796c:	602b      	str	r3, [r5, #0]
 800796e:	f7fc f833 	bl	80039d8 <_fstat>
 8007972:	1c43      	adds	r3, r0, #1
 8007974:	d102      	bne.n	800797c <_fstat_r+0x1c>
 8007976:	682b      	ldr	r3, [r5, #0]
 8007978:	b103      	cbz	r3, 800797c <_fstat_r+0x1c>
 800797a:	6023      	str	r3, [r4, #0]
 800797c:	bd38      	pop	{r3, r4, r5, pc}
 800797e:	bf00      	nop
 8007980:	20000338 	.word	0x20000338

08007984 <_isatty_r>:
 8007984:	b538      	push	{r3, r4, r5, lr}
 8007986:	4d06      	ldr	r5, [pc, #24]	@ (80079a0 <_isatty_r+0x1c>)
 8007988:	2300      	movs	r3, #0
 800798a:	4604      	mov	r4, r0
 800798c:	4608      	mov	r0, r1
 800798e:	602b      	str	r3, [r5, #0]
 8007990:	f7fc f828 	bl	80039e4 <_isatty>
 8007994:	1c43      	adds	r3, r0, #1
 8007996:	d102      	bne.n	800799e <_isatty_r+0x1a>
 8007998:	682b      	ldr	r3, [r5, #0]
 800799a:	b103      	cbz	r3, 800799e <_isatty_r+0x1a>
 800799c:	6023      	str	r3, [r4, #0]
 800799e:	bd38      	pop	{r3, r4, r5, pc}
 80079a0:	20000338 	.word	0x20000338

080079a4 <_sbrk_r>:
 80079a4:	b538      	push	{r3, r4, r5, lr}
 80079a6:	4d06      	ldr	r5, [pc, #24]	@ (80079c0 <_sbrk_r+0x1c>)
 80079a8:	2300      	movs	r3, #0
 80079aa:	4604      	mov	r4, r0
 80079ac:	4608      	mov	r0, r1
 80079ae:	602b      	str	r3, [r5, #0]
 80079b0:	f7fc f81c 	bl	80039ec <_sbrk>
 80079b4:	1c43      	adds	r3, r0, #1
 80079b6:	d102      	bne.n	80079be <_sbrk_r+0x1a>
 80079b8:	682b      	ldr	r3, [r5, #0]
 80079ba:	b103      	cbz	r3, 80079be <_sbrk_r+0x1a>
 80079bc:	6023      	str	r3, [r4, #0]
 80079be:	bd38      	pop	{r3, r4, r5, pc}
 80079c0:	20000338 	.word	0x20000338
 80079c4:	00000000 	.word	0x00000000

080079c8 <nan>:
 80079c8:	ed9f 0b01 	vldr	d0, [pc, #4]	@ 80079d0 <nan+0x8>
 80079cc:	4770      	bx	lr
 80079ce:	bf00      	nop
 80079d0:	00000000 	.word	0x00000000
 80079d4:	7ff80000 	.word	0x7ff80000

080079d8 <__assert_func>:
 80079d8:	b51f      	push	{r0, r1, r2, r3, r4, lr}
 80079da:	4614      	mov	r4, r2
 80079dc:	461a      	mov	r2, r3
 80079de:	4b09      	ldr	r3, [pc, #36]	@ (8007a04 <__assert_func+0x2c>)
 80079e0:	681b      	ldr	r3, [r3, #0]
 80079e2:	4605      	mov	r5, r0
 80079e4:	68d8      	ldr	r0, [r3, #12]
 80079e6:	b14c      	cbz	r4, 80079fc <__assert_func+0x24>
 80079e8:	4b07      	ldr	r3, [pc, #28]	@ (8007a08 <__assert_func+0x30>)
 80079ea:	9100      	str	r1, [sp, #0]
 80079ec:	e9cd 3401 	strd	r3, r4, [sp, #4]
 80079f0:	4906      	ldr	r1, [pc, #24]	@ (8007a0c <__assert_func+0x34>)
 80079f2:	462b      	mov	r3, r5
 80079f4:	f000 fbaa 	bl	800814c <fiprintf>
 80079f8:	f000 fbba 	bl	8008170 <abort>
 80079fc:	4b04      	ldr	r3, [pc, #16]	@ (8007a10 <__assert_func+0x38>)
 80079fe:	461c      	mov	r4, r3
 8007a00:	e7f3      	b.n	80079ea <__assert_func+0x12>
 8007a02:	bf00      	nop
 8007a04:	2000001c 	.word	0x2000001c
 8007a08:	0800862e 	.word	0x0800862e
 8007a0c:	0800863b 	.word	0x0800863b
 8007a10:	08008669 	.word	0x08008669

08007a14 <_calloc_r>:
 8007a14:	b570      	push	{r4, r5, r6, lr}
 8007a16:	fba1 5402 	umull	r5, r4, r1, r2
 8007a1a:	b934      	cbnz	r4, 8007a2a <_calloc_r+0x16>
 8007a1c:	4629      	mov	r1, r5
 8007a1e:	f7fe f859 	bl	8005ad4 <_malloc_r>
 8007a22:	4606      	mov	r6, r0
 8007a24:	b928      	cbnz	r0, 8007a32 <_calloc_r+0x1e>
 8007a26:	4630      	mov	r0, r6
 8007a28:	bd70      	pop	{r4, r5, r6, pc}
 8007a2a:	220c      	movs	r2, #12
 8007a2c:	6002      	str	r2, [r0, #0]
 8007a2e:	2600      	movs	r6, #0
 8007a30:	e7f9      	b.n	8007a26 <_calloc_r+0x12>
 8007a32:	462a      	mov	r2, r5
 8007a34:	4621      	mov	r1, r4
 8007a36:	f7fd f973 	bl	8004d20 <memset>
 8007a3a:	e7f4      	b.n	8007a26 <_calloc_r+0x12>

08007a3c <rshift>:
 8007a3c:	6903      	ldr	r3, [r0, #16]
 8007a3e:	ebb3 1f61 	cmp.w	r3, r1, asr #5
 8007a42:	e92d 43f0 	stmdb	sp!, {r4, r5, r6, r7, r8, r9, lr}
 8007a46:	ea4f 1261 	mov.w	r2, r1, asr #5
 8007a4a:	f100 0414 	add.w	r4, r0, #20
 8007a4e:	dd45      	ble.n	8007adc <rshift+0xa0>
 8007a50:	f011 011f 	ands.w	r1, r1, #31
 8007a54:	eb04 0683 	add.w	r6, r4, r3, lsl #2
 8007a58:	eb04 0582 	add.w	r5, r4, r2, lsl #2
 8007a5c:	d10c      	bne.n	8007a78 <rshift+0x3c>
 8007a5e:	f100 0710 	add.w	r7, r0, #16
 8007a62:	4629      	mov	r1, r5
 8007a64:	42b1      	cmp	r1, r6
 8007a66:	d334      	bcc.n	8007ad2 <rshift+0x96>
 8007a68:	1a9b      	subs	r3, r3, r2
 8007a6a:	009b      	lsls	r3, r3, #2
 8007a6c:	1eea      	subs	r2, r5, #3
 8007a6e:	4296      	cmp	r6, r2
 8007a70:	bf38      	it	cc
 8007a72:	2300      	movcc	r3, #0
 8007a74:	4423      	add	r3, r4
 8007a76:	e015      	b.n	8007aa4 <rshift+0x68>
 8007a78:	f854 7022 	ldr.w	r7, [r4, r2, lsl #2]
 8007a7c:	f1c1 0820 	rsb	r8, r1, #32
 8007a80:	40cf      	lsrs	r7, r1
 8007a82:	f105 0e04 	add.w	lr, r5, #4
 8007a86:	46a1      	mov	r9, r4
 8007a88:	4576      	cmp	r6, lr
 8007a8a:	46f4      	mov	ip, lr
 8007a8c:	d815      	bhi.n	8007aba <rshift+0x7e>
 8007a8e:	1a9a      	subs	r2, r3, r2
 8007a90:	0092      	lsls	r2, r2, #2
 8007a92:	3a04      	subs	r2, #4
 8007a94:	3501      	adds	r5, #1
 8007a96:	42ae      	cmp	r6, r5
 8007a98:	bf38      	it	cc
 8007a9a:	2200      	movcc	r2, #0
 8007a9c:	18a3      	adds	r3, r4, r2
 8007a9e:	50a7      	str	r7, [r4, r2]
 8007aa0:	b107      	cbz	r7, 8007aa4 <rshift+0x68>
 8007aa2:	3304      	adds	r3, #4
 8007aa4:	1b1a      	subs	r2, r3, r4
 8007aa6:	42a3      	cmp	r3, r4
 8007aa8:	ea4f 02a2 	mov.w	r2, r2, asr #2
 8007aac:	bf08      	it	eq
 8007aae:	2300      	moveq	r3, #0
 8007ab0:	6102      	str	r2, [r0, #16]
 8007ab2:	bf08      	it	eq
 8007ab4:	6143      	streq	r3, [r0, #20]
 8007ab6:	e8bd 83f0 	ldmia.w	sp!, {r4, r5, r6, r7, r8, r9, pc}
 8007aba:	f8dc c000 	ldr.w	ip, [ip]
 8007abe:	fa0c fc08 	lsl.w	ip, ip, r8
 8007ac2:	ea4c 0707 	orr.w	r7, ip, r7
 8007ac6:	f849 7b04 	str.w	r7, [r9], #4
 8007aca:	f85e 7b04 	ldr.w	r7, [lr], #4
 8007ace:	40cf      	lsrs	r7, r1
 8007ad0:	e7da      	b.n	8007a88 <rshift+0x4c>
 8007ad2:	f851 cb04 	ldr.w	ip, [r1], #4
 8007ad6:	f847 cf04 	str.w	ip, [r7, #4]!
 8007ada:	e7c3      	b.n	8007a64 <rshift+0x28>
 8007adc:	4623      	mov	r3, r4
 8007ade:	e7e1      	b.n	8007aa4 <rshift+0x68>

08007ae0 <__hexdig_fun>:
 8007ae0:	f1a0 0330 	sub.w	r3, r0, #48	@ 0x30
 8007ae4:	2b09      	cmp	r3, #9
 8007ae6:	d802      	bhi.n	8007aee <__hexdig_fun+0xe>
 8007ae8:	3820      	subs	r0, #32
 8007aea:	b2c0      	uxtb	r0, r0
 8007aec:	4770      	bx	lr
 8007aee:	f1a0 0361 	sub.w	r3, r0, #97	@ 0x61
 8007af2:	2b05      	cmp	r3, #5
 8007af4:	d801      	bhi.n	8007afa <__hexdig_fun+0x1a>
 8007af6:	3847      	subs	r0, #71	@ 0x47
 8007af8:	e7f7      	b.n	8007aea <__hexdig_fun+0xa>
 8007afa:	f1a0 0341 	sub.w	r3, r0, #65	@ 0x41
 8007afe:	2b05      	cmp	r3, #5
 8007b00:	d801      	bhi.n	8007b06 <__hexdig_fun+0x26>
 8007b02:	3827      	subs	r0, #39	@ 0x27
 8007b04:	e7f1      	b.n	8007aea <__hexdig_fun+0xa>
 8007b06:	2000      	movs	r0, #0
 8007b08:	4770      	bx	lr
	...

08007b0c <__gethex>:
 8007b0c:	e92d 4ff0 	stmdb	sp!, {r4, r5, r6, r7, r8, r9, sl, fp, lr}
 8007b10:	b085      	sub	sp, #20
 8007b12:	468a      	mov	sl, r1
 8007b14:	9302      	str	r3, [sp, #8]
 8007b16:	680b      	ldr	r3, [r1, #0]
 8007b18:	9001      	str	r0, [sp, #4]
 8007b1a:	4690      	mov	r8, r2
 8007b1c:	1c9c      	adds	r4, r3, #2
 8007b1e:	46a1      	mov	r9, r4
 8007b20:	f814 0b01 	ldrb.w	r0, [r4], #1
 8007b24:	2830      	cmp	r0, #48	@ 0x30
 8007b26:	d0fa      	beq.n	8007b1e <__gethex+0x12>
 8007b28:	eba9 0303 	sub.w	r3, r9, r3
 8007b2c:	f1a3 0b02 	sub.w	fp, r3, #2
 8007b30:	f7ff ffd6 	bl	8007ae0 <__hexdig_fun>
 8007b34:	4605      	mov	r5, r0
 8007b36:	2800      	cmp	r0, #0
 8007b38:	d168      	bne.n	8007c0c <__gethex+0x100>
 8007b3a:	49a0      	ldr	r1, [pc, #640]	@ (8007dbc <__gethex+0x2b0>)
 8007b3c:	2201      	movs	r2, #1
 8007b3e:	4648      	mov	r0, r9
 8007b40:	f7ff fefc 	bl	800793c <strncmp>
 8007b44:	4607      	mov	r7, r0
 8007b46:	2800      	cmp	r0, #0
 8007b48:	d167      	bne.n	8007c1a <__gethex+0x10e>
 8007b4a:	f899 0001 	ldrb.w	r0, [r9, #1]
 8007b4e:	4626      	mov	r6, r4
 8007b50:	f7ff ffc6 	bl	8007ae0 <__hexdig_fun>
 8007b54:	2800      	cmp	r0, #0
 8007b56:	d062      	beq.n	8007c1e <__gethex+0x112>
 8007b58:	4623      	mov	r3, r4
 8007b5a:	7818      	ldrb	r0, [r3, #0]
 8007b5c:	2830      	cmp	r0, #48	@ 0x30
 8007b5e:	4699      	mov	r9, r3
 8007b60:	f103 0301 	add.w	r3, r3, #1
 8007b64:	d0f9      	beq.n	8007b5a <__gethex+0x4e>
 8007b66:	f7ff ffbb 	bl	8007ae0 <__hexdig_fun>
 8007b6a:	fab0 f580 	clz	r5, r0
 8007b6e:	096d      	lsrs	r5, r5, #5
 8007b70:	f04f 0b01 	mov.w	fp, #1
 8007b74:	464a      	mov	r2, r9
 8007b76:	4616      	mov	r6, r2
 8007b78:	3201      	adds	r2, #1
 8007b7a:	7830      	ldrb	r0, [r6, #0]
 8007b7c:	f7ff ffb0 	bl	8007ae0 <__hexdig_fun>
 8007b80:	2800      	cmp	r0, #0
 8007b82:	d1f8      	bne.n	8007b76 <__gethex+0x6a>
 8007b84:	498d      	ldr	r1, [pc, #564]	@ (8007dbc <__gethex+0x2b0>)
 8007b86:	2201      	movs	r2, #1
 8007b88:	4630      	mov	r0, r6
 8007b8a:	f7ff fed7 	bl	800793c <strncmp>
 8007b8e:	2800      	cmp	r0, #0
 8007b90:	d13f      	bne.n	8007c12 <__gethex+0x106>
 8007b92:	b944      	cbnz	r4, 8007ba6 <__gethex+0x9a>
 8007b94:	1c74      	adds	r4, r6, #1
 8007b96:	4622      	mov	r2, r4
 8007b98:	4616      	mov	r6, r2
 8007b9a:	3201      	adds	r2, #1
 8007b9c:	7830      	ldrb	r0, [r6, #0]
 8007b9e:	f7ff ff9f 	bl	8007ae0 <__hexdig_fun>
 8007ba2:	2800      	cmp	r0, #0
 8007ba4:	d1f8      	bne.n	8007b98 <__gethex+0x8c>
 8007ba6:	1ba4      	subs	r4, r4, r6
 8007ba8:	00a7      	lsls	r7, r4, #2
 8007baa:	7833      	ldrb	r3, [r6, #0]
 8007bac:	f003 03df 	and.w	r3, r3, #223	@ 0xdf
 8007bb0:	2b50      	cmp	r3, #80	@ 0x50
 8007bb2:	d13e      	bne.n	8007c32 <__gethex+0x126>
 8007bb4:	7873      	ldrb	r3, [r6, #1]
 8007bb6:	2b2b      	cmp	r3, #43	@ 0x2b
 8007bb8:	d033      	beq.n	8007c22 <__gethex+0x116>
 8007bba:	2b2d      	cmp	r3, #45	@ 0x2d
 8007bbc:	d034      	beq.n	8007c28 <__gethex+0x11c>
 8007bbe:	1c71      	adds	r1, r6, #1
 8007bc0:	2400      	movs	r4, #0
 8007bc2:	7808      	ldrb	r0, [r1, #0]
 8007bc4:	f7ff ff8c 	bl	8007ae0 <__hexdig_fun>
 8007bc8:	1e43      	subs	r3, r0, #1
 8007bca:	b2db      	uxtb	r3, r3
 8007bcc:	2b18      	cmp	r3, #24
 8007bce:	d830      	bhi.n	8007c32 <__gethex+0x126>
 8007bd0:	f1a0 0210 	sub.w	r2, r0, #16
 8007bd4:	f811 0f01 	ldrb.w	r0, [r1, #1]!
 8007bd8:	f7ff ff82 	bl	8007ae0 <__hexdig_fun>
 8007bdc:	f100 3cff 	add.w	ip, r0, #4294967295
 8007be0:	fa5f fc8c 	uxtb.w	ip, ip
 8007be4:	f1bc 0f18 	cmp.w	ip, #24
 8007be8:	f04f 030a 	mov.w	r3, #10
 8007bec:	d91e      	bls.n	8007c2c <__gethex+0x120>
 8007bee:	b104      	cbz	r4, 8007bf2 <__gethex+0xe6>
 8007bf0:	4252      	negs	r2, r2
 8007bf2:	4417      	add	r7, r2
 8007bf4:	f8ca 1000 	str.w	r1, [sl]
 8007bf8:	b1ed      	cbz	r5, 8007c36 <__gethex+0x12a>
 8007bfa:	f1bb 0f00 	cmp.w	fp, #0
 8007bfe:	bf0c      	ite	eq
 8007c00:	2506      	moveq	r5, #6
 8007c02:	2500      	movne	r5, #0
 8007c04:	4628      	mov	r0, r5
 8007c06:	b005      	add	sp, #20
 8007c08:	e8bd 8ff0 	ldmia.w	sp!, {r4, r5, r6, r7, r8, r9, sl, fp, pc}
 8007c0c:	2500      	movs	r5, #0
 8007c0e:	462c      	mov	r4, r5
 8007c10:	e7b0      	b.n	8007b74 <__gethex+0x68>
 8007c12:	2c00      	cmp	r4, #0
 8007c14:	d1c7      	bne.n	8007ba6 <__gethex+0x9a>
 8007c16:	4627      	mov	r7, r4
 8007c18:	e7c7      	b.n	8007baa <__gethex+0x9e>
 8007c1a:	464e      	mov	r6, r9
 8007c1c:	462f      	mov	r7, r5
 8007c1e:	2501      	movs	r5, #1
 8007c20:	e7c3      	b.n	8007baa <__gethex+0x9e>
 8007c22:	2400      	movs	r4, #0
 8007c24:	1cb1      	adds	r1, r6, #2
 8007c26:	e7cc      	b.n	8007bc2 <__gethex+0xb6>
 8007c28:	2401      	movs	r4, #1
 8007c2a:	e7fb      	b.n	8007c24 <__gethex+0x118>
 8007c2c:	fb03 0002 	mla	r0, r3, r2, r0
 8007c30:	e7ce      	b.n	8007bd0 <__gethex+0xc4>
 8007c32:	4631      	mov	r1, r6
 8007c34:	e7de      	b.n	8007bf4 <__gethex+0xe8>
 8007c36:	eba6 0309 	sub.w	r3, r6, r9
 8007c3a:	3b01      	subs	r3, #1
 8007c3c:	4629      	mov	r1, r5
 8007c3e:	2b07      	cmp	r3, #7
 8007c40:	dc0a      	bgt.n	8007c58 <__gethex+0x14c>
 8007c42:	9801      	ldr	r0, [sp, #4]
 8007c44:	f7fd ffd2 	bl	8005bec <_Balloc>
 8007c48:	4604      	mov	r4, r0
 8007c4a:	b940      	cbnz	r0, 8007c5e <__gethex+0x152>
 8007c4c:	4b5c      	ldr	r3, [pc, #368]	@ (8007dc0 <__gethex+0x2b4>)
 8007c4e:	4602      	mov	r2, r0
 8007c50:	21e4      	movs	r1, #228	@ 0xe4
 8007c52:	485c      	ldr	r0, [pc, #368]	@ (8007dc4 <__gethex+0x2b8>)
 8007c54:	f7ff fec0 	bl	80079d8 <__assert_func>
 8007c58:	3101      	adds	r1, #1
 8007c5a:	105b      	asrs	r3, r3, #1
 8007c5c:	e7ef      	b.n	8007c3e <__gethex+0x132>
 8007c5e:	f100 0a14 	add.w	sl, r0, #20
 8007c62:	2300      	movs	r3, #0
 8007c64:	4655      	mov	r5, sl
 8007c66:	469b      	mov	fp, r3
 8007c68:	45b1      	cmp	r9, r6
 8007c6a:	d337      	bcc.n	8007cdc <__gethex+0x1d0>
 8007c6c:	f845 bb04 	str.w	fp, [r5], #4
 8007c70:	eba5 050a 	sub.w	r5, r5, sl
 8007c74:	10ad      	asrs	r5, r5, #2
 8007c76:	6125      	str	r5, [r4, #16]
 8007c78:	4658      	mov	r0, fp
 8007c7a:	f7fe f8a7 	bl	8005dcc <__hi0bits>
 8007c7e:	016d      	lsls	r5, r5, #5
 8007c80:	f8d8 6000 	ldr.w	r6, [r8]
 8007c84:	1a2d      	subs	r5, r5, r0
 8007c86:	42b5      	cmp	r5, r6
 8007c88:	dd54      	ble.n	8007d34 <__gethex+0x228>
 8007c8a:	1bad      	subs	r5, r5, r6
 8007c8c:	4629      	mov	r1, r5
 8007c8e:	4620      	mov	r0, r4
 8007c90:	f7fe fc40 	bl	8006514 <__any_on>
 8007c94:	4681      	mov	r9, r0
 8007c96:	b178      	cbz	r0, 8007cb8 <__gethex+0x1ac>
 8007c98:	1e6b      	subs	r3, r5, #1
 8007c9a:	1159      	asrs	r1, r3, #5
 8007c9c:	f003 021f 	and.w	r2, r3, #31
 8007ca0:	f85a 1021 	ldr.w	r1, [sl, r1, lsl #2]
 8007ca4:	f04f 0901 	mov.w	r9, #1
 8007ca8:	fa09 f202 	lsl.w	r2, r9, r2
 8007cac:	420a      	tst	r2, r1
 8007cae:	d003      	beq.n	8007cb8 <__gethex+0x1ac>
 8007cb0:	454b      	cmp	r3, r9
 8007cb2:	dc36      	bgt.n	8007d22 <__gethex+0x216>
 8007cb4:	f04f 0902 	mov.w	r9, #2
 8007cb8:	4629      	mov	r1, r5
 8007cba:	4620      	mov	r0, r4
 8007cbc:	f7ff febe 	bl	8007a3c <rshift>
 8007cc0:	442f      	add	r7, r5
 8007cc2:	f8d8 3008 	ldr.w	r3, [r8, #8]
 8007cc6:	42bb      	cmp	r3, r7
 8007cc8:	da42      	bge.n	8007d50 <__gethex+0x244>
 8007cca:	9801      	ldr	r0, [sp, #4]
 8007ccc:	4621      	mov	r1, r4
 8007cce:	f7fd ffcb 	bl	8005c68 <_Bfree>
 8007cd2:	9a0e      	ldr	r2, [sp, #56]	@ 0x38
 8007cd4:	2300      	movs	r3, #0
 8007cd6:	6013      	str	r3, [r2, #0]
 8007cd8:	25a3      	movs	r5, #163	@ 0xa3
 8007cda:	e793      	b.n	8007c04 <__gethex+0xf8>
 8007cdc:	f816 2d01 	ldrb.w	r2, [r6, #-1]!
 8007ce0:	2a2e      	cmp	r2, #46	@ 0x2e
 8007ce2:	d012      	beq.n	8007d0a <__gethex+0x1fe>
 8007ce4:	2b20      	cmp	r3, #32
 8007ce6:	d104      	bne.n	8007cf2 <__gethex+0x1e6>
 8007ce8:	f845 bb04 	str.w	fp, [r5], #4
 8007cec:	f04f 0b00 	mov.w	fp, #0
 8007cf0:	465b      	mov	r3, fp
 8007cf2:	7830      	ldrb	r0, [r6, #0]
 8007cf4:	9303      	str	r3, [sp, #12]
 8007cf6:	f7ff fef3 	bl	8007ae0 <__hexdig_fun>
 8007cfa:	9b03      	ldr	r3, [sp, #12]
 8007cfc:	f000 000f 	and.w	r0, r0, #15
 8007d00:	4098      	lsls	r0, r3
 8007d02:	ea4b 0b00 	orr.w	fp, fp, r0
 8007d06:	3304      	adds	r3, #4
 8007d08:	e7ae      	b.n	8007c68 <__gethex+0x15c>
 8007d0a:	45b1      	cmp	r9, r6
 8007d0c:	d8ea      	bhi.n	8007ce4 <__gethex+0x1d8>
 8007d0e:	492b      	ldr	r1, [pc, #172]	@ (8007dbc <__gethex+0x2b0>)
 8007d10:	9303      	str	r3, [sp, #12]
 8007d12:	2201      	movs	r2, #1
 8007d14:	4630      	mov	r0, r6
 8007d16:	f7ff fe11 	bl	800793c <strncmp>
 8007d1a:	9b03      	ldr	r3, [sp, #12]
 8007d1c:	2800      	cmp	r0, #0
 8007d1e:	d1e1      	bne.n	8007ce4 <__gethex+0x1d8>
 8007d20:	e7a2      	b.n	8007c68 <__gethex+0x15c>
 8007d22:	1ea9      	subs	r1, r5, #2
 8007d24:	4620      	mov	r0, r4
 8007d26:	f7fe fbf5 	bl	8006514 <__any_on>
 8007d2a:	2800      	cmp	r0, #0
 8007d2c:	d0c2      	beq.n	8007cb4 <__gethex+0x1a8>
 8007d2e:	f04f 0903 	mov.w	r9, #3
 8007d32:	e7c1      	b.n	8007cb8 <__gethex+0x1ac>
 8007d34:	da09      	bge.n	8007d4a <__gethex+0x23e>
 8007d36:	1b75      	subs	r5, r6, r5
 8007d38:	4621      	mov	r1, r4
 8007d3a:	9801      	ldr	r0, [sp, #4]
 8007d3c:	462a      	mov	r2, r5
 8007d3e:	f7fe f9ad 	bl	800609c <__lshift>
 8007d42:	1b7f      	subs	r7, r7, r5
 8007d44:	4604      	mov	r4, r0
 8007d46:	f100 0a14 	add.w	sl, r0, #20
 8007d4a:	f04f 0900 	mov.w	r9, #0
 8007d4e:	e7b8      	b.n	8007cc2 <__gethex+0x1b6>
 8007d50:	f8d8 5004 	ldr.w	r5, [r8, #4]
 8007d54:	42bd      	cmp	r5, r7
 8007d56:	dd6f      	ble.n	8007e38 <__gethex+0x32c>
 8007d58:	1bed      	subs	r5, r5, r7
 8007d5a:	42ae      	cmp	r6, r5
 8007d5c:	dc34      	bgt.n	8007dc8 <__gethex+0x2bc>
 8007d5e:	f8d8 300c 	ldr.w	r3, [r8, #12]
 8007d62:	2b02      	cmp	r3, #2
 8007d64:	d022      	beq.n	8007dac <__gethex+0x2a0>
 8007d66:	2b03      	cmp	r3, #3
 8007d68:	d024      	beq.n	8007db4 <__gethex+0x2a8>
 8007d6a:	2b01      	cmp	r3, #1
 8007d6c:	d115      	bne.n	8007d9a <__gethex+0x28e>
 8007d6e:	42ae      	cmp	r6, r5
 8007d70:	d113      	bne.n	8007d9a <__gethex+0x28e>
 8007d72:	2e01      	cmp	r6, #1
 8007d74:	d10b      	bne.n	8007d8e <__gethex+0x282>
 8007d76:	9a02      	ldr	r2, [sp, #8]
 8007d78:	f8d8 3004 	ldr.w	r3, [r8, #4]
 8007d7c:	6013      	str	r3, [r2, #0]
 8007d7e:	2301      	movs	r3, #1
 8007d80:	6123      	str	r3, [r4, #16]
 8007d82:	f8ca 3000 	str.w	r3, [sl]
 8007d86:	9b0e      	ldr	r3, [sp, #56]	@ 0x38
 8007d88:	2562      	movs	r5, #98	@ 0x62
 8007d8a:	601c      	str	r4, [r3, #0]
 8007d8c:	e73a      	b.n	8007c04 <__gethex+0xf8>
 8007d8e:	1e71      	subs	r1, r6, #1
 8007d90:	4620      	mov	r0, r4
 8007d92:	f7fe fbbf 	bl	8006514 <__any_on>
 8007d96:	2800      	cmp	r0, #0
 8007d98:	d1ed      	bne.n	8007d76 <__gethex+0x26a>
 8007d9a:	9801      	ldr	r0, [sp, #4]
 8007d9c:	4621      	mov	r1, r4
 8007d9e:	f7fd ff63 	bl	8005c68 <_Bfree>
 8007da2:	9a0e      	ldr	r2, [sp, #56]	@ 0x38
 8007da4:	2300      	movs	r3, #0
 8007da6:	6013      	str	r3, [r2, #0]
 8007da8:	2550      	movs	r5, #80	@ 0x50
 8007daa:	e72b      	b.n	8007c04 <__gethex+0xf8>
 8007dac:	9b0f      	ldr	r3, [sp, #60]	@ 0x3c
 8007dae:	2b00      	cmp	r3, #0
 8007db0:	d1f3      	bne.n	8007d9a <__gethex+0x28e>
 8007db2:	e7e0      	b.n	8007d76 <__gethex+0x26a>
 8007db4:	9b0f      	ldr	r3, [sp, #60]	@ 0x3c
 8007db6:	2b00      	cmp	r3, #0
 8007db8:	d1dd      	bne.n	8007d76 <__gethex+0x26a>
 8007dba:	e7ee      	b.n	8007d9a <__gethex+0x28e>
 8007dbc:	08008613 	.word	0x08008613
 8007dc0:	080085a9 	.word	0x080085a9
 8007dc4:	0800866a 	.word	0x0800866a
 8007dc8:	1e6f      	subs	r7, r5, #1
 8007dca:	f1b9 0f00 	cmp.w	r9, #0
 8007dce:	d130      	bne.n	8007e32 <__gethex+0x326>
 8007dd0:	b127      	cbz	r7, 8007ddc <__gethex+0x2d0>
 8007dd2:	4639      	mov	r1, r7
 8007dd4:	4620      	mov	r0, r4
 8007dd6:	f7fe fb9d 	bl	8006514 <__any_on>
 8007dda:	4681      	mov	r9, r0
 8007ddc:	117a      	asrs	r2, r7, #5
 8007dde:	2301      	movs	r3, #1
 8007de0:	f85a 2022 	ldr.w	r2, [sl, r2, lsl #2]
 8007de4:	f007 071f 	and.w	r7, r7, #31
 8007de8:	40bb      	lsls	r3, r7
 8007dea:	4213      	tst	r3, r2
 8007dec:	4629      	mov	r1, r5
 8007dee:	4620      	mov	r0, r4
 8007df0:	bf18      	it	ne
 8007df2:	f049 0902 	orrne.w	r9, r9, #2
 8007df6:	f7ff fe21 	bl	8007a3c <rshift>
 8007dfa:	f8d8 7004 	ldr.w	r7, [r8, #4]
 8007dfe:	1b76      	subs	r6, r6, r5
 8007e00:	2502      	movs	r5, #2
 8007e02:	f1b9 0f00 	cmp.w	r9, #0
 8007e06:	d047      	beq.n	8007e98 <__gethex+0x38c>
 8007e08:	f8d8 300c 	ldr.w	r3, [r8, #12]
 8007e0c:	2b02      	cmp	r3, #2
 8007e0e:	d015      	beq.n	8007e3c <__gethex+0x330>
 8007e10:	2b03      	cmp	r3, #3
 8007e12:	d017      	beq.n	8007e44 <__gethex+0x338>
 8007e14:	2b01      	cmp	r3, #1
 8007e16:	d109      	bne.n	8007e2c <__gethex+0x320>
 8007e18:	f019 0f02 	tst.w	r9, #2
 8007e1c:	d006      	beq.n	8007e2c <__gethex+0x320>
 8007e1e:	f8da 3000 	ldr.w	r3, [sl]
 8007e22:	ea49 0903 	orr.w	r9, r9, r3
 8007e26:	f019 0f01 	tst.w	r9, #1
 8007e2a:	d10e      	bne.n	8007e4a <__gethex+0x33e>
 8007e2c:	f045 0510 	orr.w	r5, r5, #16
 8007e30:	e032      	b.n	8007e98 <__gethex+0x38c>
 8007e32:	f04f 0901 	mov.w	r9, #1
 8007e36:	e7d1      	b.n	8007ddc <__gethex+0x2d0>
 8007e38:	2501      	movs	r5, #1
 8007e3a:	e7e2      	b.n	8007e02 <__gethex+0x2f6>
 8007e3c:	9b0f      	ldr	r3, [sp, #60]	@ 0x3c
 8007e3e:	f1c3 0301 	rsb	r3, r3, #1
 8007e42:	930f      	str	r3, [sp, #60]	@ 0x3c
 8007e44:	9b0f      	ldr	r3, [sp, #60]	@ 0x3c
 8007e46:	2b00      	cmp	r3, #0
 8007e48:	d0f0      	beq.n	8007e2c <__gethex+0x320>
 8007e4a:	f8d4 b010 	ldr.w	fp, [r4, #16]
 8007e4e:	f104 0314 	add.w	r3, r4, #20
 8007e52:	ea4f 0a8b 	mov.w	sl, fp, lsl #2
 8007e56:	eb03 018b 	add.w	r1, r3, fp, lsl #2
 8007e5a:	f04f 0c00 	mov.w	ip, #0
 8007e5e:	4618      	mov	r0, r3
 8007e60:	f853 2b04 	ldr.w	r2, [r3], #4
 8007e64:	f1b2 3fff 	cmp.w	r2, #4294967295
 8007e68:	d01b      	beq.n	8007ea2 <__gethex+0x396>
 8007e6a:	3201      	adds	r2, #1
 8007e6c:	6002      	str	r2, [r0, #0]
 8007e6e:	2d02      	cmp	r5, #2
 8007e70:	f104 0314 	add.w	r3, r4, #20
 8007e74:	d13c      	bne.n	8007ef0 <__gethex+0x3e4>
 8007e76:	f8d8 2000 	ldr.w	r2, [r8]
 8007e7a:	3a01      	subs	r2, #1
 8007e7c:	42b2      	cmp	r2, r6
 8007e7e:	d109      	bne.n	8007e94 <__gethex+0x388>
 8007e80:	1171      	asrs	r1, r6, #5
 8007e82:	2201      	movs	r2, #1
 8007e84:	f853 3021 	ldr.w	r3, [r3, r1, lsl #2]
 8007e88:	f006 061f 	and.w	r6, r6, #31
 8007e8c:	fa02 f606 	lsl.w	r6, r2, r6
 8007e90:	421e      	tst	r6, r3
 8007e92:	d13a      	bne.n	8007f0a <__gethex+0x3fe>
 8007e94:	f045 0520 	orr.w	r5, r5, #32
 8007e98:	9b0e      	ldr	r3, [sp, #56]	@ 0x38
 8007e9a:	601c      	str	r4, [r3, #0]
 8007e9c:	9b02      	ldr	r3, [sp, #8]
 8007e9e:	601f      	str	r7, [r3, #0]
 8007ea0:	e6b0      	b.n	8007c04 <__gethex+0xf8>
 8007ea2:	4299      	cmp	r1, r3
 8007ea4:	f843 cc04 	str.w	ip, [r3, #-4]
 8007ea8:	d8d9      	bhi.n	8007e5e <__gethex+0x352>
 8007eaa:	68a3      	ldr	r3, [r4, #8]
 8007eac:	459b      	cmp	fp, r3
 8007eae:	db17      	blt.n	8007ee0 <__gethex+0x3d4>
 8007eb0:	6861      	ldr	r1, [r4, #4]
 8007eb2:	9801      	ldr	r0, [sp, #4]
 8007eb4:	3101      	adds	r1, #1
 8007eb6:	f7fd fe99 	bl	8005bec <_Balloc>
 8007eba:	4681      	mov	r9, r0
 8007ebc:	b918      	cbnz	r0, 8007ec6 <__gethex+0x3ba>
 8007ebe:	4b1a      	ldr	r3, [pc, #104]	@ (8007f28 <__gethex+0x41c>)
 8007ec0:	4602      	mov	r2, r0
 8007ec2:	2184      	movs	r1, #132	@ 0x84
 8007ec4:	e6c5      	b.n	8007c52 <__gethex+0x146>
 8007ec6:	6922      	ldr	r2, [r4, #16]
 8007ec8:	3202      	adds	r2, #2
 8007eca:	f104 010c 	add.w	r1, r4, #12
 8007ece:	0092      	lsls	r2, r2, #2
 8007ed0:	300c      	adds	r0, #12
 8007ed2:	f7fc ffa4 	bl	8004e1e <memcpy>
 8007ed6:	4621      	mov	r1, r4
 8007ed8:	9801      	ldr	r0, [sp, #4]
 8007eda:	f7fd fec5 	bl	8005c68 <_Bfree>
 8007ede:	464c      	mov	r4, r9
 8007ee0:	6923      	ldr	r3, [r4, #16]
 8007ee2:	1c5a      	adds	r2, r3, #1
 8007ee4:	eb04 0383 	add.w	r3, r4, r3, lsl #2
 8007ee8:	6122      	str	r2, [r4, #16]
 8007eea:	2201      	movs	r2, #1
 8007eec:	615a      	str	r2, [r3, #20]
 8007eee:	e7be      	b.n	8007e6e <__gethex+0x362>
 8007ef0:	6922      	ldr	r2, [r4, #16]
 8007ef2:	455a      	cmp	r2, fp
 8007ef4:	dd0b      	ble.n	8007f0e <__gethex+0x402>
 8007ef6:	2101      	movs	r1, #1
 8007ef8:	4620      	mov	r0, r4
 8007efa:	f7ff fd9f 	bl	8007a3c <rshift>
 8007efe:	f8d8 3008 	ldr.w	r3, [r8, #8]
 8007f02:	3701      	adds	r7, #1
 8007f04:	42bb      	cmp	r3, r7
 8007f06:	f6ff aee0 	blt.w	8007cca <__gethex+0x1be>
 8007f0a:	2501      	movs	r5, #1
 8007f0c:	e7c2      	b.n	8007e94 <__gethex+0x388>
 8007f0e:	f016 061f 	ands.w	r6, r6, #31
 8007f12:	d0fa      	beq.n	8007f0a <__gethex+0x3fe>
 8007f14:	4453      	add	r3, sl
 8007f16:	f1c6 0620 	rsb	r6, r6, #32
 8007f1a:	f853 0c04 	ldr.w	r0, [r3, #-4]
 8007f1e:	f7fd ff55 	bl	8005dcc <__hi0bits>
 8007f22:	42b0      	cmp	r0, r6
 8007f24:	dbe7      	blt.n	8007ef6 <__gethex+0x3ea>
 8007f26:	e7f0      	b.n	8007f0a <__gethex+0x3fe>
 8007f28:	080085a9 	.word	0x080085a9

08007f2c <L_shift>:
 8007f2c:	f1c2 0208 	rsb	r2, r2, #8
 8007f30:	0092      	lsls	r2, r2, #2
 8007f32:	b570      	push	{r4, r5, r6, lr}
 8007f34:	f1c2 0620 	rsb	r6, r2, #32
 8007f38:	6843      	ldr	r3, [r0, #4]
 8007f3a:	6804      	ldr	r4, [r0, #0]
 8007f3c:	fa03 f506 	lsl.w	r5, r3, r6
 8007f40:	432c      	orrs	r4, r5
 8007f42:	40d3      	lsrs	r3, r2
 8007f44:	6004      	str	r4, [r0, #0]
 8007f46:	f840 3f04 	str.w	r3, [r0, #4]!
 8007f4a:	4288      	cmp	r0, r1
 8007f4c:	d3f4      	bcc.n	8007f38 <L_shift+0xc>
 8007f4e:	bd70      	pop	{r4, r5, r6, pc}

08007f50 <__match>:
 8007f50:	b530      	push	{r4, r5, lr}
 8007f52:	6803      	ldr	r3, [r0, #0]
 8007f54:	3301      	adds	r3, #1
 8007f56:	f811 4b01 	ldrb.w	r4, [r1], #1
 8007f5a:	b914      	cbnz	r4, 8007f62 <__match+0x12>
 8007f5c:	6003      	str	r3, [r0, #0]
 8007f5e:	2001      	movs	r0, #1
 8007f60:	bd30      	pop	{r4, r5, pc}
 8007f62:	f813 2b01 	ldrb.w	r2, [r3], #1
 8007f66:	f1a2 0541 	sub.w	r5, r2, #65	@ 0x41
 8007f6a:	2d19      	cmp	r5, #25
 8007f6c:	bf98      	it	ls
 8007f6e:	3220      	addls	r2, #32
 8007f70:	42a2      	cmp	r2, r4
 8007f72:	d0f0      	beq.n	8007f56 <__match+0x6>
 8007f74:	2000      	movs	r0, #0
 8007f76:	e7f3      	b.n	8007f60 <__match+0x10>

08007f78 <__hexnan>:
 8007f78:	e92d 4ff0 	stmdb	sp!, {r4, r5, r6, r7, r8, r9, sl, fp, lr}
 8007f7c:	680b      	ldr	r3, [r1, #0]
 8007f7e:	6801      	ldr	r1, [r0, #0]
 8007f80:	115e      	asrs	r6, r3, #5
 8007f82:	eb02 0686 	add.w	r6, r2, r6, lsl #2
 8007f86:	f013 031f 	ands.w	r3, r3, #31
 8007f8a:	b087      	sub	sp, #28
 8007f8c:	bf18      	it	ne
 8007f8e:	3604      	addne	r6, #4
 8007f90:	2500      	movs	r5, #0
 8007f92:	1f37      	subs	r7, r6, #4
 8007f94:	4682      	mov	sl, r0
 8007f96:	4690      	mov	r8, r2
 8007f98:	9301      	str	r3, [sp, #4]
 8007f9a:	f846 5c04 	str.w	r5, [r6, #-4]
 8007f9e:	46b9      	mov	r9, r7
 8007fa0:	463c      	mov	r4, r7
 8007fa2:	9502      	str	r5, [sp, #8]
 8007fa4:	46ab      	mov	fp, r5
 8007fa6:	784a      	ldrb	r2, [r1, #1]
 8007fa8:	1c4b      	adds	r3, r1, #1
 8007faa:	9303      	str	r3, [sp, #12]
 8007fac:	b342      	cbz	r2, 8008000 <__hexnan+0x88>
 8007fae:	4610      	mov	r0, r2
 8007fb0:	9105      	str	r1, [sp, #20]
 8007fb2:	9204      	str	r2, [sp, #16]
 8007fb4:	f7ff fd94 	bl	8007ae0 <__hexdig_fun>
 8007fb8:	2800      	cmp	r0, #0
 8007fba:	d153      	bne.n	8008064 <__hexnan+0xec>
 8007fbc:	9a04      	ldr	r2, [sp, #16]
 8007fbe:	9905      	ldr	r1, [sp, #20]
 8007fc0:	2a20      	cmp	r2, #32
 8007fc2:	d818      	bhi.n	8007ff6 <__hexnan+0x7e>
 8007fc4:	9b02      	ldr	r3, [sp, #8]
 8007fc6:	459b      	cmp	fp, r3
 8007fc8:	dd13      	ble.n	8007ff2 <__hexnan+0x7a>
 8007fca:	454c      	cmp	r4, r9
 8007fcc:	d206      	bcs.n	8007fdc <__hexnan+0x64>
 8007fce:	2d07      	cmp	r5, #7
 8007fd0:	dc04      	bgt.n	8007fdc <__hexnan+0x64>
 8007fd2:	462a      	mov	r2, r5
 8007fd4:	4649      	mov	r1, r9
 8007fd6:	4620      	mov	r0, r4
 8007fd8:	f7ff ffa8 	bl	8007f2c <L_shift>
 8007fdc:	4544      	cmp	r4, r8
 8007fde:	d954      	bls.n	800808a <__hexnan+0x112>
 8007fe0:	2300      	movs	r3, #0
 8007fe2:	f1a4 0904 	sub.w	r9, r4, #4
 8007fe6:	f844 3c04 	str.w	r3, [r4, #-4]
 8007fea:	f8cd b008 	str.w	fp, [sp, #8]
 8007fee:	464c      	mov	r4, r9
 8007ff0:	461d      	mov	r5, r3
 8007ff2:	9903      	ldr	r1, [sp, #12]
 8007ff4:	e7d7      	b.n	8007fa6 <__hexnan+0x2e>
 8007ff6:	2a29      	cmp	r2, #41	@ 0x29
 8007ff8:	d159      	bne.n	80080ae <__hexnan+0x136>
 8007ffa:	3102      	adds	r1, #2
 8007ffc:	f8ca 1000 	str.w	r1, [sl]
 8008000:	f1bb 0f00 	cmp.w	fp, #0
 8008004:	d053      	beq.n	80080ae <__hexnan+0x136>
 8008006:	454c      	cmp	r4, r9
 8008008:	d206      	bcs.n	8008018 <__hexnan+0xa0>
 800800a:	2d07      	cmp	r5, #7
 800800c:	dc04      	bgt.n	8008018 <__hexnan+0xa0>
 800800e:	462a      	mov	r2, r5
 8008010:	4649      	mov	r1, r9
 8008012:	4620      	mov	r0, r4
 8008014:	f7ff ff8a 	bl	8007f2c <L_shift>
 8008018:	4544      	cmp	r4, r8
 800801a:	d938      	bls.n	800808e <__hexnan+0x116>
 800801c:	f1a8 0204 	sub.w	r2, r8, #4
 8008020:	4623      	mov	r3, r4
 8008022:	f853 1b04 	ldr.w	r1, [r3], #4
 8008026:	f842 1f04 	str.w	r1, [r2, #4]!
 800802a:	429f      	cmp	r7, r3
 800802c:	d2f9      	bcs.n	8008022 <__hexnan+0xaa>
 800802e:	1b3b      	subs	r3, r7, r4
 8008030:	f023 0303 	bic.w	r3, r3, #3
 8008034:	3401      	adds	r4, #1
 8008036:	3e03      	subs	r6, #3
 8008038:	42b4      	cmp	r4, r6
 800803a:	bf88      	it	hi
 800803c:	2300      	movhi	r3, #0
 800803e:	f108 0204 	add.w	r2, r8, #4
 8008042:	4413      	add	r3, r2
 8008044:	2100      	movs	r1, #0
 8008046:	461a      	mov	r2, r3
 8008048:	3304      	adds	r3, #4
 800804a:	429f      	cmp	r7, r3
 800804c:	6011      	str	r1, [r2, #0]
 800804e:	d2fa      	bcs.n	8008046 <__hexnan+0xce>
 8008050:	683b      	ldr	r3, [r7, #0]
 8008052:	b91b      	cbnz	r3, 800805c <__hexnan+0xe4>
 8008054:	4547      	cmp	r7, r8
 8008056:	d128      	bne.n	80080aa <__hexnan+0x132>
 8008058:	2301      	movs	r3, #1
 800805a:	603b      	str	r3, [r7, #0]
 800805c:	2005      	movs	r0, #5
 800805e:	b007      	add	sp, #28
 8008060:	e8bd 8ff0 	ldmia.w	sp!, {r4, r5, r6, r7, r8, r9, sl, fp, pc}
 8008064:	3501      	adds	r5, #1
 8008066:	2d08      	cmp	r5, #8
 8008068:	f10b 0b01 	add.w	fp, fp, #1
 800806c:	dd06      	ble.n	800807c <__hexnan+0x104>
 800806e:	4544      	cmp	r4, r8
 8008070:	d9bf      	bls.n	8007ff2 <__hexnan+0x7a>
 8008072:	2300      	movs	r3, #0
 8008074:	f844 3c04 	str.w	r3, [r4, #-4]
 8008078:	2501      	movs	r5, #1
 800807a:	3c04      	subs	r4, #4
 800807c:	6822      	ldr	r2, [r4, #0]
 800807e:	f000 000f 	and.w	r0, r0, #15
 8008082:	ea40 1002 	orr.w	r0, r0, r2, lsl #4
 8008086:	6020      	str	r0, [r4, #0]
 8008088:	e7b3      	b.n	8007ff2 <__hexnan+0x7a>
 800808a:	2508      	movs	r5, #8
 800808c:	e7b1      	b.n	8007ff2 <__hexnan+0x7a>
 800808e:	9b01      	ldr	r3, [sp, #4]
 8008090:	2b00      	cmp	r3, #0
 8008092:	d0dd      	beq.n	8008050 <__hexnan+0xd8>
 8008094:	f1c3 0320 	rsb	r3, r3, #32
 8008098:	f04f 32ff 	mov.w	r2, #4294967295
 800809c:	40da      	lsrs	r2, r3
 800809e:	f856 3c04 	ldr.w	r3, [r6, #-4]
 80080a2:	4013      	ands	r3, r2
 80080a4:	f846 3c04 	str.w	r3, [r6, #-4]
 80080a8:	e7d2      	b.n	8008050 <__hexnan+0xd8>
 80080aa:	3f04      	subs	r7, #4
 80080ac:	e7d0      	b.n	8008050 <__hexnan+0xd8>
 80080ae:	2004      	movs	r0, #4
 80080b0:	e7d5      	b.n	800805e <__hexnan+0xe6>

080080b2 <__ascii_mbtowc>:
 80080b2:	b082      	sub	sp, #8
 80080b4:	b901      	cbnz	r1, 80080b8 <__ascii_mbtowc+0x6>
 80080b6:	a901      	add	r1, sp, #4
 80080b8:	b142      	cbz	r2, 80080cc <__ascii_mbtowc+0x1a>
 80080ba:	b14b      	cbz	r3, 80080d0 <__ascii_mbtowc+0x1e>
 80080bc:	7813      	ldrb	r3, [r2, #0]
 80080be:	600b      	str	r3, [r1, #0]
 80080c0:	7812      	ldrb	r2, [r2, #0]
 80080c2:	1e10      	subs	r0, r2, #0
 80080c4:	bf18      	it	ne
 80080c6:	2001      	movne	r0, #1
 80080c8:	b002      	add	sp, #8
 80080ca:	4770      	bx	lr
 80080cc:	4610      	mov	r0, r2
 80080ce:	e7fb      	b.n	80080c8 <__ascii_mbtowc+0x16>
 80080d0:	f06f 0001 	mvn.w	r0, #1
 80080d4:	e7f8      	b.n	80080c8 <__ascii_mbtowc+0x16>

080080d6 <_realloc_r>:
 80080d6:	e92d 41f0 	stmdb	sp!, {r4, r5, r6, r7, r8, lr}
 80080da:	4607      	mov	r7, r0
 80080dc:	4614      	mov	r4, r2
 80080de:	460d      	mov	r5, r1
 80080e0:	b921      	cbnz	r1, 80080ec <_realloc_r+0x16>
 80080e2:	e8bd 41f0 	ldmia.w	sp!, {r4, r5, r6, r7, r8, lr}
 80080e6:	4611      	mov	r1, r2
 80080e8:	f7fd bcf4 	b.w	8005ad4 <_malloc_r>
 80080ec:	b92a      	cbnz	r2, 80080fa <_realloc_r+0x24>
 80080ee:	f7fd fc7d 	bl	80059ec <_free_r>
 80080f2:	4625      	mov	r5, r4
 80080f4:	4628      	mov	r0, r5
 80080f6:	e8bd 81f0 	ldmia.w	sp!, {r4, r5, r6, r7, r8, pc}
 80080fa:	f000 f840 	bl	800817e <_malloc_usable_size_r>
 80080fe:	4284      	cmp	r4, r0
 8008100:	4606      	mov	r6, r0
 8008102:	d802      	bhi.n	800810a <_realloc_r+0x34>
 8008104:	ebb4 0f50 	cmp.w	r4, r0, lsr #1
 8008108:	d8f4      	bhi.n	80080f4 <_realloc_r+0x1e>
 800810a:	4621      	mov	r1, r4
 800810c:	4638      	mov	r0, r7
 800810e:	f7fd fce1 	bl	8005ad4 <_malloc_r>
 8008112:	4680      	mov	r8, r0
 8008114:	b908      	cbnz	r0, 800811a <_realloc_r+0x44>
 8008116:	4645      	mov	r5, r8
 8008118:	e7ec      	b.n	80080f4 <_realloc_r+0x1e>
 800811a:	42b4      	cmp	r4, r6
 800811c:	4622      	mov	r2, r4
 800811e:	4629      	mov	r1, r5
 8008120:	bf28      	it	cs
 8008122:	4632      	movcs	r2, r6
 8008124:	f7fc fe7b 	bl	8004e1e <memcpy>
 8008128:	4629      	mov	r1, r5
 800812a:	4638      	mov	r0, r7
 800812c:	f7fd fc5e 	bl	80059ec <_free_r>
 8008130:	e7f1      	b.n	8008116 <_realloc_r+0x40>

08008132 <__ascii_wctomb>:
 8008132:	4603      	mov	r3, r0
 8008134:	4608      	mov	r0, r1
 8008136:	b141      	cbz	r1, 800814a <__ascii_wctomb+0x18>
 8008138:	2aff      	cmp	r2, #255	@ 0xff
 800813a:	d904      	bls.n	8008146 <__ascii_wctomb+0x14>
 800813c:	228a      	movs	r2, #138	@ 0x8a
 800813e:	601a      	str	r2, [r3, #0]
 8008140:	f04f 30ff 	mov.w	r0, #4294967295
 8008144:	4770      	bx	lr
 8008146:	700a      	strb	r2, [r1, #0]
 8008148:	2001      	movs	r0, #1
 800814a:	4770      	bx	lr

0800814c <fiprintf>:
 800814c:	b40e      	push	{r1, r2, r3}
 800814e:	b503      	push	{r0, r1, lr}
 8008150:	4601      	mov	r1, r0
 8008152:	ab03      	add	r3, sp, #12
 8008154:	4805      	ldr	r0, [pc, #20]	@ (800816c <fiprintf+0x20>)
 8008156:	f853 2b04 	ldr.w	r2, [r3], #4
 800815a:	6800      	ldr	r0, [r0, #0]
 800815c:	9301      	str	r3, [sp, #4]
 800815e:	f7ff f9b9 	bl	80074d4 <_vfiprintf_r>
 8008162:	b002      	add	sp, #8
 8008164:	f85d eb04 	ldr.w	lr, [sp], #4
 8008168:	b003      	add	sp, #12
 800816a:	4770      	bx	lr
 800816c:	2000001c 	.word	0x2000001c

08008170 <abort>:
 8008170:	b508      	push	{r3, lr}
 8008172:	2006      	movs	r0, #6
 8008174:	f000 f834 	bl	80081e0 <raise>
 8008178:	2001      	movs	r0, #1
 800817a:	f7fb fc07 	bl	800398c <_exit>

0800817e <_malloc_usable_size_r>:
 800817e:	f851 3c04 	ldr.w	r3, [r1, #-4]
 8008182:	1f18      	subs	r0, r3, #4
 8008184:	2b00      	cmp	r3, #0
 8008186:	bfbc      	itt	lt
 8008188:	580b      	ldrlt	r3, [r1, r0]
 800818a:	18c0      	addlt	r0, r0, r3
 800818c:	4770      	bx	lr

0800818e <_raise_r>:
 800818e:	291f      	cmp	r1, #31
 8008190:	b538      	push	{r3, r4, r5, lr}
 8008192:	4605      	mov	r5, r0
 8008194:	460c      	mov	r4, r1
 8008196:	d904      	bls.n	80081a2 <_raise_r+0x14>
 8008198:	2316      	movs	r3, #22
 800819a:	6003      	str	r3, [r0, #0]
 800819c:	f04f 30ff 	mov.w	r0, #4294967295
 80081a0:	bd38      	pop	{r3, r4, r5, pc}
 80081a2:	6bc2      	ldr	r2, [r0, #60]	@ 0x3c
 80081a4:	b112      	cbz	r2, 80081ac <_raise_r+0x1e>
 80081a6:	f852 3021 	ldr.w	r3, [r2, r1, lsl #2]
 80081aa:	b94b      	cbnz	r3, 80081c0 <_raise_r+0x32>
 80081ac:	4628      	mov	r0, r5
 80081ae:	f000 f831 	bl	8008214 <_getpid_r>
 80081b2:	4622      	mov	r2, r4
 80081b4:	4601      	mov	r1, r0
 80081b6:	4628      	mov	r0, r5
 80081b8:	e8bd 4038 	ldmia.w	sp!, {r3, r4, r5, lr}
 80081bc:	f000 b818 	b.w	80081f0 <_kill_r>
 80081c0:	2b01      	cmp	r3, #1
 80081c2:	d00a      	beq.n	80081da <_raise_r+0x4c>
 80081c4:	1c59      	adds	r1, r3, #1
 80081c6:	d103      	bne.n	80081d0 <_raise_r+0x42>
 80081c8:	2316      	movs	r3, #22
 80081ca:	6003      	str	r3, [r0, #0]
 80081cc:	2001      	movs	r0, #1
 80081ce:	e7e7      	b.n	80081a0 <_raise_r+0x12>
 80081d0:	2100      	movs	r1, #0
 80081d2:	f842 1024 	str.w	r1, [r2, r4, lsl #2]
 80081d6:	4620      	mov	r0, r4
 80081d8:	4798      	blx	r3
 80081da:	2000      	movs	r0, #0
 80081dc:	e7e0      	b.n	80081a0 <_raise_r+0x12>
	...

080081e0 <raise>:
 80081e0:	4b02      	ldr	r3, [pc, #8]	@ (80081ec <raise+0xc>)
 80081e2:	4601      	mov	r1, r0
 80081e4:	6818      	ldr	r0, [r3, #0]
 80081e6:	f7ff bfd2 	b.w	800818e <_raise_r>
 80081ea:	bf00      	nop
 80081ec:	2000001c 	.word	0x2000001c

080081f0 <_kill_r>:
 80081f0:	b538      	push	{r3, r4, r5, lr}
 80081f2:	4d07      	ldr	r5, [pc, #28]	@ (8008210 <_kill_r+0x20>)
 80081f4:	2300      	movs	r3, #0
 80081f6:	4604      	mov	r4, r0
 80081f8:	4608      	mov	r0, r1
 80081fa:	4611      	mov	r1, r2
 80081fc:	602b      	str	r3, [r5, #0]
 80081fe:	f7fb fbbb 	bl	8003978 <_kill>
 8008202:	1c43      	adds	r3, r0, #1
 8008204:	d102      	bne.n	800820c <_kill_r+0x1c>
 8008206:	682b      	ldr	r3, [r5, #0]
 8008208:	b103      	cbz	r3, 800820c <_kill_r+0x1c>
 800820a:	6023      	str	r3, [r4, #0]
 800820c:	bd38      	pop	{r3, r4, r5, pc}
 800820e:	bf00      	nop
 8008210:	20000338 	.word	0x20000338

08008214 <_getpid_r>:
 8008214:	f7fb bbae 	b.w	8003974 <_getpid>

08008218 <_init>:
 8008218:	b5f8      	push	{r3, r4, r5, r6, r7, lr}
 800821a:	bf00      	nop
 800821c:	bcf8      	pop	{r3, r4, r5, r6, r7}
 800821e:	bc08      	pop	{r3}
 8008220:	469e      	mov	lr, r3
 8008222:	4770      	bx	lr

08008224 <_fini>:
 8008224:	b5f8      	push	{r3, r4, r5, r6, r7, lr}
 8008226:	bf00      	nop
 8008228:	bcf8      	pop	{r3, r4, r5, r6, r7}
 800822a:	bc08      	pop	{r3}
 800822c:	469e      	mov	lr, r3
 800822e:	4770      	bx	lr

08008230 <__bn_add_top.constprop.0_veneer>:
 8008230:	f85f f000 	ldr.w	pc, [pc]	@ 8008234 <__bn_add_top.constprop.0_veneer+0x4>
 8008234:	000006c5 	.word	0x000006c5

08008238 <__bn_div_word_top_rec.constprop.0_veneer>:
 8008238:	f85f f000 	ldr.w	pc, [pc]	@ 800823c <__bn_div_word_top_rec.constprop.0_veneer+0x4>
 800823c:	000003f1 	.word	0x000003f1

08008240 <__bn_div_word_top_rec_veneer>:
 8008240:	f85f f000 	ldr.w	pc, [pc]	@ 8008244 <__bn_div_word_top_rec_veneer+0x4>
 8008244:	00000001 	.word	0x00000001
